cnumpy.core.multiarray
_reconstruct
p1
(cnumpy
ndarray
p2
(I0
tS'b'
tRp3
(I1
(L65L
tcnumpy
dtype
p4
(S'O8'
I0
I1
tRp5
(I3
S'|'
NNNI-1
I-1
I63
tbI00
(lp6
(lp7
I12
aI2
aI2
aI6
aI2
aI6
aI2
aI12
aI2
aI2
aI6
aI2
aI4
aI2
aI2
aI12
aI2
aI1
aI10
aI2
aI2
aI2
aI4
aI2
aI2
aI4
aI2
aI2
aI2
aI4
aI2
aI6
aI2
aI12
aI2
aI1
aI6
aI2
aI6
aI2
aI12
aI2
aI2
aI6
aI2
aI4
aI2
aI2
aI12
aI2
aI1
aI10
aI2
aI2
aI2
aI4
aI2
aI2
aI4
aI2
aI1
aI6
aI2
aI6
aI2
aI12
aI2
aI2
aI6
aI2
aI4
aI2
aI2
aI2
aI4
aI2
aI4
aI2
aI1
aI8
aI2
aI2
aI2
aI2
aI12
aI2
aI1
aI8
aI2
aI2
aI2
aI2
aI4
aI2
aI2
aI4
aI2
aI2
aI6
aI2
aI6
aI2
aI12
aI6
aI2
aI12
aI2
aI1
aI15
aI1
aa(lp8
I2
aI2
aI11
aI1
aI2
aI2
aI11
aI1
aI2
aI2
aI11
aI1
aI2
aI2
aI11
aI1
aI2
aI2
aI11
aI1
aI2
aI2
aI12
aI2
aI2
aI25
aI1
aI1
aI1
aI2
aI2
aI10
aI1
aI1
aI2
aI2
aI10
aI1
aI1
aI2
aI2
aI10
aI1
aI1
aI2
aI2
aI10
aI1
aI1
aI2
aI2
aI10
aI1
aI1
aI2
aI2
aI10
aI1
aI1
aI2
aI2
aI10
aI1
aI1
aI2
aI2
aI10
aI1
aI1
aI2
aI2
aI10
aI1
aI1
aI2
aI2
aI10
aI1
aI1
aI2
aI2
aI11
aI1
aI2
aI2
aI10
aI1
aI1
aI2
aI2
aI10
aI1
aI1
aI2
aI2
aI12
aI2
aI2
aI27
aI1
aI2
aI2
aI11
aI1
aI2
aI2
aI11
aI1
aI2
aI2
aI11
aI1
aI2
aI2
aI11
aI1
aI2
aI2
aI12
aI2
aI2
aI12
aI2
aI2
aI11
aI1
aI6
aI8
aI1
aI1
aI2
aI2
aI10
aI1
aI1
aI2
aI2
aI10
aI1
aI1
aI2
aI2
aI10
aI1
aI1
aI2
aI2
aI10
aI1
aI1
aI2
aI2
aI2
aI8
aI1
aI1
aI2
aI2
aI12
aI2
aI2
aI11
aI1
aI2
aI2
aI2
aI2
aI6
aI1
aI1
aI2
aI2
aI10
aI1
aI1
aI2
aI2
aI10
aI1
aI1
aI2
aI2
aI10
aI1
aI1
aI2
aI2
aI10
aI1
aI1
aI2
aI2
aI10
aI1
aI1
aI2
aI2
aI10
aI1
aI1
aI29
aI1
aI1
aI1
aI2
aI2
aI10
aI1
aI1
aI2
aI2
aI10
aI1
aI1
aI2
aI2
aI10
aI1
aI1
aI2
aI2
aI6
aI1
aI1
aI2
aI2
aI10
aI1
aI1
aI2
aI2
aI10
aI1
aI1
aI2
aI2
aI6
aI2
aI2
aI2
aI2
aI1
aI6
aI10
aa(lp9
I2
aI12
aI1
aI1
aI2
aI12
aI1
aI1
aI2
aI12
aI1
aI1
aI14
aI1
aI1
aI2
aI10
aI3
aI1
aI14
aI1
aI1
aI14
aI1
aI1
aI15
aI1
aI2
aI10
aI3
aI1
aI2
aI12
aI1
aI1
aI2
aI12
aI1
aI1
aI13
aI1
aI1
aI1
aI2
aI10
aI3
aI1
aI13
aI1
aI1
aI1
aI11
aI1
aI4
aI13
aI1
aI1
aI13
aI1
aI1
aI1
aI13
aI1
aI1
aI1
aI16
aI4
aI4
aI2
aI2
aI2
aI2
aI2
aI12
aI1
aI1
aI15
aI1
aI15
aI1
aI4
aI4
aI2
aI2
aI2
aI2
aI2
aI11
aI1
aI2
aI13
aI1
aI2
aI11
aI1
aI4
aI13
aI1
aI1
aI1
aI2
aI13
aI1
aI4
aI4
aI6
aI2
aI31
aI1
aI2
aI10
aI3
aI1
aI2
aI11
aI1
aI1
aI1
aI2
aI11
aI1
aI1
aI1
aI2
aI11
aI1
aI1
aI1
aI2
aI10
aI3
aI1
aI13
aI1
aI1
aI1
aI4
aI4
aI4
aI4
aI16
aI15
aI1
aa(lp10
I2
aI2
aI6
aI2
aI2
aI2
aI10
aI2
aI2
aI2
aI2
aI2
aI6
aI2
aI2
aI2
aI10
aI2
aI2
aI2
aI2
aI2
aI6
aI2
aI2
aI2
aI6
aI2
aI2
aI2
aI2
aI1
aI1
aI15
aI1
aI4
aI4
aI2
aI2
aI2
aI2
aI11
aI1
aI2
aI2
aI8
aI2
aI2
aI2
aI2
aI10
aI2
aI2
aI2
aI8
aI2
aI2
aI2
aI2
aI10
aI2
aI2
aI2
aI10
aI2
aI2
aI2
aI6
aI2
aI6
aI2
aI8
aI2
aI2
aI2
aI2
aI10
aI2
aI2
aI2
aI8
aI2
aI2
aI2
aI2
aI10
aI2
aI2
aI2
aI8
aI2
aI2
aI2
aI2
aI10
aI2
aI2
aI2
aI6
aI2
aI4
aI2
aI2
aI6
aI2
aI6
aI1
aI1
aI4
aI2
aI2
aI2
aI2
aI2
aI2
aI4
aI2
aI4
aI6
aI8
aI2
aI2
aI2
aI2
aI4
aI2
aI4
aI6
aI8
aI2
aI2
aI2
aI2
aI4
aI2
aI8
aI2
aI4
aI2
aI4
aI6
aI4
aI2
aI10
aI8
aI2
aI2
aI2
aI2
aI6
aI2
aI6
aI2
aI8
aI2
aI2
aI2
aI2
aI6
aI2
aI6
aI2
aI8
aI2
aI2
aI2
aI2
aI6
aI2
aI6
aI2
aI6
aI2
aI2
aI4
aI2
aI16
aI10
aI2
aI2
aI2
aI2
aI2
aI2
aI2
aI2
aI2
aI2
aI2
aI2
aI2
aI2
aI2
aI6
aI1
aI1
aI2
aI2
aI2
aI4
aI2
aI2
aI2
aI6
aI1
aI1
aI2
aI2
aI2
aI2
aI10
aI2
aI2
aI2
aI6
aI2
aI2
aI2
aI2
aI2
aI32
aI15
aa(lp11
I11
aI1
aI4
aI11
aI1
aI4
aI2
aI10
aI2
aI2
aI2
aI14
aI11
aI3
aI2
aI11
aI3
aI1
aI1
aI2
aI13
aI1
aI4
aI4
aI2
aI2
aI2
aI10
aI2
aI2
aI2
aI10
aI2
aI2
aI2
aI10
aI2
aI2
aI2
aI10
aI2
aI2
aI2
aI10
aI2
aI2
aI2
aI10
aI6
aI1
aI1
aI2
aI10
aI2
aI1
aI1
aI2
aI6
aI2
aI2
aI2
aI10
aI2
aI2
aI2
aI10
aI2
aI2
aI2
aI10
aI2
aI2
aI2
aI10
aI2
aI2
aI2
aI10
aI2
aI2
aI2
aI10
aI6
aI1
aI1
aI8
aI4
aI4
aI8
aI2
aI2
aI2
aI10
aI2
aI2
aI2
aI10
aI2
aI2
aI2
aI10
aI2
aI2
aI2
aI10
aI2
aI1
aI1
aI2
aI2
aI8
aI2
aI1
aI1
aI2
aI2
aI8
aI2
aI2
aI2
aI4
aI8
aI2
aI4
aI8
aI2
aI2
aI2
aI10
aI2
aI2
aI2
aI10
aI2
aI2
aI2
aI10
aI2
aI2
aI2
aI10
aI2
aI1
aI1
aI2
aI2
aI8
aI2
aI1
aI1
aI2
aI2
aI8
aI2
aI1
aI1
aI2
aI2
aI6
aI2
aI2
aI2
aI2
aI2
aI15
aI1
aI15
aI1
aa(lp12
I6
aI2
aI4
aI4
aI6
aI2
aI8
aI6
aI2
aI4
aI4
aI16
aI6
aI2
aI4
aI4
aI6
aI2
aI8
aI2
aI4
aI2
aI4
aI4
aI11
aI1
aI2
aI2
aI6
aI2
aI6
aI2
aI2
aI4
aI6
aI2
aI2
aI2
aI4
aI2
aI6
aI2
aI11
aI1
aI2
aI2
aI6
aI2
aI4
aI4
aI6
aI2
aI4
aI2
aI2
aI2
aI4
aI2
aI6
aI2
aI15
aI1
aI6
aI2
aI4
aI4
aI6
aI2
aI4
aI2
aI2
aI6
aI2
aI6
aI2
aI11
aI1
aI2
aI2
aI6
aI2
aI4
aI4
aI6
aI2
aI4
aI2
aI2
aI2
aI4
aI2
aI6
aI2
aI15
aI1
aa(lp13
I1
aI1
aI1
aI2
aI1
aI1
aI1
aI1
aI1
aI1
aI2
aI1
aI1
aI1
aI1
aI1
aI1
aI2
aI1
aI1
aI1
aI1
aI1
aI1
aI2
aI1
aI1
aI1
aI1
aI1
aI1
aI2
aI1
aI1
aI1
aI1
aI1
aI1
aI2
aI1
aI1
aI1
aI10
aI2
aI2
aI2
aI1
aI1
aI1
aI2
aI1
aI1
aI1
aI1
aI1
aI1
aI2
aI1
aI1
aI1
aI1
aI1
aI1
aI2
aI1
aI1
aI1
aI1
aI1
aI1
aI2
aI1
aI1
aI1
aI1
aI1
aI1
aI2
aI1
aI1
aI1
aI1
aI1
aI1
aI2
aI1
aI1
aI1
aI11
aI1
aI2
aI2
aI4
aI2
aI2
aI4
aI2
aI2
aI4
aI4
aI4
aI2
aI2
aI4
aI2
aI2
aI4
aI2
aI2
aI4
aI4
aI4
aI2
aI2
aI4
aI2
aI2
aI4
aI2
aI2
aI4
aI4
aI4
aI2
aI2
aI4
aI2
aI2
aI4
aI4
aI11
aI1
aI2
aI2
aI4
aI2
aI2
aI4
aI2
aI2
aI4
aI4
aI4
aI2
aI2
aI4
aI2
aI2
aI4
aI2
aI2
aI4
aI4
aI4
aI2
aI2
aI4
aI2
aI2
aI4
aI2
aI2
aI4
aI4
aI4
aI2
aI2
aI4
aI2
aI2
aI4
aI4
aI8
aI4
aI2
aI2
aI4
aI2
aI2
aI4
aI2
aI2
aI4
aI4
aI4
aI2
aI2
aI4
aI2
aI2
aI4
aI2
aI2
aI4
aI4
aI4
aI2
aI2
aI4
aI2
aI2
aI4
aI2
aI2
aI4
aI4
aI4
aI2
aI2
aI4
aI2
aI2
aI4
aI4
aI8
aI8
aa(lp14
I12
aI2
aI2
aI4
aI4
aI4
aI2
aI2
aI4
aI8
aI2
aI2
aI4
aI4
aI4
aI2
aI2
aI4
aI8
aI2
aI2
aI4
aI4
aI4
aI2
aI2
aI4
aI8
aI2
aI2
aI4
aI4
aI4
aI4
aI11
aI1
aI2
aI2
aI4
aI2
aI2
aI4
aI2
aI2
aI4
aI8
aI2
aI2
aI4
aI2
aI2
aI4
aI2
aI2
aI4
aI8
aI2
aI2
aI4
aI4
aI4
aI2
aI2
aI4
aI8
aI2
aI2
aI4
aI2
aI2
aI4
aI2
aI2
aI11
aI1
aI2
aI2
aI4
aI4
aI4
aI2
aI2
aI4
aI8
aI2
aI2
aI4
aI4
aI4
aI2
aI2
aI4
aI8
aI2
aI2
aI4
aI4
aI4
aI2
aI2
aI4
aI8
aI2
aI2
aI4
aI4
aI4
aI4
aI11
aI1
aI2
aI2
aI4
aI2
aI2
aI4
aI2
aI2
aI4
aI8
aI2
aI2
aI4
aI2
aI2
aI4
aI2
aI2
aI4
aI8
aI2
aI2
aI4
aI4
aI4
aI2
aI2
aI4
aI8
aI2
aI2
aI4
aI4
aI4
aI4
aI11
aI1
aI2
aI2
aI4
aI4
aI4
aI4
aI12
aI4
aI15
aI1
aa(lp15
I2
aI2
aI2
aI10
aI2
aI2
aI2
aI10
aI2
aI2
aI2
aI6
aI2
aI2
aI15
aI1
aI2
aI2
aI2
aI10
aI2
aI2
aI2
aI10
aI2
aI2
aI2
aI6
aI2
aI2
aI11
aI1
aI2
aI2
aI2
aI2
aI2
aI2
aI8
aI2
aI2
aI2
aI2
aI8
aI2
aI2
aI2
aI2
aI6
aI17
aI1
aI2
aI2
aI2
aI10
aI2
aI2
aI2
aI10
aI2
aI2
aI2
aI6
aI2
aI2
aI8
aI2
aI2
aI2
aI2
aI27
aI1
aI2
aI2
aI2
aI2
aI2
aI2
aI2
aI2
aI2
aI2
aI2
aI2
aI2
aI2
aI2
aI2
aI2
aI2
aI2
aI2
aI2
aI2
aI2
aI2
aI2
aI2
aI11
aI1
aI2
aI2
aI2
aI2
aI2
aI2
aI2
aI2
aI2
aI2
aI2
aI2
aI2
aI2
aI2
aI2
aI2
aI2
aI8
aI8
aI11
aI1
aI2
aI2
aI2
aI2
aI2
aI2
aI2
aI2
aI2
aI2
aI2
aI2
aI2
aI2
aI2
aI2
aI2
aI2
aI2
aI2
aI2
aI2
aI2
aI2
aI2
aI2
aI11
aI1
aI2
aI2
aI2
aI2
aI2
aI2
aI2
aI2
aI2
aI2
aI8
aI2
aI2
aI2
aI2
aI27
aI1
aI2
aI2
aI2
aI2
aI2
aI2
aI2
aI2
aI2
aI2
aI2
aI2
aI2
aI2
aI2
aI2
aI2
aI2
aI2
aI2
aI2
aI2
aI2
aI2
aI2
aI2
aI11
aI1
aI2
aI2
aI2
aI2
aI2
aI2
aI2
aI2
aI2
aI2
aI2
aI2
aI2
aI2
aI2
aI2
aI2
aI2
aI8
aI8
aI11
aI1
aI2
aI2
aI2
aI2
aI2
aI2
aI2
aI2
aI2
aI2
aI2
aI2
aI2
aI2
aI2
aI2
aI2
aI2
aI2
aI2
aI2
aI2
aI2
aI2
aI2
aI2
aI11
aI1
aI2
aI2
aI2
aI2
aI2
aI2
aI2
aI2
aI2
aI2
aI8
aI2
aI2
aI2
aI2
aI27
aI1
aI2
aI2
aI2
aI2
aI2
aI6
aI2
aI2
aI2
aI2
aI2
aI6
aI2
aI2
aI6
aI1
aI1
aI6
aI1
aI1
aI11
aI1
aI2
aI2
aI2
aI2
aI2
aI2
aI8
aI2
aI2
aI2
aI2
aI6
aI2
aI2
aI2
aI2
aI2
aI6
aI2
aI11
aI1
aI2
aI2
aI2
aI2
aI2
aI2
aI2
aI2
aI2
aI2
aI2
aI2
aI2
aI2
aI2
aI2
aI2
aI2
aI2
aI2
aI2
aI2
aI2
aI2
aI2
aI2
aI11
aI1
aI2
aI2
aI2
aI2
aI2
aI2
aI2
aI2
aI2
aI2
aI8
aI2
aI2
aI2
aI2
aI15
aI1
aI11
aI1
aI2
aI2
aI2
aI2
aI2
aI2
aI2
aI2
aI2
aI2
aI2
aI2
aI2
aI2
aI2
aI2
aI2
aI2
aI2
aI2
aI2
aI2
aI2
aI2
aI2
aI2
aI11
aI1
aI2
aI2
aI2
aI2
aI2
aI2
aI2
aI2
aI2
aI2
aI8
aI2
aI2
aI2
aI2
aI10
aI2
aI4
aI8
aI2
aI2
aI2
aI2
aI8
aI2
aI2
aI2
aI2
aI8
aI2
aI2
aI2
aI2
aI8
aI2
aI2
aI2
aI10
aI8
aI15
aa(lp16
I2
aI2
aI2
aI2
aI2
aI2
aI2
aI2
aI15
aI1
aI2
aI2
aI2
aI2
aI2
aI2
aI2
aI2
aI11
aI1
aI2
aI2
aI2
aI2
aI2
aI2
aI4
aI2
aI2
aI2
aI2
aI2
aI2
aI4
aI2
aI2
aI2
aI2
aI2
aI2
aI2
aI2
aI2
aI2
aI11
aI1
aI2
aI2
aI2
aI2
aI2
aI2
aI4
aI2
aI2
aI2
aI2
aI2
aI2
aI4
aI2
aI2
aI2
aI2
aI2
aI2
aI2
aI2
aI2
aI2
aI11
aI1
aI2
aI2
aI2
aI2
aI2
aI2
aI4
aI2
aI2
aI2
aI2
aI2
aI2
aI4
aI2
aI2
aI2
aI2
aI2
aI2
aI4
aI2
aI2
aI14
aI1
aI1
aI4
aI2
aI2
aI2
aI2
aI2
aI2
aI14
aI1
aI1
aI4
aI2
aI2
aI2
aI2
aI2
aI2
aI11
aI1
aI2
aI2
aI2
aI2
aI2
aI2
aI4
aI2
aI2
aI2
aI2
aI2
aI2
aI4
aI2
aI1
aI1
aI2
aI2
aI2
aI2
aI4
aI2
aI2
aI11
aI1
aI2
aI2
aI2
aI2
aI2
aI2
aI4
aI2
aI2
aI2
aI2
aI2
aI2
aI4
aI2
aI2
aI2
aI2
aI2
aI2
aI2
aI2
aI2
aI2
aI11
aI1
aI2
aI2
aI2
aI2
aI2
aI2
aI4
aI2
aI2
aI2
aI2
aI2
aI2
aI4
aI2
aI2
aI2
aI2
aI2
aI2
aI4
aI2
aI2
aI11
aI1
aI2
aI2
aI2
aI2
aI2
aI2
aI4
aI2
aI2
aI2
aI2
aI2
aI2
aI4
aI2
aI2
aI2
aI2
aI2
aI2
aI2
aI2
aI2
aI2
aI11
aI1
aI2
aI2
aI2
aI2
aI2
aI2
aI4
aI2
aI2
aI2
aI2
aI2
aI2
aI4
aI2
aI2
aI2
aI2
aI2
aI2
aI4
aI2
aI2
aI11
aI1
aI2
aI2
aI2
aI2
aI2
aI2
aI2
aI2
aI2
aI2
aI5
aI1
aI2
aI8
aa(lp17
I2
aI2
aI2
aI2
aI6
aI2
aI16
aI2
aI2
aI2
aI2
aI6
aI2
aI11
aI1
aI4
aI2
aI2
aI2
aI2
aI8
aI2
aI2
aI2
aI2
aI8
aI2
aI2
aI2
aI2
aI6
aI2
aI16
aI2
aI2
aI2
aI2
aI6
aI2
aI16
aI2
aI2
aI2
aI2
aI6
aI2
aI11
aI1
aI4
aI2
aI2
aI2
aI2
aI8
aI2
aI2
aI2
aI2
aI8
aI2
aI2
aI2
aI2
aI4
aI4
aI14
aI2
aI6
aI2
aI6
aI4
aI8
aI2
aI2
aI2
aI6
aI2
aI4
aI2
aI2
aI2
aI2
aI10
aI2
aI6
aI2
aI4
aI2
aI2
aI2
aI2
aI2
aI2
aI4
aI2
aI2
aI6
aI2
aI4
aI4
aI16
aI2
aI2
aI2
aI2
aI6
aI2
aI16
aI2
aI2
aI2
aI2
aI6
aI2
aI16
aI2
aI2
aI2
aI2
aI8
aI2
aI2
aI2
aI2
aI8
aI2
aI2
aI2
aI2
aI4
aI4
aI14
aI2
aI6
aI2
aI6
aI4
aI10
aI2
aI2
aI6
aI2
aI4
aI2
aI2
aI2
aI2
aI10
aI2
aI6
aI2
aI4
aI2
aI2
aI2
aI2
aI2
aI2
aI4
aI2
aI2
aI6
aI2
aI4
aI4
aI16
aI2
aI2
aI2
aI2
aI2
aI2
aI2
aI2
aI2
aI2
aI3
aI1
aI8
aI2
aI2
aI2
aI2
aI2
aI2
aI2
aI2
aI4
aI4
aI8
aI2
aI2
aI2
aI2
aI2
aI2
aI2
aI2
aI2
aI2
aI3
aI1
aI4
aI2
aI2
aI4
aI2
aI2
aI4
aI4
aI16
aI2
aI2
aI2
aI2
aI2
aI2
aI2
aI2
aI2
aI2
aI3
aI1
aI8
aI2
aI2
aI2
aI2
aI2
aI2
aI2
aI2
aI4
aI4
aI8
aI2
aI2
aI2
aI2
aI2
aI2
aI2
aI2
aI2
aI2
aI3
aI1
aI4
aI2
aI2
aI4
aI2
aI2
aI4
aI4
aI16
aI8
aI8
aI8
aI4
aI2
aI2
aI6
aI2
aI8
aI8
aI4
aI4
aI8
aI8
aI8
aI8
aI31
aI15
aI1
aa(lp18
I6
aI2
aI4
aI4
aI6
aI2
aI8
aI6
aI2
aI6
aI2
aI14
aI1
aI1
aI6
aI2
aI4
aI4
aI6
aI2
aI8
aI6
aI2
aI4
aI4
aI15
aI1
aI6
aI2
aI4
aI4
aI6
aI2
aI8
aI6
aI2
aI4
aI4
aI14
aI1
aI1
aI14
aI1
aI1
aI12
aI2
aI2
aI2
aI2
aI2
aI2
aI4
aI4
aI12
aI2
aI2
aI2
aI2
aI2
aI2
aI6
aI1
aI1
aI2
aI2
aI2
aI2
aI4
aI4
aI2
aI2
aI6
aI2
aI2
aI2
aI12
aI2
aI2
aI2
aI2
aI2
aI2
aI6
aI1
aI1
aI2
aI2
aI2
aI2
aI6
aI1
aI1
aI12
aI2
aI2
aI12
aI4
aI2
aI2
aI2
aI2
aI2
aI2
aI2
aI2
aI12
aI2
aI2
aI6
aI2
aI6
aI2
aI8
aI2
aI2
aI2
aI2
aI2
aI2
aI2
aI2
aI4
aI4
aI2
aI2
aI2
aI2
aI2
aI2
aI2
aI2
aI10
aI2
aI2
aI2
aI12
aI2
aI2
aI2
aI2
aI2
aI2
aI4
aI2
aI2
aI2
aI2
aI2
aI2
aI6
aI2
aI2
aI2
aI6
aI2
aI2
aI2
aI12
aI2
aI2
aI2
aI2
aI2
aI2
aI4
aI2
aI2
aI2
aI2
aI2
aI2
aI4
aI4
aI15
aI1
aI8
aI4
aI2
aI2
aI2
aI2
aI2
aI2
aI2
aI2
aI2
aI2
aI12
aI2
aI2
aI6
aI2
aI6
aI2
aI8
aI2
aI2
aI2
aI2
aI2
aI2
aI2
aI2
aI4
aI4
aI2
aI2
aI2
aI2
aI2
aI2
aI2
aI2
aI8
aI2
aI2
aI2
aI1
aI1
aI15
aI1
aa(lp19
I14
aI2
aI2
aI1
aI2
aI2
aI3
aI4
aI1
aI1
aI2
aI1
aI1
aI1
aI2
aI5
aI2
aI1
aI1
aI2
aI1
aI2
aI2
aI1
aI1
aI2
aI2
aI2
aI2
aI1
aI8
aI3
aI1
aI1
aI2
aI1
aI1
aI1
aI2
aI6
aI1
aI1
aI1
aI2
aI1
aI2
aI3
aI1
aI1
aI2
aI2
aI2
aI3
aI2
aI1
aI1
aI1
aI1
aI1
aI1
aI1
aI1
aI3
aI8
aI6
aI2
aI1
aI1
aI1
aI2
aI2
aI7
aI1
aI1
aI2
aI1
aI2
aI2
aI5
aI2
aI1
aI1
aI2
aI1
aI2
aI2
aI2
aI2
aI2
aI1
aI1
aI2
aI1
aI4
aI6
aI1
aI1
aI1
aI2
aI1
aI1
aI1
aI2
aI6
aI1
aI1
aI1
aI2
aI1
aI2
aI3
aI1
aI1
aI2
aI2
aI2
aI3
aI3
aI1
aI1
aI1
aI1
aI1
aI1
aI1
aI3
aI8
aI8
aI2
aI2
aI2
aI2
aI3
aI2
aI1
aI1
aI1
aI2
aI1
aI2
aI3
aI4
aI1
aI1
aI1
aI5
aI1
aI1
aI1
aI6
aI1
aI1
aI1
aI2
aI1
aI2
aI2
aI6
aI1
aI1
aI1
aI2
aI1
aI1
aI1
aI2
aI6
aI1
aI1
aI1
aI2
aI1
aI2
aI2
aI5
aI2
aI1
aI1
aI2
aI1
aI2
aI2
aI2
aI2
aI2
aI1
aI1
aI2
aI1
aI4
aI6
aI1
aI1
aI1
aI2
aI1
aI1
aI1
aI2
aI6
aI1
aI1
aI1
aI2
aI1
aI2
aI3
aI1
aI1
aI2
aI2
aI2
aI3
aI2
aI3
aI4
aI2
aI1
aI1
aI4
aI1
aI3
aI2
aI1
aI2
aI2
aI1
aI2
aI1
aI1
aI1
aI2
aI6
aI1
aI1
aI1
aI2
aI1
aI1
aI1
aI1
aI1
aI5
aI2
aI1
aI1
aI2
aI1
aI2
aI2
aI2
aI2
aI2
aI1
aI1
aI2
aI1
aI4
aI6
aI1
aI1
aI1
aI2
aI1
aI1
aI1
aI2
aI6
aI1
aI1
aI1
aI2
aI1
aI2
aI3
aI1
aI1
aI2
aI2
aI2
aI3
aI2
aI3
aI4
aI1
aI1
aI1
aI4
aI1
aI1
aI1
aI8
aI1
aI3
aI2
aI2
aI3
aI1
aI2
aI2
aI1
aI2
aI1
aI1
aI1
aI2
aI5
aI2
aI1
aI1
aI2
aI1
aI2
aI2
aI2
aI2
aI2
aI1
aI1
aI2
aI1
aI4
aI3
aI1
aI2
aI2
aI1
aI2
aI1
aI1
aI1
aI2
aI6
aI1
aI1
aI1
aI2
aI1
aI2
aI3
aI1
aI1
aI2
aI2
aI2
aI3
aI2
aI3
aI4
aI1
aI1
aI1
aI4
aI1
aI1
aI1
aI2
aI2
aI2
aI1
aI2
aI3
aI2
aI3
aI4
aI2
aI2
aI15
aI1
aa(lp20
I12
aI2
aI2
aI4
aI2
aI2
aI4
aI2
aI2
aI4
aI2
aI2
aI6
aI2
aI4
aI4
aI4
aI4
aI6
aI2
aI4
aI2
aI2
aI6
aI2
aI4
aI2
aI2
aI4
aI2
aI2
aI4
aI2
aI2
aI6
aI2
aI8
aI6
aI2
aI4
aI2
aI2
aI4
aI2
aI2
aI4
aI2
aI2
aI4
aI2
aI2
aI4
aI2
aI2
aI4
aI4
aI4
aI4
aI4
aI2
aI2
aI4
aI2
aI2
aI6
aI2
aI4
aI2
aI2
aI4
aI2
aI2
aI4
aI2
aI2
aI6
aI2
aI4
aI4
aI4
aI4
aI4
aI4
aI4
aI2
aI2
aI4
aI2
aI2
aI4
aI4
aI4
aI4
aI4
aI2
aI2
aI4
aI2
aI2
aI4
aI4
aI4
aI4
aI4
aI4
aI4
aI4
aI2
aI2
aI2
aI2
aI2
aI2
aI4
aI4
aI2
aI4
aI2
aI4
aI2
aI2
aI4
aI4
aI2
aI2
aI4
aI2
aI2
aI4
aI2
aI2
aI6
aI2
aI4
aI2
aI2
aI4
aI4
aI4
aI4
aI4
aI2
aI2
aI4
aI2
aI2
aI4
aI2
aI2
aI4
aI2
aI2
aI6
aI2
aI6
aI2
aI4
aI2
aI2
aI4
aI2
aI2
aI4
aI4
aI4
aI2
aI2
aI4
aI2
aI2
aI4
aI2
aI2
aI4
aI2
aI2
aI6
aI2
aI4
aI4
aI4
aI4
aI4
aI2
aI2
aI4
aI2
aI2
aI4
aI2
aI2
aI4
aI2
aI2
aI4
aI2
aI2
aI2
aI2
aI2
aI2
aI4
aI4
aI4
aI4
aI4
aI4
aI4
aI4
aI4
aI2
aI2
aI4
aI2
aI2
aI4
aI4
aI4
aI4
aI4
aI2
aI2
aI4
aI2
aI2
aI4
aI4
aI4
aI4
aI4
aI4
aI8
aI4
aI4
aI4
aI4
aI4
aI2
aI2
aI2
aI2
aI4
aI4
aI4
aI4
aI4
aI4
aI11
aI1
aI4
aI4
aI4
aI4
aI4
aI4
aI6
aI2
aI4
aI4
aI4
aI4
aI4
aI4
aI4
aI4
aI4
aI4
aI4
aI2
aI2
aI6
aI2
aI4
aI2
aI2
aI6
aI2
aI4
aI2
aI2
aI2
aI2
aI2
aI2
aI2
aI2
aI4
aI4
aI2
aI2
aI4
aI2
aI2
aI6
aI2
aI4
aI2
aI2
aI4
aI2
aI2
aI4
aI2
aI2
aI4
aI4
aI4
aI4
aI4
aI4
aI4
aI4
aI4
aI2
aI2
aI4
aI2
aI2
aI4
aI4
aI4
aI4
aI4
aI2
aI2
aI4
aI2
aI2
aI4
aI4
aI4
aI4
aI4
aI4
aI4
aI2
aI2
aI4
aI4
aI4
aI4
aI4
aI6
aI2
aI2
aI2
aI4
aI4
aI4
aI4
aI4
aI8
aI4
aI11
aI5
aa(lp21
I12
aI2
aI2
aI10
aI2
aI2
aI2
aI12
aI2
aI2
aI4
aI2
aI2
aI2
aI2
aI2
aI2
aI4
aI4
aI4
aI2
aI2
aI10
aI2
aI2
aI2
aI2
aI2
aI2
aI2
aI2
aI2
aI2
aI2
aI2
aI2
aI2
aI2
aI2
aI2
aI2
aI2
aI2
aI2
aI8
aI2
aI2
aI10
aI2
aI2
aI2
aI12
aI2
aI2
aI4
aI2
aI2
aI2
aI2
aI2
aI2
aI4
aI4
aI4
aI2
aI2
aI10
aI2
aI2
aI2
aI2
aI2
aI2
aI2
aI2
aI2
aI2
aI2
aI2
aI2
aI2
aI2
aI2
aI2
aI2
aI2
aI2
aI2
aI2
aI2
aI2
aI2
aI2
aI2
aI6
aI2
aI2
aI4
aI2
aI2
aI4
aI2
aI2
aI2
aI2
aI2
aI2
aI2
aI2
aI2
aI2
aI2
aI2
aI2
aI2
aI2
aI2
aI2
aI2
aI2
aI2
aI2
aI2
aI2
aI2
aI2
aI2
aI2
aI2
aI2
aI15
aI1
aI2
aI2
aI2
aI2
aI2
aI2
aI2
aI2
aI2
aI2
aI2
aI2
aI2
aI2
aI2
aI2
aI2
aI2
aI2
aI2
aI2
aI2
aI2
aI2
aI4
aI4
aI4
aI2
aI2
aI10
aI2
aI2
aI2
aI12
aI2
aI2
aI4
aI2
aI2
aI2
aI2
aI2
aI2
aI4
aI4
aI4
aI2
aI2
aI10
aI2
aI2
aI2
aI2
aI2
aI2
aI2
aI2
aI2
aI2
aI2
aI2
aI2
aI2
aI2
aI2
aI2
aI2
aI2
aI2
aI2
aI2
aI2
aI2
aI2
aI2
aI2
aI10
aI2
aI2
aI2
aI12
aI2
aI2
aI4
aI2
aI2
aI2
aI2
aI2
aI2
aI2
aI2
aI2
aI2
aI2
aI2
aI2
aI2
aI10
aI2
aI2
aI2
aI2
aI2
aI2
aI2
aI2
aI2
aI2
aI2
aI2
aI2
aI2
aI2
aI2
aI2
aI2
aI2
aI2
aI2
aI2
aI2
aI2
aI2
aI2
aI2
aI8
aI2
aI2
aI2
aI2
aI6
aI2
aI6
aI2
aI2
aI2
aI2
aI2
aI2
aI2
aI2
aI2
aI2
aI2
aI2
aI2
aI2
aI2
aI2
aI2
aI15
aI1
aI15
aI1
aa(lp22
I4
aI1
aI1
aI1
aI2
aI2
aI1
aI1
aI1
aI2
aI2
aI4
aI4
aI4
aI2
aI2
aI4
aI4
aI1
aI1
aI1
aI2
aI2
aI10
aI2
aI2
aI2
aI2
aI2
aI4
aI1
aI1
aI1
aI2
aI2
aI2
aI2
aI2
aI2
aI2
aI2
aI13
aI1
aI1
aI4
aI4
aI7
aI1
aI4
aI1
aI1
aI1
aI2
aI2
aI1
aI1
aI1
aI2
aI2
aI4
aI4
aI4
aI2
aI2
aI4
aI4
aI1
aI1
aI1
aI2
aI2
aI7
aI1
aI2
aI2
aI2
aI2
aI2
aI2
aI5
aI1
aI1
aI2
aI2
aI2
aI2
aI2
aI2
aI2
aI2
aI13
aI1
aI1
aI4
aI4
aI5
aI1
aI1
aI4
aI1
aI1
aI1
aI4
aI1
aI1
aI1
aI4
aI9
aI1
aI1
aI4
aI4
aI2
aI1
aI1
aI1
aI1
aI4
aI4
aI4
aI1
aI1
aI1
aI2
aI2
aI1
aI1
aI1
aI2
aI2
aI1
aI1
aI1
aI8
aI4
aI1
aI1
aI1
aI2
aI2
aI1
aI1
aI1
aI2
aI2
aI1
aI1
aI1
aI2
aI2
aI2
aI2
aI4
aI1
aI1
aI1
aI2
aI2
aI1
aI1
aI1
aI2
aI2
aI1
aI1
aI1
aI2
aI2
aI2
aI2
aI5
aI1
aI1
aI5
aI1
aI1
aI2
aI2
aI2
aI2
aI2
aI2
aI2
aI2
aI4
aI2
aI2
aI2
aI2
aI1
aI1
aI1
aI4
aI1
aI1
aI1
aI2
aI2
aI4
aI4
aI4
aI2
aI2
aI4
aI4
aI1
aI1
aI1
aI2
aI2
aI4
aI4
aI4
aI2
aI2
aI2
aI2
aI2
aI2
aI1
aI1
aI1
aI2
aI2
aI2
aI2
aI2
aI2
aI2
aI2
aI7
aI1
aI5
aI1
aI1
aI4
aI4
aI7
aI1
aI5
aI1
aI1
aI5
aI1
aI1
aI2
aI2
aI4
aI2
aI2
aI1
aI1
aI1
aI2
aI2
aI4
aI4
aI1
aI1
aI1
aI2
aI2
aI11
aI1
aI4
aI1
aI1
aI1
aI2
aI2
aI1
aI1
aI1
aI2
aI2
aI2
aI2
aI2
aI2
aI2
aI2
aI11
aI1
aI1
aI1
aI1
aI4
aI4
aI4
aI4
aI4
aI1
aI1
aI1
aI4
aI1
aI1
aI1
aI2
aI2
aI4
aI4
aI2
aI2
aI2
aI2
aI9
aI1
aI1
aI2
aI2
aI4
aI4
aI2
aI2
aI2
aI2
aI2
aI2
aI2
aI2
aI1
aI1
aI1
aI2
aI2
aI2
aI2
aI2
aI2
aI2
aI2
aI10
aI2
aI1
aI1
aI1
aI4
aI4
aI2
aI2
aI2
aI2
aI8
aI6
aI2
aI4
aI2
aI2
aI8
aI4
aI3
aI1
aI1
aI1
aI1
aI1
aI2
aI2
aI15
aI1
aa(lp23
I2
aI2
aI2
aI4
aI2
aI4
aI2
aI2
aI2
aI4
aI2
aI4
aI6
aI4
aI2
aI3
aI1
aI6
aI2
aI2
aI2
aI2
aI2
aI3
aI1
aI2
aI4
aI4
aI4
aI2
aI2
aI4
aI2
aI2
aI2
aI6
aI4
aI4
aI2
aI6
aI2
aI6
aI2
aI2
aI2
aI2
aI4
aI2
aI4
aI2
aI2
aI2
aI4
aI2
aI4
aI6
aI4
aI2
aI3
aI1
aI6
aI2
aI2
aI2
aI2
aI2
aI3
aI1
aI2
aI4
aI4
aI4
aI2
aI2
aI4
aI6
aI2
aI2
aI2
aI4
aI2
aI1
aI2
aI5
aI2
aI2
aI2
aI2
aI2
aI2
aI2
aI2
aI4
aI4
aI4
aI4
aI4
aI6
aI2
aI2
aI2
aI4
aI2
aI2
aI2
aI2
aI2
aI2
aI4
aI2
aI2
aI2
aI4
aI2
aI4
aI2
aI2
aI4
aI4
aI4
aI6
aI2
aI2
aI2
aI4
aI2
aI2
aI4
aI4
aI4
aI6
aI2
aI2
aI2
aI4
aI2
aI2
aI4
aI4
aI4
aI4
aI2
aI4
aI2
aI4
aI3
aI3
aI10
aI1
aI4
aI2
aI2
aI2
aI4
aI2
aI4
aI2
aI2
aI2
aI4
aI2
aI4
aI6
aI4
aI2
aI3
aI1
aI6
aI2
aI2
aI2
aI2
aI2
aI3
aI1
aI2
aI4
aI4
aI4
aI2
aI2
aI4
aI2
aI2
aI2
aI6
aI4
aI4
aI2
aI4
aI1
aI2
aI6
aI2
aI2
aI2
aI2
aI4
aI2
aI4
aI2
aI2
aI2
aI4
aI2
aI4
aI6
aI4
aI2
aI3
aI1
aI6
aI2
aI2
aI2
aI2
aI2
aI3
aI1
aI2
aI4
aI4
aI4
aI2
aI2
aI4
aI6
aI2
aI2
aI2
aI4
aI2
aI1
aI2
aI5
aI2
aI2
aI2
aI2
aI2
aI2
aI2
aI2
aI4
aI4
aI4
aI4
aI4
aI6
aI2
aI2
aI2
aI4
aI2
aI2
aI2
aI2
aI2
aI2
aI4
aI2
aI2
aI2
aI4
aI2
aI4
aI2
aI2
aI4
aI4
aI4
aI6
aI2
aI2
aI2
aI4
aI2
aI2
aI4
aI4
aI4
aI4
aI2
aI4
aI2
aI4
aI2
aI2
aI4
aI4
aI4
aI4
aI4
aI4
aI4
aI6
aI2
aI2
aI2
aI4
aI2
aI2
aI2
aI2
aI2
aI2
aI4
aI2
aI2
aI2
aI2
aI2
aI2
aI4
aI2
aI2
aI4
aI4
aI4
aI6
aI4
aI2
aI4
aI2
aI2
aI4
aI4
aI4
aI4
aI2
aI2
aI2
aI2
aI4
aI2
aI4
aI2
aI2
aI2
aI4
aI2
aI4
aI6
aI4
aI2
aI3
aI1
aI6
aI2
aI2
aI2
aI2
aI2
aI3
aI1
aI2
aI4
aI4
aI4
aI2
aI2
aI4
aI2
aI2
aI4
aI2
aI2
aI4
aI4
aI8
aI2
aI2
aI2
aI2
aI2
aI2
aI2
aI2
aI4
aI2
aI4
aI2
aI2
aI2
aI4
aI2
aI4
aI6
aI4
aI2
aI3
aI1
aI6
aI2
aI2
aI2
aI2
aI2
aI3
aI1
aI2
aI4
aI4
aI4
aI2
aI2
aI4
aI6
aI2
aI2
aI2
aI4
aI3
aI2
aI5
aI2
aI2
aI2
aI2
aI2
aI2
aI2
aI2
aI4
aI4
aI4
aI4
aI4
aI6
aI2
aI2
aI2
aI4
aI2
aI2
aI2
aI2
aI2
aI2
aI4
aI2
aI2
aI2
aI2
aI2
aI2
aI4
aI4
aI4
aI4
aI4
aI4
aI2
aI2
aI2
aI2
aI4
aI4
aI4
aI4
aI4
aI2
aI2
aI1
aI1
aI2
aI4
aI6
aI2
aI4
aI4
aI4
aI2
aI2
aI2
aI6
aI4
aI2
aI2
aI4
aI2
aI2
aI2
aI2
aI2
aI2
aI2
aI6
aI4
aI2
aI2
aI8
aI4
aI4
aI2
aI4
aI2
aI4
aI2
aI2
aI4
aI4
aI4
aI2
aI2
aI2
aI2
aI2
aI2
aI4
aI2
aI4
aI2
aI2
aI2
aI4
aI2
aI4
aI6
aI4
aI2
aI3
aI1
aI6
aI2
aI2
aI2
aI2
aI2
aI3
aI1
aI2
aI4
aI4
aI4
aI2
aI2
aI4
aI2
aI2
aI2
aI6
aI4
aI4
aI7
aI2
aI2
aI2
aI2
aI2
aI2
aI2
aI2
aI4
aI2
aI4
aI2
aI2
aI2
aI4
aI2
aI4
aI6
aI4
aI2
aI3
aI1
aI6
aI2
aI2
aI2
aI2
aI2
aI3
aI1
aI2
aI4
aI4
aI4
aI2
aI2
aI4
aI6
aI2
aI2
aI2
aI4
aI3
aI2
aI2
aI2
aI2
aI4
aI3
aI2
aI2
aI2
aI2
aI4
aI3
aI3
aI14
aI1
aa(lp24
I12
aI2
aI2
aI2
aI2
aI8
aI2
aI1
aI1
aI2
aI2
aI2
aI2
aI2
aI2
aI2
aI2
aI2
aI2
aI8
aI2
aI1
aI1
aI2
aI2
aI2
aI2
aI2
aI2
aI2
aI2
aI2
aI2
aI8
aI2
aI2
aI2
aI2
aI8
aI2
aI2
aI2
aI2
aI8
aI2
aI1
aI1
aI2
aI2
aI2
aI2
aI2
aI2
aI2
aI2
aI2
aI2
aI8
aI2
aI1
aI1
aI2
aI2
aI2
aI2
aI2
aI2
aI2
aI2
aI2
aI2
aI8
aI2
aI2
aI2
aI2
aI8
aI2
aI2
aI2
aI2
aI12
aI4
aI4
aI4
aI2
aI2
aI5
aI1
aI1
aI2
aI2
aI2
aI2
aI2
aI2
aI4
aI2
aI2
aI2
aI2
aI2
aI2
aI2
aI2
aI2
aI2
aI2
aI2
aI2
aI2
aI2
aI2
aI2
aI2
aI2
aI2
aI5
aI1
aI1
aI2
aI2
aI2
aI2
aI2
aI2
aI2
aI2
aI2
aI2
aI2
aI2
aI2
aI2
aI2
aI2
aI2
aI2
aI2
aI2
aI4
aI8
aI2
aI2
aI2
aI2
aI8
aI2
aI1
aI1
aI2
aI2
aI2
aI2
aI2
aI2
aI2
aI2
aI2
aI2
aI8
aI2
aI1
aI1
aI2
aI2
aI2
aI8
aI2
aI2
aI2
aI8
aI2
aI2
aI2
aI2
aI8
aI2
aI2
aI2
aI2
aI8
aI4
aI4
aI4
aI4
aI2
aI2
aI5
aI1
aI1
aI2
aI2
aI2
aI2
aI2
aI2
aI2
aI2
aI2
aI2
aI2
aI2
aI2
aI2
aI2
aI2
aI2
aI2
aI2
aI2
aI2
aI2
aI2
aI2
aI2
aI2
aI2
aI2
aI5
aI1
aI1
aI2
aI2
aI2
aI2
aI2
aI2
aI2
aI2
aI2
aI2
aI2
aI2
aI2
aI2
aI2
aI2
aI2
aI2
aI2
aI2
aI2
aI2
aI2
aI2
aI2
aI2
aI2
aI2
aI6
aI1
aI1
aI2
aI2
aI2
aI2
aI4
aI4
aI2
aI2
aI2
aI2
aI2
aI2
aI2
aI2
aI2
aI2
aI2
aI2
aI2
aI2
aI2
aI2
aI2
aI2
aI2
aI2
aI5
aI1
aI1
aI2
aI2
aI2
aI2
aI2
aI2
aI2
aI2
aI2
aI2
aI2
aI2
aI2
aI2
aI2
aI2
aI2
aI2
aI2
aI2
aI4
aI8
aI2
aI2
aI2
aI2
aI8
aI2
aI1
aI1
aI2
aI2
aI2
aI2
aI2
aI2
aI2
aI2
aI2
aI2
aI8
aI2
aI1
aI1
aI2
aI2
aI2
aI2
aI2
aI2
aI2
aI2
aI2
aI2
aI8
aI2
aI2
aI2
aI2
aI8
aI2
aI2
aI2
aI2
aI7
aI3
aI1
aI1
aI2
aI2
aI2
aI2
aI2
aI2
aI2
aI2
aI2
aI2
aI8
aI2
aI1
aI1
aI4
aI2
aI2
aI2
aI2
aI2
aI2
aI16
aI15
aI1
aa(lp25
I13
aI1
aI1
aI1
aI2
aI2
aI9
aI1
aI1
aI1
aI2
aI2
aI9
aI1
aI1
aI1
aI2
aI2
aI6
aI2
aI1
aI1
aI1
aI4
aI4
aI2
aI2
aI2
aI2
aI2
aI2
aI10
aI1
aI1
aI2
aI2
aI4
aI6
aI1
aI1
aI2
aI2
aI8
aI2
aI2
aI8
aI2
aI2
aI2
aI2
aI2
aI2
aI9
aI1
aI1
aI1
aI2
aI2
aI9
aI1
aI1
aI1
aI2
aI2
aI6
aI2
aI1
aI1
aI1
aI10
aI2
aI2
aI2
aI2
aI2
aI10
aI1
aI1
aI2
aI2
aI10
aI1
aI1
aI2
aI4
aI2
aI4
aI4
aI4
aI2
aI2
aI2
aI2
aI2
aI2
aI4
aI4
aI2
aI2
aI2
aI2
aI2
aI2
aI2
aI2
aI2
aI2
aI2
aI2
aI2
aI2
aI2
aI2
aI2
aI2
aI2
aI2
aI2
aI2
aI4
aI2
aI2
aI2
aI2
aI1
aI2
aI2
aI2
aI2
aI2
aI2
aI2
aI6
aI1
aI1
aI2
aI2
aI2
aI2
aI4
aI4
aI3
aI3
aI2
aI8
aI2
aI2
aI2
aI2
aI2
aI2
aI9
aI1
aI1
aI1
aI2
aI2
aI4
aI4
aI1
aI1
aI1
aI1
aI2
aI2
aI6
aI2
aI1
aI1
aI1
aI4
aI4
aI2
aI2
aI2
aI2
aI2
aI2
aI10
aI1
aI1
aI2
aI2
aI10
aI1
aI1
aI2
aI2
aI8
aI2
aI2
aI8
aI2
aI2
aI2
aI2
aI2
aI2
aI9
aI1
aI1
aI1
aI2
aI2
aI4
aI4
aI1
aI1
aI1
aI1
aI2
aI2
aI6
aI2
aI1
aI1
aI1
aI4
aI4
aI2
aI2
aI2
aI2
aI2
aI2
aI10
aI1
aI1
aI2
aI2
aI10
aI1
aI1
aI2
aI4
aI2
aI4
aI4
aI4
aI2
aI2
aI2
aI2
aI2
aI2
aI4
aI4
aI2
aI2
aI2
aI2
aI2
aI2
aI2
aI2
aI2
aI2
aI2
aI2
aI2
aI2
aI2
aI2
aI2
aI2
aI2
aI2
aI2
aI2
aI4
aI2
aI2
aI2
aI2
aI2
aI2
aI2
aI2
aI2
aI2
aI2
aI2
aI6
aI1
aI1
aI2
aI2
aI2
aI2
aI4
aI4
aI3
aI3
aI2
aI4
aI2
aI2
aI2
aI2
aI2
aI2
aI2
aI2
aI9
aI1
aI1
aI1
aI2
aI2
aI4
aI5
aI1
aI1
aI1
aI2
aI2
aI6
aI2
aI1
aI1
aI1
aI4
aI4
aI2
aI2
aI2
aI2
aI2
aI2
aI9
aI1
aI1
aI1
aI2
aI2
aI10
aI1
aI1
aI2
aI4
aI2
aI4
aI4
aI4
aI2
aI2
aI2
aI2
aI2
aI2
aI2
aI2
aI9
aI1
aI1
aI1
aI2
aI2
aI9
aI1
aI1
aI1
aI2
aI2
aI6
aI2
aI1
aI1
aI1
aI4
aI4
aI2
aI2
aI2
aI2
aI2
aI2
aI4
aI4
aI2
aI1
aI1
aI2
aI2
aI4
aI5
aI1
aI1
aI1
aI2
aI4
aI2
aI4
aI4
aI12
aI2
aI2
aI2
aI4
aI2
aI4
aI4
aI12
aI15
aI1
aa(lp26
I2
aI2
aI2
aI2
aI2
aI2
aI2
aI2
aI4
aI4
aI2
aI2
aI2
aI6
aI2
aI6
aI2
aI2
aI2
aI2
aI2
aI2
aI2
aI2
aI2
aI6
aI2
aI2
aI2
aI2
aI6
aI2
aI6
aI2
aI6
aI2
aI6
aI2
aI6
aI2
aI4
aI2
aI2
aI6
aI2
aI6
aI2
aI6
aI2
aI4
aI2
aI2
aI6
aI2
aI2
aI2
aI2
aI2
aI2
aI2
aI2
aI2
aI2
aI2
aI2
aI2
aI4
aI4
aI2
aI2
aI2
aI6
aI2
aI4
aI2
aI2
aI6
aI2
aI6
aI2
aI2
aI2
aI2
aI2
aI2
aI2
aI2
aI2
aI6
aI2
aI2
aI2
aI2
aI6
aI2
aI4
aI2
aI2
aI6
aI6
aI2
aI2
aI6
aI2
aI4
aI2
aI2
aI4
aI2
aI2
aI4
aI2
aI2
aI4
aI2
aI2
aI4
aI2
aI2
aI4
aI2
aI2
aI4
aI4
aI4
aI2
aI2
aI2
aI2
aI1
aI2
aI2
aI2
aI2
aI1
aI2
aI2
aI2
aI2
aI4
aI2
aI2
aI4
aI2
aI4
aI2
aI2
aI2
aI4
aI2
aI4
aI2
aI2
aI1
aI4
aI2
aI2
aI2
aI2
aI2
aI2
aI4
aI2
aI4
aI1
aI2
aI2
aI2
aI10
aI2
aI1
aI2
aI2
aI2
aI2
aI2
aI2
aI2
aI1
aI2
aI2
aI2
aI2
aI4
aI2
aI2
aI4
aI2
aI6
aI2
aI2
aI4
aI2
aI4
aI2
aI2
aI2
aI4
aI2
aI6
aI2
aI1
aI4
aI2
aI2
aI2
aI2
aI2
aI2
aI4
aI2
aI4
aI2
aI2
aI17
aI3
aI2
aI2
aI2
aI2
aI2
aI2
aI2
aI4
aI4
aI2
aI2
aI2
aI6
aI2
aI4
aI2
aI2
aI6
aI2
aI6
aI2
aI2
aI2
aI2
aI2
aI2
aI2
aI2
aI2
aI6
aI2
aI2
aI2
aI2
aI6
aI2
aI4
aI2
aI2
aI6
aI4
aI4
aI2
aI6
aI2
aI4
aI2
aI2
aI6
aI2
aI4
aI2
aI2
aI6
aI2
aI6
aI2
aI6
aI2
aI4
aI2
aI2
aI2
aI2
aI2
aI2
aI2
aI2
aI2
aI2
aI4
aI4
aI2
aI2
aI2
aI4
aI2
aI2
aI4
aI2
aI2
aI6
aI2
aI4
aI2
aI2
aI2
aI2
aI2
aI2
aI2
aI2
aI2
aI2
aI6
aI2
aI2
aI2
aI2
aI6
aI2
aI4
aI2
aI2
aI6
aI2
aI4
aI2
aI2
aI6
aI2
aI4
aI2
aI2
aI6
aI2
aI4
aI2
aI2
aI6
aI2
aI4
aI2
aI2
aI6
aI2
aI6
aI2
aI4
aI2
aI1
aI2
aI2
aI2
aI2
aI2
aI2
aI2
aI1
aI2
aI2
aI2
aI2
aI4
aI2
aI2
aI4
aI2
aI4
aI2
aI2
aI2
aI4
aI2
aI4
aI2
aI2
aI1
aI4
aI2
aI2
aI2
aI2
aI2
aI2
aI4
aI2
aI4
aI2
aI2
aI4
aI10
aI2
aI1
aI2
aI2
aI2
aI2
aI2
aI2
aI2
aI1
aI2
aI2
aI2
aI2
aI4
aI2
aI2
aI4
aI2
aI6
aI2
aI2
aI4
aI2
aI4
aI2
aI2
aI1
aI4
aI2
aI2
aI2
aI2
aI2
aI1
aI4
aI2
aI2
aI2
aI2
aI2
aI2
aI4
aI2
aI4
aI1
aI2
aI17
aI1
aI2
aI2
aI2
aI2
aI2
aI2
aI2
aI2
aI4
aI4
aI2
aI2
aI2
aI6
aI2
aI4
aI2
aI2
aI6
aI2
aI4
aI2
aI2
aI2
aI2
aI2
aI2
aI2
aI2
aI2
aI2
aI6
aI2
aI2
aI2
aI2
aI6
aI2
aI4
aI2
aI2
aI6
aI2
aI2
aI4
aI1
aI4
aI11
aI1
aa(lp27
I10
aI2
aI2
aI2
aI6
aI10
aI6
aI6
aI4
aI4
aI2
aI4
aI2
aI2
aI2
aI8
aI2
aI2
aI2
aI2
aI4
aI2
aI10
aI6
aI6
aI4
aI4
aI2
aI4
aI2
aI2
aI10
aI2
aI2
aI2
aI2
aI4
aI2
aI6
aI4
aI6
aI6
aI4
aI4
aI2
aI4
aI6
aI4
aI4
aI2
aI2
aI2
aI4
aI2
aI2
aI4
aI4
aI6
aI6
aI4
aI4
aI2
aI4
aI2
aI2
aI10
aI8
aI12
aI4
aI4
aI2
aI4
aI4
aI4
aI2
aI2
aI4
aI2
aI2
aI10
aI4
aI2
aI2
aI4
aI4
aI2
aI2
aI2
aI6
aI6
aI2
aI2
aI6
aI4
aI4
aI8
aI2
aI2
aI2
aI2
aI8
aI2
aI4
aI4
aI4
aI2
aI4
aI4
aI4
aI2
aI2
aI4
aI2
aI2
aI14
aI2
aI2
aI4
aI4
aI2
aI2
aI2
aI6
aI2
aI4
aI2
aI2
aI6
aI4
aI4
aI8
aI10
aI4
aI2
aI4
aI2
aI2
aI6
aI2
aI2
aI2
aI2
aI2
aI2
aI8
aI2
aI2
aI2
aI2
aI4
aI2
aI4
aI4
aI2
aI6
aI4
aI4
aI6
aI2
aI10
aI8
aI2
aI2
aI2
aI2
aI6
aI2
aI2
aI2
aI2
aI2
aI2
aI2
aI2
aI2
aI2
aI2
aI2
aI2
aI2
aI2
aI2
aI2
aI2
aI2
aI2
aI2
aI2
aI2
aI2
aI2
aI2
aI2
aI2
aI2
aI2
aI2
aI2
aI2
aI2
aI2
aI2
aI2
aI2
aI2
aI2
aI2
aI2
aI2
aI2
aI2
aI6
aI4
aI2
aI2
aI6
aI2
aI2
aI2
aI2
aI2
aI1
aI4
aI2
aI4
aI4
aI4
aI4
aI4
aI6
aI4
aI2
aI4
aI4
aI10
aI4
aI2
aI2
aI4
aI2
aI4
aI4
aI4
aI4
aI6
aI2
aI2
aI6
aI6
aI12
aI2
aI6
aI2
aI2
aI2
aI2
aI2
aI2
aI2
aI2
aI2
aI2
aI2
aI2
aI6
aI2
aI4
aI2
aI4
aI4
aI4
aI2
aI2
aI4
aI2
aI2
aI6
aI2
aI6
aI2
aI1
aI4
aI4
aI2
aI2
aI2
aI6
aI6
aI2
aI2
aI6
aI4
aI4
aI8
aI2
aI2
aI2
aI2
aI8
aI2
aI2
aI2
aI4
aI4
aI2
aI4
aI4
aI4
aI2
aI2
aI2
aI2
aI2
aI2
aI2
aI2
aI2
aI2
aI6
aI2
aI1
aI4
aI3
aI4
aI2
aI2
aI6
aI2
aI4
aI2
aI2
aI6
aI4
aI4
aI6
aI2
aI2
aI8
aI4
aI2
aI4
aI2
aI2
aI6
aI2
aI2
aI4
aI2
aI2
aI8
aI2
aI2
aI2
aI2
aI4
aI2
aI4
aI4
aI8
aI4
aI4
aI2
aI16
aI6
aI2
aI2
aI2
aI2
aI2
aI6
aI2
aI3
aI1
aI2
aI2
aI2
aI2
aI2
aI2
aI2
aI2
aI2
aI2
aI2
aI4
aI2
aI4
aI2
aI4
aI2
aI2
aI2
aI2
aI2
aI2
aI2
aI2
aI4
aI2
aI2
aI2
aI2
aI2
aI2
aI2
aI2
aI2
aI2
aI2
aI2
aI2
aI6
aI2
aI2
aI2
aI2
aI2
aI2
aI2
aI2
aI2
aI2
aI2
aI2
aI2
aI6
aI6
aI2
aI2
aI2
aI2
aI2
aI2
aI2
aI2
aI2
aI2
aI2
aI4
aI2
aI2
aI2
aI2
aI8
aI2
aI2
aI2
aI2
aI2
aI2
aI2
aI2
aI2
aI4
aI2
aI2
aI2
aI2
aI4
aI2
aI2
aI2
aI2
aI6
aI2
aI2
aI2
aI4
aI2
aI2
aI2
aI2
aI4
aI2
aI1
aI4
aI4
aI4
aI3
aI4
aI4
aI4
aI3
aI4
aI4
aI4
aI4
aI4
aI4
aI4
aI4
aI8
aI8
aI8
aI2
aI2
aI2
aI2
aI2
aI2
aI4
aI24
aI8
aa(lp28
I4
aI2
aI4
aI4
aI4
aI6
aI2
aI2
aI2
aI6
aI2
aI6
aI2
aI6
aI2
aI2
aI2
aI2
aI2
aI6
aI2
aI4
aI4
aI6
aI2
aI4
aI4
aI4
aI4
aI6
aI2
aI6
aI2
aI2
aI8
aI4
aI4
aI4
aI8
aI2
aI2
aI2
aI2
aI2
aI2
aI2
aI2
aI2
aI4
aI2
aI4
aI2
aI4
aI4
aI2
aI6
aI2
aI2
aI4
aI1
aI6
aI2
aI2
aI2
aI2
aI2
aI8
aI2
aI2
aI2
aI2
aI4
aI2
aI4
aI4
aI10
aI2
aI2
aI2
aI4
aI2
aI2
aI4
aI2
aI2
aI4
aI2
aI2
aI4
aI2
aI2
aI4
aI4
aI4
aI4
aI2
aI4
aI4
aI2
aI2
aI2
aI4
aI2
aI2
aI2
aI2
aI2
aI2
aI2
aI2
aI2
aI2
aI2
aI2
aI2
aI2
aI4
aI4
aI4
aI4
aI2
aI2
aI6
aI2
aI2
aI2
aI4
aI2
aI2
aI4
aI2
aI2
aI4
aI2
aI2
aI4
aI2
aI2
aI4
aI2
aI2
aI4
aI2
aI2
aI2
aI6
aI2
aI2
aI2
aI2
aI4
aI2
aI2
aI2
aI2
aI2
aI2
aI2
aI2
aI2
aI2
aI2
aI2
aI2
aI2
aI4
aI4
aI4
aI6
aI2
aI2
aI2
aI2
aI2
aI6
aI4
aI2
aI4
aI4
aI4
aI6
aI2
aI2
aI2
aI6
aI2
aI6
aI2
aI6
aI2
aI2
aI2
aI2
aI2
aI6
aI2
aI4
aI4
aI6
aI2
aI4
aI4
aI4
aI4
aI6
aI2
aI6
aI2
aI2
aI8
aI4
aI4
aI4
aI8
aI2
aI2
aI2
aI2
aI2
aI2
aI2
aI2
aI2
aI2
aI2
aI2
aI4
aI2
aI4
aI4
aI2
aI6
aI2
aI2
aI2
aI2
aI2
aI6
aI2
aI2
aI2
aI2
aI2
aI8
aI2
aI2
aI2
aI2
aI4
aI2
aI4
aI4
aI10
aI2
aI2
aI2
aI4
aI2
aI2
aI4
aI2
aI2
aI4
aI2
aI2
aI4
aI2
aI2
aI4
aI4
aI4
aI4
aI2
aI4
aI4
aI2
aI2
aI2
aI4
aI2
aI2
aI2
aI2
aI2
aI2
aI2
aI2
aI2
aI2
aI2
aI2
aI2
aI2
aI4
aI4
aI4
aI4
aI2
aI2
aI6
aI2
aI2
aI2
aI4
aI2
aI2
aI4
aI2
aI2
aI4
aI2
aI2
aI4
aI2
aI2
aI4
aI2
aI2
aI4
aI2
aI2
aI2
aI6
aI2
aI2
aI2
aI2
aI4
aI2
aI2
aI2
aI2
aI2
aI2
aI2
aI2
aI2
aI2
aI2
aI2
aI2
aI2
aI4
aI4
aI4
aI6
aI2
aI2
aI2
aI2
aI2
aI6
aI4
aI4
aI8
aI4
aI4
aI8
aI10
aI2
aI2
aI17
aI1
aa(lp29
I1
aI1
aI1
aI1
aI1
aI1
aI1
aI1
aI8
aI1
aI1
aI1
aI1
aI1
aI1
aI1
aI1
aI2
aI2
aI1
aI1
aI1
aI1
aI1
aI1
aI1
aI1
aI1
aI1
aI1
aI1
aI3
aI1
aI4
aI1
aI1
aI1
aI1
aI1
aI1
aI1
aI1
aI2
aI2
aI2
aI2
aI1
aI1
aI1
aI1
aI1
aI1
aI1
aI1
aI1
aI1
aI1
aI1
aI1
aI1
aI1
aI1
aI1
aI1
aI1
aI1
aI1
aI1
aI1
aI1
aI1
aI1
aI1
aI1
aI1
aI1
aI1
aI1
aI1
aI1
aI1
aI1
aI1
aI1
aI1
aI1
aI1
aI1
aI1
aI1
aI1
aI1
aI1
aI1
aI1
aI1
aI1
aI1
aI1
aI1
aI1
aI1
aI1
aI1
aI1
aI1
aI1
aI1
aI1
aI1
aI1
aI1
aI1
aI1
aI1
aI1
aI1
aI1
aI3
aI1
aI4
aI1
aI1
aI1
aI1
aI2
aI2
aI3
aI1
aI2
aI1
aI1
aI1
aI1
aI4
aI1
aI1
aI1
aI1
aI4
aI1
aI1
aI1
aI1
aI1
aI1
aI2
aI1
aI1
aI3
aI1
aI4
aI1
aI1
aI1
aI1
aI1
aI1
aI1
aI1
aI3
aI1
aI4
aI1
aI1
aI1
aI1
aI1
aI1
aI1
aI1
aI2
aI2
aI1
aI1
aI1
aI1
aI1
aI1
aI1
aI1
aI1
aI1
aI1
aI1
aI3
aI1
aI4
aI1
aI1
aI1
aI1
aI1
aI1
aI1
aI1
aI2
aI2
aI2
aI2
aI1
aI1
aI1
aI1
aI1
aI1
aI1
aI1
aI1
aI1
aI1
aI1
aI1
aI1
aI1
aI1
aI1
aI1
aI1
aI1
aI1
aI1
aI1
aI1
aI1
aI1
aI1
aI1
aI1
aI1
aI1
aI1
aI1
aI1
aI1
aI1
aI1
aI1
aI1
aI1
aI1
aI1
aI1
aI1
aI1
aI1
aI1
aI1
aI1
aI1
aI1
aI1
aI1
aI1
aI1
aI1
aI1
aI1
aI1
aI1
aI1
aI1
aI1
aI1
aI3
aI1
aI1
aI1
aI1
aI1
aI3
aI1
aI2
aI1
aI1
aI1
aI1
aI1
aI1
aI2
aI1
aI3
aI1
aI2
aI1
aI1
aI3
aI1
aI2
aI1
aI1
aI2
aI1
aI3
aI1
aI1
aI2
aI1
aI1
aI2
aI2
aI1
aI7
aI1
aI1
aI1
aI1
aI2
aI2
aI8
aI1
aI1
aI1
aI1
aI2
aI2
aI8
aI1
aI1
aI1
aI1
aI2
aI2
aI8
aI4
aI3
aI7
aI1
aa(lp30
I10
aI2
aI2
aI2
aI4
aI2
aI4
aI4
aI10
aI2
aI2
aI2
aI2
aI4
aI2
aI4
aI2
aI2
aI4
aI4
aI4
aI2
aI2
aI2
aI4
aI2
aI4
aI4
aI6
aI2
aI4
aI2
aI2
aI2
aI4
aI2
aI4
aI2
aI2
aI4
aI2
aI2
aI2
aI4
aI2
aI2
aI4
aI2
aI4
aI4
aI4
aI4
aI4
aI4
aI4
aI2
aI2
aI4
aI2
aI2
aI4
aI2
aI2
aI2
aI4
aI2
aI2
aI6
aI4
aI4
aI4
aI4
aI4
aI6
aI6
aI4
aI4
aI4
aI4
aI4
aI6
aI10
aI14
aI2
aI2
aI2
aI2
aI4
aI2
aI4
aI4
aI10
aI2
aI2
aI2
aI2
aI4
aI2
aI4
aI2
aI2
aI4
aI4
aI4
aI2
aI2
aI2
aI4
aI2
aI4
aI4
aI6
aI2
aI4
aI2
aI2
aI2
aI4
aI2
aI4
aI2
aI2
aI4
aI2
aI2
aI2
aI4
aI2
aI2
aI4
aI2
aI4
aI4
aI4
aI4
aI4
aI4
aI4
aI2
aI2
aI4
aI2
aI2
aI4
aI2
aI2
aI2
aI4
aI2
aI2
aI6
aI4
aI4
aI4
aI4
aI4
aI6
aI6
aI4
aI4
aI4
aI4
aI4
aI6
aI10
aI6
aI8
aI2
aI2
aI2
aI2
aI4
aI2
aI4
aI4
aI2
aI2
aI2
aI2
aI2
aI2
aI2
aI2
aI1
aI1
aI2
aI2
aI2
aI4
aI4
aI2
aI2
aI2
aI2
aI2
aI2
aI2
aI2
aI1
aI1
aI2
aI2
aI2
aI4
aI4
aI2
aI2
aI2
aI2
aI2
aI2
aI2
aI2
aI1
aI1
aI2
aI2
aI2
aI4
aI4
aI10
aI6
aI1
aI1
aI2
aI2
aI2
aI4
aI4
aI2
aI2
aI2
aI2
aI2
aI2
aI2
aI2
aI1
aI1
aI2
aI2
aI2
aI4
aI4
aI2
aI2
aI2
aI2
aI2
aI2
aI2
aI2
aI1
aI1
aI2
aI2
aI2
aI4
aI4
aI2
aI2
aI2
aI2
aI2
aI2
aI2
aI2
aI1
aI1
aI2
aI2
aI2
aI4
aI4
aI4
aI2
aI2
aI4
aI2
aI2
aI4
aI2
aI2
aI4
aI2
aI2
aI2
aI4
aI2
aI4
aI4
aI10
aI2
aI2
aI2
aI2
aI4
aI2
aI4
aI2
aI2
aI4
aI4
aI4
aI2
aI2
aI2
aI4
aI2
aI4
aI4
aI6
aI2
aI4
aI2
aI2
aI2
aI4
aI2
aI4
aI2
aI2
aI4
aI2
aI2
aI2
aI4
aI2
aI2
aI4
aI2
aI4
aI4
aI4
aI4
aI4
aI4
aI4
aI2
aI2
aI4
aI2
aI2
aI4
aI2
aI2
aI2
aI4
aI2
aI2
aI6
aI4
aI4
aI4
aI4
aI4
aI6
aI6
aI4
aI4
aI2
aI2
aI4
aI10
aI6
aI4
aI4
aI2
aI2
aI4
aI4
aI6
aI4
aI2
aI2
aI2
aI4
aI2
aI2
aI4
aI2
aI2
aI4
aI12
aI4
aI10
aI2
aI2
aI2
aI8
aI4
aI4
aI2
aI2
aI4
aI4
aI6
aI4
aI2
aI2
aI2
aI7
aI6
aI8
aI8
aI2
aI2
aI2
aI2
aI4
aI2
aI4
aI4
aI2
aI2
aI2
aI2
aI2
aI2
aI2
aI2
aI1
aI1
aI2
aI2
aI2
aI4
aI4
aI2
aI2
aI2
aI2
aI2
aI2
aI2
aI2
aI1
aI1
aI2
aI2
aI2
aI4
aI4
aI2
aI2
aI2
aI2
aI2
aI2
aI2
aI2
aI1
aI1
aI2
aI2
aI2
aI4
aI4
aI2
aI2
aI2
aI2
aI2
aI2
aI2
aI2
aI1
aI1
aI2
aI2
aI2
aI4
aI4
aI2
aI2
aI2
aI2
aI2
aI2
aI2
aI2
aI1
aI1
aI2
aI2
aI2
aI4
aI4
aI2
aI2
aI2
aI2
aI2
aI2
aI2
aI2
aI1
aI1
aI2
aI2
aI2
aI4
aI4
aI2
aI2
aI2
aI2
aI2
aI2
aI2
aI2
aI1
aI1
aI2
aI2
aI2
aI4
aI6
aI4
aI2
aI2
aI2
aI2
aI2
aI2
aI13
aI3
aa(lp31
I4
aI2
aI2
aI8
aI2
aI2
aI2
aI2
aI6
aI2
aI6
aI2
aI8
aI2
aI2
aI2
aI2
aI4
aI2
aI2
aI4
aI2
aI2
aI4
aI2
aI2
aI2
aI2
aI2
aI2
aI2
aI2
aI2
aI2
aI4
aI2
aI2
aI4
aI2
aI2
aI4
aI4
aI4
aI4
aI4
aI4
aI4
aI2
aI2
aI2
aI2
aI2
aI2
aI6
aI2
aI8
aI2
aI2
aI2
aI2
aI2
aI2
aI2
aI2
aI2
aI2
aI2
aI2
aI4
aI2
aI2
aI4
aI2
aI2
aI2
aI2
aI2
aI2
aI2
aI2
aI2
aI2
aI4
aI2
aI2
aI4
aI2
aI2
aI4
aI4
aI4
aI2
aI2
aI4
aI4
aI4
aI4
aI2
aI2
aI2
aI2
aI2
aI4
aI2
aI4
aI4
aI4
aI4
aI2
aI2
aI2
aI2
aI2
aI2
aI1
aI1
aI1
aI8
aI4
aI2
aI2
aI2
aI2
aI2
aI2
aI2
aI2
aI2
aI2
aI4
aI2
aI2
aI4
aI2
aI2
aI4
aI4
aI4
aI2
aI2
aI4
aI4
aI4
aI4
aI2
aI2
aI4
aI4
aI2
aI2
aI4
aI4
aI4
aI2
aI2
aI2
aI2
aI4
aI4
aI4
aI4
aI2
aI2
aI6
aI2
aI4
aI4
aI4
aI2
aI2
aI4
aI2
aI2
aI4
aI2
aI2
aI4
aI2
aI2
aI4
aI2
aI2
aI4
aI4
aI4
aI2
aI2
aI2
aI2
aI2
aI2
aI4
aI2
aI2
aI4
aI4
aI4
aI4
aI2
aI2
aI2
aI2
aI4
aI2
aI2
aI4
aI2
aI2
aI4
aI2
aI2
aI2
aI2
aI2
aI2
aI2
aI2
aI2
aI2
aI4
aI2
aI2
aI4
aI2
aI4
aI2
aI2
aI2
aI2
aI2
aI2
aI2
aI4
aI4
aI4
aI4
aI4
aI4
aI8
aI8
aI4
aI4
aI15
aI1
aa(lp32
I12
aI2
aI2
aI4
aI4
aI4
aI2
aI6
aI4
aI4
aI2
aI2
aI6
aI6
aI2
aI2
aI4
aI2
aI2
aI4
aI2
aI2
aI6
aI4
aI2
aI2
aI8
aI6
aI2
aI4
aI4
aI4
aI2
aI2
aI6
aI2
aI2
aI2
aI2
aI2
aI6
aI4
aI4
aI2
aI6
aI4
aI2
aI2
aI2
aI8
aI6
aI2
aI2
aI4
aI2
aI2
aI4
aI2
aI2
aI4
aI2
aI4
aI4
aI4
aI2
aI2
aI4
aI4
aI6
aI2
aI8
aI2
aI4
aI2
aI2
aI4
aI2
aI2
aI4
aI2
aI4
aI4
aI4
aI4
aI6
aI2
aI2
aI4
aI2
aI4
aI2
aI2
aI8
aI2
aI4
aI2
aI2
aI4
aI2
aI4
aI4
aI4
aI2
aI2
aI4
aI4
aI6
aI2
aI6
aI2
aI2
aI4
aI2
aI2
aI2
aI2
aI2
aI6
aI2
aI4
aI4
aI4
aI6
aI2
aI2
aI2
aI1
aI4
aI2
aI4
aI2
aI2
aI6
aI2
aI2
aI4
aI2
aI2
aI4
aI2
aI4
aI4
aI4
aI2
aI2
aI4
aI4
aI6
aI2
aI4
aI2
aI4
aI4
aI2
aI2
aI4
aI2
aI2
aI4
aI4
aI4
aI2
aI6
aI4
aI2
aI2
aI2
aI8
aI6
aI2
aI2
aI4
aI2
aI2
aI4
aI2
aI2
aI6
aI4
aI2
aI2
aI8
aI6
aI4
aI4
aI2
aI6
aI4
aI4
aI2
aI2
aI2
aI2
aI2
aI2
aI15
aI1
aa(lp33
I4
aI4
aI6
aI2
aI2
aI2
aI2
aI2
aI2
aI2
aI2
aI2
aI1
aI2
aI2
aI2
aI5
aI2
aI8
aI6
aI2
aI8
aI2
aI2
aI2
aI2
aI2
aI2
aI2
aI2
aI6
aI2
aI8
aI2
aI2
aI2
aI2
aI2
aI2
aI2
aI2
aI6
aI2
aI8
aI2
aI2
aI2
aI2
aI2
aI2
aI2
aI2
aI6
aI2
aI8
aI2
aI2
aI2
aI2
aI2
aI2
aI1
aI3
aI4
aI2
aI2
aI4
aI2
aI2
aI2
aI2
aI2
aI2
aI2
aI2
aI2
aI2
aI3
aI2
aI2
aI4
aI4
aI2
aI2
aI2
aI2
aI2
aI2
aI2
aI2
aI5
aI2
aI4
aI2
aI2
aI2
aI2
aI2
aI2
aI2
aI2
aI2
aI2
aI4
aI2
aI2
aI4
aI2
aI2
aI2
aI2
aI2
aI2
aI2
aI2
aI2
aI2
aI3
aI4
aI4
aI2
aI2
aI4
aI4
aI4
aI2
aI2
aI4
aI2
aI2
aI4
aI2
aI2
aI4
aI4
aI4
aI2
aI2
aI3
aI2
aI2
aI2
aI2
aI2
aI2
aI4
aI4
aI4
aI4
aI6
aI2
aI4
aI2
aI2
aI4
aI4
aI4
aI4
aI5
aI2
aI6
aI2
aI4
aI4
aI4
aI2
aI2
aI8
aI4
aI2
aI2
aI4
aI4
aI4
aI2
aI2
aI5
aI2
aI6
aI2
aI4
aI4
aI4
aI4
aI6
aI1
aI2
aI2
aI2
aI2
aI15
aI1
aI6
aI2
aI6
aI2
aI2
aI2
aI2
aI2
aI2
aI2
aI2
aI2
aI6
aI2
aI6
aI2
aI2
aI2
aI2
aI2
aI2
aI2
aI2
aI2
aI6
aI2
aI6
aI2
aI2
aI2
aI2
aI2
aI2
aI2
aI2
aI2
aI6
aI2
aI6
aI2
aI2
aI2
aI2
aI2
aI2
aI2
aI2
aI2
aI5
aI2
aI8
aI2
aI2
aI2
aI2
aI2
aI2
aI2
aI2
aI6
aI2
aI8
aI2
aI2
aI2
aI2
aI2
aI2
aI2
aI2
aI6
aI2
aI8
aI2
aI2
aI2
aI2
aI2
aI2
aI2
aI2
aI6
aI2
aI8
aI2
aI2
aI2
aI2
aI2
aI2
aI1
aI3
aI4
aI2
aI2
aI4
aI2
aI2
aI2
aI2
aI2
aI2
aI2
aI2
aI2
aI2
aI3
aI2
aI2
aI4
aI2
aI2
aI2
aI2
aI2
aI2
aI2
aI2
aI2
aI2
aI3
aI2
aI2
aI4
aI2
aI2
aI2
aI2
aI2
aI2
aI2
aI2
aI2
aI2
aI3
aI2
aI2
aI4
aI2
aI2
aI2
aI2
aI2
aI2
aI2
aI2
aI2
aI2
aI3
aI2
aI2
aI3
aI2
aI2
aI2
aI2
aI2
aI2
aI4
aI2
aI2
aI3
aI2
aI2
aI4
aI2
aI2
aI2
aI2
aI2
aI2
aI4
aI2
aI2
aI3
aI2
aI2
aI2
aI2
aI2
aI2
aI4
aI4
aI4
aI4
aI5
aI2
aI2
aI2
aI2
aI2
aI4
aI4
aI4
aI4
aI6
aI2
aI4
aI2
aI2
aI2
aI2
aI2
aI2
aI4
aI2
aI2
aI6
aI2
aI4
aI2
aI2
aI2
aI2
aI2
aI2
aI2
aI2
aI2
aI2
aI3
aI2
aI2
aI2
aI2
aI2
aI2
aI2
aI2
aI4
aI4
aI4
aI6
aI1
aI2
aI2
aI2
aI2
aI15
aI1
aI6
aI2
aI8
aI2
aI2
aI2
aI2
aI2
aI2
aI2
aI2
aI6
aI2
aI8
aI2
aI2
aI2
aI2
aI2
aI2
aI2
aI2
aI6
aI2
aI8
aI2
aI2
aI2
aI2
aI2
aI2
aI2
aI2
aI6
aI2
aI8
aI2
aI2
aI2
aI2
aI2
aI2
aI2
aI2
aI6
aI10
aI15
aI1
aa(lp34
I2
aI2
aI2
aI2
aI2
aI2
aI2
aI11
aI1
aI1
aI2
aI2
aI2
aI2
aI2
aI2
aI2
aI11
aI1
aI1
aI2
aI1
aI2
aI1
aI1
aI2
aI1
aI1
aI2
aI1
aI1
aI1
aI2
aI2
aI2
aI2
aI6
aI1
aI1
aI5
aI1
aI1
aI1
aI6
aI1
aI1
aI5
aI1
aI1
aI1
aI7
aI2
aI1
aI2
aI1
aI1
aI2
aI1
aI1
aI2
aI1
aI1
aI1
aI2
aI2
aI2
aI2
aI2
aI2
aI2
aI1
aI1
aI6
aI1
aI1
aI2
aI2
aI2
aI1
aI1
aI2
aI2
aI1
aI1
aI1
aI1
aI4
aI2
aI1
aI1
aI1
aI1
aI1
aI1
aI1
aI1
aI1
aI1
aI1
aI1
aI1
aI1
aI1
aI1
aI1
aI1
aI1
aI1
aI1
aI1
aI1
aI1
aI1
aI1
aI2
aI2
aI1
aI1
aI1
aI1
aI1
aI1
aI1
aI1
aI1
aI1
aI1
aI1
aI1
aI1
aI1
aI1
aI1
aI1
aI1
aI1
aI1
aI1
aI1
aI1
aI1
aI1
aI1
aI1
aI2
aI2
aI2
aI1
aI1
aI1
aI1
aI1
aI1
aI2
aI1
aI1
aI1
aI1
aI1
aI1
aI2
aI1
aI1
aI1
aI1
aI1
aI1
aI1
aI1
aI1
aI1
aI2
aI2
aI2
aI1
aI1
aI1
aI1
aI1
aI1
aI2
aI1
aI1
aI1
aI1
aI1
aI1
aI1
aI1
aI1
aI1
aI1
aI1
aI1
aI1
aI1
aI1
aI1
aI1
aI2
aI2
aI2
aI2
aI1
aI1
aI2
aI1
aI2
aI1
aI1
aI2
aI1
aI1
aI2
aI1
aI1
aI1
aI2
aI2
aI2
aI2
aI6
aI1
aI1
aI5
aI1
aI1
aI1
aI1
aI1
aI1
aI1
aI1
aI1
aI1
aI1
aI1
aI1
aI1
aI1
aI1
aI1
aI1
aI1
aI1
aI1
aI1
aI1
aI2
aI2
aI2
aI1
aI2
aI1
aI1
aI2
aI1
aI1
aI2
aI1
aI1
aI1
aI2
aI2
aI2
aI2
aI2
aI2
aI2
aI1
aI1
aI6
aI1
aI1
aI1
aI1
aI1
aI1
aI1
aI1
aI1
aI1
aI1
aI1
aI1
aI1
aI1
aI1
aI1
aI1
aI1
aI1
aI1
aI1
aI1
aI1
aI1
aI1
aI1
aI1
aI1
aI1
aI2
aI1
aI1
aI1
aI1
aI1
aI1
aI2
aI1
aI1
aI1
aI1
aI1
aI1
aI2
aI1
aI1
aI1
aI1
aI1
aI1
aI2
aI1
aI1
aI1
aI1
aI1
aI1
aI2
aI1
aI1
aI1
aI1
aI1
aI1
aI2
aI1
aI1
aI1
aI1
aI1
aI1
aI2
aI1
aI1
aI1
aI1
aI1
aI1
aI2
aI1
aI1
aI1
aI1
aI1
aI1
aI2
aI1
aI1
aI1
aI1
aI1
aI1
aI2
aI1
aI1
aI1
aI1
aI1
aI1
aI2
aI1
aI1
aI1
aI1
aI1
aI1
aI2
aI1
aI1
aI1
aI1
aI1
aI1
aI2
aI1
aI1
aI1
aI1
aI1
aI1
aI2
aI1
aI1
aI1
aI1
aI1
aI1
aI1
aI1
aI1
aI1
aI2
aI2
aI3
aI2
aI2
aI2
aI2
aI2
aI2
aI2
aI2
aI2
aI2
aI2
aI2
aI4
aI2
aI2
aI4
aI2
aI1
aI1
aI2
aI2
aI2
aI1
aI1
aI2
aI2
aI2
aI1
aI1
aI6
aI1
aI1
aI2
aI2
aI2
aI1
aI2
aI2
aI2
aI2
aI2
aI2
aI2
aI2
aI6
aI1
aI1
aI6
aI1
aI1
aI2
aI2
aI2
aI1
aI1
aI2
aI2
aI2
aI1
aI1
aI4
aI4
aI2
aI2
aI2
aI2
aI7
aa(lp35
I12
aI2
aI2
aI4
aI8
aI4
aI4
aI8
aI2
aI2
aI4
aI8
aI4
aI4
aI8
aI2
aI2
aI4
aI8
aI4
aI4
aI8
aI4
aI4
aI8
aI4
aI11
aI1
aI4
aI2
aI2
aI6
aI2
aI2
aI2
aI2
aI2
aI2
aI2
aI2
aI2
aI2
aI2
aI2
aI2
aI6
aI2
aI2
aI2
aI2
aI2
aI2
aI2
aI2
aI2
aI2
aI2
aI4
aI6
aI2
aI2
aI2
aI2
aI2
aI6
aI2
aI2
aI2
aI2
aI2
aI6
aI2
aI2
aI2
aI2
aI2
aI8
aI4
aI2
aI2
aI6
aI2
aI2
aI2
aI2
aI2
aI2
aI2
aI2
aI2
aI2
aI2
aI2
aI2
aI6
aI2
aI2
aI2
aI2
aI2
aI2
aI2
aI2
aI2
aI2
aI2
aI4
aI6
aI2
aI2
aI2
aI2
aI2
aI4
aI2
aI2
aI2
aI2
aI2
aI2
aI4
aI2
aI2
aI2
aI2
aI2
aI2
aI8
aI2
aI2
aI4
aI8
aI4
aI4
aI8
aI2
aI2
aI4
aI8
aI4
aI4
aI8
aI2
aI2
aI4
aI8
aI4
aI4
aI8
aI4
aI4
aI8
aI4
aI11
aI1
aI4
aI2
aI2
aI4
aI2
aI2
aI2
aI2
aI2
aI2
aI2
aI2
aI2
aI2
aI2
aI2
aI2
aI2
aI6
aI2
aI2
aI2
aI2
aI2
aI2
aI2
aI2
aI2
aI2
aI2
aI2
aI2
aI4
aI2
aI2
aI2
aI2
aI2
aI2
aI4
aI2
aI2
aI2
aI2
aI2
aI2
aI4
aI2
aI2
aI2
aI2
aI2
aI2
aI8
aI4
aI2
aI2
aI4
aI2
aI2
aI2
aI2
aI2
aI2
aI2
aI2
aI2
aI2
aI2
aI2
aI2
aI2
aI6
aI2
aI2
aI2
aI2
aI2
aI2
aI2
aI2
aI2
aI2
aI2
aI2
aI2
aI4
aI2
aI2
aI2
aI2
aI2
aI2
aI4
aI2
aI2
aI2
aI2
aI2
aI2
aI6
aI2
aI2
aI2
aI2
aI2
aI4
aI8
aI4
aI2
aI2
aI4
aI2
aI2
aI8
aI2
aI2
aI2
aI2
aI4
aI2
aI2
aI4
aI2
aI2
aI4
aI2
aI2
aI4
aI2
aI2
aI4
aI2
aI2
aI4
aI4
aI4
aI2
aI2
aI4
aI4
aI4
aI2
aI2
aI2
aI2
aI2
aI2
aI4
aI2
aI2
aI4
aI4
aI2
aI2
aI6
aI2
aI2
aI2
aI2
aI2
aI2
aI2
aI2
aI2
aI2
aI2
aI2
aI2
aI6
aI2
aI2
aI2
aI2
aI2
aI2
aI2
aI2
aI2
aI2
aI2
aI2
aI2
aI4
aI2
aI2
aI2
aI2
aI2
aI2
aI6
aI2
aI2
aI2
aI2
aI2
aI4
aI2
aI2
aI2
aI2
aI2
aI2
aI4
aI2
aI2
aI2
aI2
aI2
aI2
aI4
aI2
aI2
aI2
aI2
aI2
aI2
aI2
aI2
aI2
aI2
aI2
aI2
aI2
aI2
aI6
aI2
aI2
aI2
aI2
aI2
aI2
aI2
aI2
aI2
aI2
aI2
aI2
aI2
aI4
aI2
aI2
aI2
aI2
aI2
aI2
aI4
aI2
aI2
aI2
aI2
aI2
aI2
aI6
aI2
aI2
aI2
aI2
aI2
aI4
aI4
aI4
aI4
aI2
aI2
aI4
aI4
aI4
aI4
aI4
aI4
aI8
aI4
aI4
aI15
aI1
aa(lp36
I2
aI2
aI2
aI2
aI8
aI4
aI8
aI4
aI4
aI6
aI2
aI2
aI2
aI4
aI8
aI4
aI8
aI2
aI2
aI2
aI2
aI4
aI8
aI4
aI10
aI2
aI2
aI2
aI4
aI2
aI2
aI6
aI2
aI6
aI2
aI2
aI2
aI2
aI2
aI4
aI2
aI2
aI2
aI2
aI4
aI6
aI4
aI2
aI2
aI2
aI6
aI4
aI2
aI4
aI6
aI2
aI2
aI2
aI2
aI2
aI4
aI2
aI6
aI4
aI6
aI4
aI2
aI2
aI2
aI6
aI2
aI2
aI2
aI2
aI2
aI2
aI2
aI2
aI2
aI8
aI2
aI2
aI2
aI4
aI2
aI2
aI2
aI2
aI4
aI6
aI2
aI2
aI2
aI2
aI2
aI6
aI2
aI4
aI4
aI4
aI4
aI2
aI2
aI2
aI2
aI6
aI2
aI2
aI2
aI4
aI4
aI6
aI2
aI2
aI2
aI4
aI2
aI2
aI6
aI2
aI6
aI2
aI2
aI2
aI2
aI2
aI4
aI2
aI4
aI2
aI4
aI6
aI4
aI2
aI2
aI2
aI6
aI6
aI4
aI6
aI4
aI2
aI2
aI2
aI6
aI6
aI4
aI6
aI4
aI2
aI2
aI2
aI28
aI2
aI2
aI6
aI2
aI2
aI2
aI2
aI2
aI6
aI2
aI2
aI2
aI2
aI2
aI6
aI6
aI2
aI2
aI6
aI2
aI2
aI2
aI2
aI2
aI6
aI2
aI4
aI2
aI2
aI6
aI4
aI2
aI2
aI2
aI4
aI2
aI4
aI2
aI2
aI2
aI6
aI2
aI2
aI2
aI2
aI2
aI4
aI2
aI2
aI2
aI2
aI4
aI6
aI4
aI2
aI2
aI2
aI6
aI6
aI2
aI2
aI4
aI4
aI2
aI2
aI2
aI2
aI4
aI2
aI6
aI4
aI6
aI2
aI2
aI6
aI2
aI2
aI2
aI4
aI4
aI4
aI4
aI4
aI4
aI4
aI4
aI4
aI4
aI4
aI4
aI4
aI4
aI4
aI4
aI4
aI4
aI4
aI4
aI4
aI4
aI4
aI2
aI2
aI4
aI2
aI4
aI2
aI4
aI6
aI4
aI2
aI2
aI2
aI6
aI4
aI2
aI2
aI2
aI4
aI4
aI2
aI2
aI2
aI2
aI4
aI4
aI4
aI4
aI10
aI2
aI2
aI10
aI4
aI4
aI4
aI4
aI4
aI4
aI4
aI4
aI4
aI4
aI4
aI4
aI4
aI4
aI4
aI4
aI4
aI4
aI4
aI4
aI4
aI4
aI4
aI4
aI4
aI2
aI4
aI2
aI2
aI1
aI6
aI4
aI2
aI2
aI2
aI6
aI4
aI2
aI2
aI2
aI6
aI2
aI2
aI2
aI2
aI2
aI4
aI2
aI4
aI2
aI4
aI6
aI4
aI2
aI2
aI2
aI6
aI4
aI2
aI2
aI2
aI4
aI4
aI2
aI2
aI2
aI2
aI4
aI2
aI6
aI4
aI10
aI2
aI2
aI10
aI4
aI2
aI2
aI2
aI2
aI2
aI2
aI2
aI2
aI2
aI2
aI2
aI2
aI2
aI2
aI8
aI2
aI2
aI2
aI2
aI2
aI2
aI2
aI2
aI2
aI2
aI20
aa(lp37
I2
aI1
aI3
aI2
aI2
aI6
aI2
aI4
aI2
aI2
aI4
aI2
aI2
aI4
aI2
aI2
aI4
aI2
aI2
aI10
aI4
aI2
aI4
aI2
aI2
aI4
aI2
aI2
aI4
aI2
aI2
aI4
aI2
aI2
aI6
aI2
aI4
aI4
aI4
aI2
aI2
aI4
aI2
aI2
aI10
aI2
aI2
aI2
aI4
aI4
aI4
aI4
aI6
aI2
aI4
aI4
aI4
aI4
aI4
aI2
aI2
aI10
aI2
aI2
aI2
aI4
aI4
aI4
aI4
aI4
aI4
aI4
aI4
aI10
aI2
aI2
aI2
aI10
aI2
aI2
aI2
aI4
aI2
aI2
aI4
aI2
aI2
aI4
aI2
aI2
aI4
aI2
aI2
aI4
aI8
aI2
aI2
aI10
aI2
aI2
aI2
aI4
aI4
aI4
aI2
aI2
aI4
aI2
aI2
aI4
aI4
aI4
aI4
aI4
aI2
aI2
aI2
aI2
aI2
aI2
aI4
aI2
aI2
aI4
aI4
aI4
aI2
aI2
aI4
aI2
aI2
aI4
aI2
aI2
aI2
aI12
aI2
aI2
aI2
aI2
aI2
aI4
aI2
aI2
aI4
aI4
aI4
aI2
aI2
aI4
aI2
aI2
aI4
aI4
aI10
aI4
aI2
aI4
aI2
aI2
aI6
aI2
aI4
aI2
aI2
aI4
aI2
aI2
aI4
aI2
aI2
aI4
aI2
aI2
aI10
aI4
aI2
aI4
aI2
aI2
aI4
aI2
aI2
aI4
aI2
aI2
aI4
aI2
aI2
aI6
aI2
aI4
aI4
aI4
aI2
aI2
aI4
aI2
aI2
aI2
aI8
aI4
aI2
aI4
aI4
aI4
aI4
aI6
aI2
aI4
aI4
aI4
aI4
aI4
aI2
aI2
aI4
aI2
aI2
aI4
aI2
aI2
aI4
aI4
aI4
aI4
aI4
aI4
aI4
aI4
aI10
aI2
aI2
aI2
aI10
aI2
aI2
aI2
aI4
aI2
aI2
aI4
aI2
aI2
aI4
aI2
aI2
aI4
aI2
aI2
aI4
aI8
aI2
aI2
aI10
aI2
aI2
aI2
aI4
aI4
aI4
aI2
aI2
aI4
aI2
aI2
aI4
aI4
aI4
aI4
aI4
aI2
aI2
aI2
aI2
aI2
aI2
aI4
aI2
aI2
aI4
aI4
aI4
aI2
aI2
aI4
aI2
aI2
aI4
aI2
aI2
aI10
aI4
aI2
aI2
aI2
aI2
aI2
aI4
aI2
aI2
aI4
aI4
aI4
aI2
aI2
aI4
aI2
aI2
aI4
aI4
aI2
aI2
aI2
aI2
aI2
aI2
aI2
aI2
aI2
aI2
aI4
aI4
aI2
aI2
aI4
aI4
aI4
aI2
aI2
aI4
aI2
aI2
aI4
aI2
aI2
aI4
aI2
aI1
aI1
aI6
aI2
aI2
aI2
aI2
aI2
aI4
aI2
aI2
aI4
aI4
aI4
aI2
aI2
aI4
aI2
aI2
aI4
aI4
aI10
aI4
aI2
aI4
aI2
aI2
aI6
aI2
aI4
aI2
aI2
aI4
aI2
aI2
aI4
aI2
aI2
aI4
aI2
aI2
aI10
aI4
aI2
aI4
aI2
aI2
aI4
aI2
aI2
aI4
aI2
aI2
aI4
aI2
aI2
aI6
aI2
aI4
aI4
aI4
aI4
aI4
aI2
aI2
aI2
aI8
aI2
aI2
aI2
aI2
aI15
aI1
aa(lp38
I12
aI2
aI2
aI10
aI2
aI2
aI2
aI8
aI4
aI3
aI1
aI10
aI2
aI2
aI2
aI6
aI2
aI4
aI3
aI1
aI10
aI2
aI2
aI2
aI4
aI4
aI2
aI2
aI2
aI2
aI4
aI4
aI2
aI4
aI1
aI1
aI4
aI2
aI2
aI4
aI2
aI2
aI10
aI2
aI2
aI2
aI8
aI4
aI3
aI1
aI10
aI2
aI2
aI2
aI6
aI2
aI4
aI3
aI1
aI10
aI2
aI2
aI2
aI4
aI4
aI2
aI2
aI2
aI2
aI4
aI4
aI2
aI4
aI1
aI1
aI4
aI2
aI2
aI4
aI2
aI2
aI6
aI2
aI2
aI2
aI2
aI2
aI6
aI2
aI2
aI2
aI2
aI2
aI6
aI4
aI2
aI2
aI2
aI6
aI4
aI2
aI2
aI2
aI6
aI2
aI2
aI2
aI2
aI2
aI6
aI2
aI2
aI2
aI2
aI2
aI6
aI4
aI2
aI2
aI2
aI6
aI4
aI2
aI2
aI2
aI4
aI3
aI1
aI4
aI3
aI1
aI6
aI2
aI2
aI2
aI4
aI4
aI3
aI1
aI4
aI3
aI1
aI6
aI2
aI2
aI2
aI4
aI8
aI2
aI2
aI2
aI2
aI8
aI2
aI2
aI2
aI2
aI8
aI2
aI2
aI3
aI1
aI4
aI2
aI2
aI4
aI2
aI2
aI10
aI2
aI2
aI2
aI8
aI4
aI3
aI1
aI10
aI2
aI2
aI2
aI6
aI2
aI4
aI3
aI1
aI10
aI2
aI2
aI2
aI4
aI4
aI2
aI2
aI2
aI2
aI4
aI4
aI2
aI4
aI1
aI1
aI4
aI2
aI2
aI4
aI2
aI2
aI10
aI2
aI1
aI1
aI1
aI1
aI8
aI4
aI3
aI1
aI10
aI2
aI2
aI2
aI6
aI2
aI4
aI3
aI1
aI10
aI2
aI2
aI2
aI4
aI4
aI2
aI2
aI2
aI2
aI4
aI4
aI2
aI4
aI1
aI1
aI4
aI2
aI2
aI4
aI2
aI2
aI6
aI2
aI2
aI2
aI2
aI2
aI6
aI2
aI2
aI2
aI2
aI2
aI6
aI4
aI2
aI2
aI2
aI6
aI4
aI2
aI2
aI2
aI6
aI2
aI2
aI2
aI2
aI2
aI6
aI2
aI2
aI2
aI2
aI2
aI6
aI4
aI2
aI2
aI2
aI6
aI4
aI2
aI2
aI2
aI4
aI3
aI1
aI4
aI3
aI1
aI6
aI2
aI2
aI2
aI4
aI4
aI3
aI1
aI4
aI3
aI1
aI6
aI2
aI2
aI2
aI4
aI8
aI2
aI2
aI2
aI2
aI8
aI2
aI2
aI2
aI2
aI8
aI2
aI2
aI3
aI1
aI4
aI2
aI2
aI4
aI2
aI2
aI10
aI2
aI2
aI2
aI8
aI4
aI3
aI1
aI10
aI2
aI2
aI2
aI6
aI2
aI4
aI3
aI1
aI10
aI2
aI2
aI2
aI4
aI4
aI2
aI2
aI2
aI2
aI4
aI4
aI2
aI4
aI1
aI1
aI4
aI2
aI2
aI4
aI2
aI2
aI4
aI2
aI4
aI2
aI4
aI4
aI4
aI4
aI4
aI4
aI4
aI4
aI4
aI4
aI4
aI4
aI4
aI4
aI4
aI4
aI4
aI4
aI4
aI4
aI4
aI4
aI4
aI4
aI4
aI8
aI4
aI2
aI2
aI4
aI2
aI4
aI2
aI4
aI4
aI4
aI4
aI4
aI4
aI4
aI4
aI4
aI4
aI4
aI4
aI4
aI4
aI4
aI4
aI4
aI4
aI4
aI4
aI4
aI4
aI4
aI4
aI4
aI8
aI8
aI6
aI4
aI2
aI4
aI4
aI4
aI4
aI4
aI4
aI4
aI4
aI4
aI4
aI4
aI4
aI4
aI4
aI4
aI4
aI4
aI4
aI4
aI4
aI4
aI4
aI4
aI4
aI4
aI8
aI8
aa(lp39
I6
aI2
aI2
aI2
aI2
aI2
aI2
aI2
aI2
aI2
aI2
aI2
aI2
aI2
aI2
aI2
aI3
aI1
aI2
aI2
aI2
aI2
aI2
aI2
aI2
aI2
aI2
aI2
aI2
aI2
aI2
aI2
aI2
aI2
aI2
aI2
aI2
aI2
aI2
aI2
aI2
aI2
aI2
aI2
aI2
aI2
aI2
aI2
aI2
aI2
aI2
aI2
aI2
aI2
aI2
aI2
aI4
aI2
aI2
aI2
aI2
aI2
aI2
aI2
aI2
aI6
aI1
aI2
aI2
aI1
aI1
aI3
aI2
aI2
aI3
aI3
aI1
aI2
aI2
aI2
aI2
aI2
aI2
aI4
aI6
aI1
aI4
aI2
aI2
aI2
aI2
aI2
aI4
aI2
aI2
aI4
aI2
aI2
aI4
aI2
aI2
aI4
aI2
aI2
aI4
aI2
aI6
aI2
aI2
aI2
aI2
aI2
aI2
aI2
aI2
aI2
aI2
aI4
aI2
aI2
aI4
aI2
aI2
aI4
aI2
aI2
aI2
aI2
aI2
aI2
aI10
aI4
aI4
aI2
aI2
aI2
aI2
aI5
aI2
aI2
aI2
aI1
aI1
aI4
aI2
aI2
aI3
aI3
aI1
aI2
aI2
aI2
aI2
aI4
aI4
aI4
aI3
aI1
aI2
aI2
aI1
aI1
aI1
aI5
aI2
aI2
aI3
aI1
aI1
aI4
aI2
aI2
aI3
aI3
aI1
aI2
aI2
aI2
aI2
aI2
aI2
aI4
aI4
aI2
aI2
aI4
aI4
aI2
aI2
aI2
aI4
aI2
aI2
aI4
aI2
aI2
aI4
aI2
aI2
aI4
aI2
aI2
aI4
aI2
aI12
aI4
aI4
aI2
aI2
aI2
aI4
aI2
aI2
aI4
aI2
aI2
aI4
aI2
aI2
aI2
aI2
aI2
aI2
aI6
aI4
aI4
aI2
aI2
aI2
aI2
aI2
aI2
aI2
aI2
aI2
aI4
aI2
aI2
aI4
aI2
aI2
aI4
aI2
aI2
aI4
aI2
aI2
aI4
aI2
aI6
aI2
aI2
aI2
aI2
aI2
aI2
aI2
aI2
aI2
aI2
aI4
aI2
aI2
aI4
aI2
aI2
aI4
aI2
aI2
aI2
aI2
aI2
aI2
aI6
aI2
aI6
aI2
aI2
aI2
aI2
aI2
aI2
aI2
aI2
aI2
aI4
aI2
aI2
aI4
aI2
aI2
aI4
aI2
aI2
aI4
aI2
aI2
aI4
aI2
aI6
aI2
aI2
aI2
aI4
aI2
aI2
aI2
aI2
aI2
aI4
aI2
aI2
aI4
aI2
aI2
aI4
aI2
aI2
aI4
aI2
aI4
aI15
aI1
aa(lp40
I2
aI2
aI2
aI2
aI6
aI2
aI15
aI1
aI2
aI2
aI2
aI2
aI6
aI2
aI15
aI1
aI2
aI2
aI2
aI2
aI4
aI2
aI14
aI2
aI2
aI2
aI2
aI2
aI2
aI4
aI2
aI17
aI1
aI2
aI2
aI2
aI2
aI6
aI2
aI11
aI1
aI2
aI2
aI2
aI2
aI2
aI2
aI6
aI2
aI11
aI1
aI2
aI2
aI2
aI2
aI2
aI2
aI4
aI2
aI8
aI2
aI2
aI2
aI2
aI2
aI15
aI1
aI6
aI6
aI4
aI2
aI2
aI2
aI2
aI4
aI2
aI13
aI1
aI4
aI2
aI2
aI2
aI2
aI4
aI2
aI13
aI1
aI4
aI2
aI2
aI2
aI2
aI4
aI2
aI17
aI1
aI2
aI2
aI2
aI2
aI4
aI2
aI13
aI1
aI4
aI2
aI2
aI2
aI2
aI4
aI2
aI13
aI1
aI4
aI2
aI2
aI2
aI2
aI4
aI2
aI17
aI1
aI2
aI2
aI2
aI2
aI8
aI2
aI2
aI2
aI2
aI6
aI2
aI15
aI1
aI11
aI1
aI4
aI2
aI2
aI2
aI2
aI4
aI2
aI2
aI8
aI2
aI2
aI2
aI2
aI2
aI2
aI2
aI2
aI4
aI2
aI10
aI2
aI2
aI2
aI2
aI2
aI2
aI2
aI2
aI4
aI2
aI6
aI4
aI4
aI2
aI10
aI2
aI2
aI2
aI2
aI4
aI4
aI4
aI4
aI2
aI2
aI2
aI2
aI4
aI2
aI10
aI2
aI2
aI2
aI2
aI2
aI2
aI2
aI2
aI4
aI12
aI2
aI2
aI2
aI2
aI6
aI6
aI4
aI4
aI4
aI2
aI2
aI2
aI2
aI8
aI2
aI2
aI2
aI2
aI11
aI1
aI4
aI2
aI2
aI2
aI2
aI4
aI2
aI13
aI1
aI4
aI2
aI2
aI2
aI2
aI4
aI2
aI13
aI1
aI4
aI2
aI2
aI2
aI2
aI4
aI2
aI13
aI1
aI4
aI2
aI2
aI2
aI2
aI4
aI2
aI13
aI1
aI4
aI2
aI2
aI2
aI2
aI6
aI2
aI11
aI1
aI4
aI2
aI2
aI2
aI2
aI6
aI2
aI15
aI1
aI2
aI2
aI2
aI2
aI8
aI2
aI2
aI2
aI2
aI6
aI2
aI11
aI1
aI2
aI13
aI1
aI2
aI2
aI4
aI4
aI4
aI2
aI13
aI1
aI2
aI13
aI1
aI2
aI2
aI8
aI6
aI2
aI4
aI4
aI4
aI4
aI15
aI1
aI15
aI1
aa(lp41
I4
aI6
aI2
aI8
aI2
aI2
aI3
aI1
aI2
aI2
aI4
aI2
aI2
aI3
aI1
aI2
aI2
aI2
aI2
aI2
aI2
aI3
aI1
aI4
aI4
aI4
aI2
aI2
aI4
aI2
aI4
aI2
aI2
aI3
aI1
aI2
aI2
aI4
aI2
aI2
aI3
aI1
aI1
aI1
aI1
aI1
aI1
aI1
aI1
aI1
aI2
aI2
aI3
aI1
aI4
aI4
aI4
aI2
aI2
aI2
aI2
aI2
aI2
aI3
aI1
aI6
aI4
aI2
aI4
aI2
aI2
aI2
aI2
aI2
aI2
aI3
aI1
aI11
aI1
aI4
aI2
aI2
aI2
aI2
aI2
aI2
aI2
aI3
aI1
aI4
aI2
aI4
aI2
aI2
aI2
aI2
aI2
aI2
aI2
aI2
aI2
aI2
aI2
aI2
aI2
aI2
aI2
aI4
aI2
aI2
aI3
aI1
aI2
aI2
aI2
aI2
aI2
aI2
aI3
aI1
aI2
aI2
aI2
aI2
aI2
aI2
aI3
aI1
aI4
aI4
aI2
aI2
aI2
aI2
aI2
aI2
aI4
aI2
aI2
aI3
aI1
aI2
aI2
aI4
aI2
aI2
aI3
aI1
aI1
aI1
aI1
aI1
aI1
aI1
aI1
aI1
aI2
aI2
aI3
aI1
aI4
aI4
aI2
aI2
aI2
aI2
aI2
aI2
aI2
aI2
aI3
aI1
aI6
aI4
aI2
aI4
aI2
aI2
aI2
aI2
aI2
aI2
aI3
aI1
aI11
aI1
aI4
aI2
aI2
aI2
aI2
aI2
aI2
aI3
aI1
aI4
aI3
aI1
aI4
aI4
aI2
aI2
aI2
aI2
aI2
aI2
aI2
aI2
aI2
aI2
aI2
aI2
aI4
aI2
aI2
aI3
aI1
aI2
aI2
aI4
aI2
aI2
aI3
aI1
aI2
aI2
aI2
aI2
aI2
aI2
aI3
aI1
aI4
aI4
aI2
aI2
aI2
aI2
aI2
aI2
aI4
aI2
aI2
aI3
aI1
aI2
aI2
aI4
aI2
aI2
aI3
aI1
aI1
aI1
aI1
aI1
aI1
aI1
aI1
aI1
aI2
aI2
aI3
aI1
aI4
aI4
aI2
aI2
aI2
aI2
aI2
aI2
aI2
aI2
aI3
aI1
aI6
aI4
aI2
aI2
aI4
aI2
aI2
aI2
aI2
aI2
aI2
aI3
aI1
aI11
aI1
aI4
aI2
aI2
aI2
aI2
aI2
aI2
aI3
aI1
aI11
aI5
aI2
aI2
aI2
aI2
aI2
aI2
aI2
aI6
aI2
aI8
aI2
aI2
aI3
aI1
aI2
aI2
aI4
aI2
aI2
aI3
aI1
aI2
aI2
aI2
aI2
aI2
aI2
aI2
aI2
aI4
aI4
aI2
aI2
aI2
aI2
aI2
aI2
aI2
aI2
aI3
aI1
aI6
aI4
aI2
aI4
aI2
aI2
aI2
aI2
aI2
aI2
aI3
aI1
aI11
aI1
aI4
aI2
aI2
aI2
aI2
aI2
aI2
aI3
aI1
aI6
aI4
aI2
aI2
aI2
aI2
aI2
aI2
aI2
aI2
aI2
aI15
aI1
aI15
aI1
aa(lp42
I1
aI1
aI3
aI3
aI2
aI3
aI3
aI2
aI8
aI4
aI2
aI1
aI1
aI3
aI3
aI2
aI3
aI3
aI2
aI8
aI8
aI2
aI2
aI2
aI2
aI8
aI2
aI2
aI2
aI2
aI8
aI2
aI2
aI2
aI2
aI4
aI4
aI2
aI2
aI2
aI2
aI8
aI2
aI2
aI2
aI2
aI6
aI2
aI2
aI2
aI2
aI2
aI6
aI2
aI2
aI2
aI2
aI2
aI2
aI2
aI2
aI2
aI15
aI1
aI2
aI2
aI2
aI2
aI8
aI2
aI2
aI2
aI2
aI8
aI2
aI2
aI2
aI2
aI4
aI4
aI2
aI2
aI2
aI2
aI8
aI2
aI2
aI2
aI2
aI4
aI2
aI2
aI2
aI2
aI2
aI2
aI6
aI2
aI2
aI2
aI2
aI2
aI2
aI2
aI2
aI2
aI15
aI9
aI4
aI4
aI4
aI4
aI4
aI4
aI10
aI2
aI2
aI10
aI2
aI2
aI2
aI2
aI4
aI4
aI2
aI6
aI4
aI4
aI4
aI6
aI15
aI1
aI8
aI8
aI2
aI2
aI2
aI2
aI8
aI2
aI2
aI2
aI2
aI8
aI2
aI2
aI2
aI2
aI4
aI4
aI2
aI2
aI2
aI2
aI8
aI2
aI2
aI2
aI2
aI4
aI2
aI2
aI2
aI2
aI2
aI2
aI6
aI2
aI2
aI2
aI2
aI2
aI2
aI2
aI2
aI2
aI6
aI2
aI6
aI2
aI1
aI1
aI1
aI2
aI3
aI1
aI1
aI1
aI2
aI3
aI6
aI2
aI2
aI2
aI2
aI2
aI1
aI1
aI1
aI2
aI3
aI1
aI1
aI1
aI2
aI3
aI3
aI1
aI1
aI1
aI1
aI1
aI1
aI1
aI1
aI1
aI1
aI2
aI1
aI3
aI3
aI3
aI3
aI3
aI3
aI3
aI3
aI3
aI3
aI2
aI1
aI1
aI1
aI1
aI1
aI1
aI1
aI1
aI8
aI8
aI8
aI15
aI1
aI2
aI2
aI2
aI2
aI8
aI2
aI2
aI2
aI2
aI8
aI2
aI2
aI2
aI2
aI4
aI4
aI2
aI2
aI2
aI2
aI8
aI2
aI2
aI2
aI2
aI4
aI2
aI2
aI2
aI2
aI2
aI2
aI6
aI2
aI2
aI2
aI2
aI2
aI2
aI2
aI2
aI2
aI6
aI2
aI6
aI2
aI2
aI2
aI2
aI2
aI4
aI2
aI2
aI2
aI2
aI2
aI2
aI6
aI2
aI2
aI2
aI2
aI2
aI2
aI2
aI2
aI2
aI14
aI2
aI15
aI13
aa(lp43
I2
aI2
aI2
aI6
aI2
aI2
aI2
aI2
aI2
aI8
aI2
aI2
aI2
aI2
aI2
aI4
aI4
aI8
aI4
aI4
aI2
aI2
aI2
aI2
aI2
aI2
aI2
aI2
aI2
aI2
aI2
aI2
aI2
aI2
aI2
aI2
aI2
aI2
aI2
aI2
aI2
aI2
aI2
aI2
aI8
aI8
aI2
aI2
aI2
aI2
aI8
aI2
aI2
aI2
aI2
aI4
aI2
aI1
aI2
aI2
aI2
aI2
aI2
aI2
aI2
aI4
aI8
aI6
aI2
aI2
aI2
aI2
aI8
aI2
aI2
aI2
aI2
aI4
aI2
aI1
aI2
aI2
aI2
aI1
aI1
aI2
aI3
aI1
aI4
aI6
aI4
aI4
aI2
aI2
aI2
aI2
aI8
aI2
aI2
aI2
aI2
aI6
aI2
aI2
aI6
aI2
aI3
aI1
aI3
aI6
aI8
aI2
aI2
aI2
aI2
aI8
aI2
aI2
aI2
aI2
aI6
aI2
aI2
aI6
aI2
aI2
aI2
aI4
aI8
aI2
aI2
aI1
aI4
aI4
aI4
aI2
aI1
aI2
aI2
aI2
aI1
aI1
aI4
aI2
aI1
aI2
aI2
aI2
aI2
aI2
aI2
aI2
aI2
aI2
aI6
aI6
aI1
aI1
aI2
aI2
aI2
aI2
aI2
aI2
aI2
aI4
aI4
aI2
aI2
aI2
aI2
aI2
aI4
aI2
aI2
aI4
aI2
aI4
aI4
aI6
aI2
aI1
aI4
aI4
aI4
aI2
aI1
aI2
aI2
aI2
aI1
aI1
aI4
aI2
aI1
aI2
aI2
aI2
aI2
aI2
aI2
aI2
aI2
aI2
aI6
aI6
aI1
aI1
aI2
aI2
aI2
aI2
aI2
aI2
aI2
aI4
aI4
aI2
aI2
aI2
aI2
aI2
aI4
aI2
aI1
aI1
aI4
aI1
aI1
aI3
aI5
aI8
aI6
aI10
aI6
aI10
aI2
aI2
aI4
aI4
aI4
aI15
aI1
aa(lp44
I4
aI4
aI4
aI2
aI2
aI6
aI2
aI4
aI4
aI4
aI2
aI2
aI4
aI4
aI1
aI1
aI1
aI1
aI1
aI1
aI1
aI2
aI4
aI4
aI4
aI2
aI2
aI6
aI2
aI4
aI4
aI4
aI2
aI2
aI4
aI4
aI1
aI1
aI1
aI1
aI1
aI1
aI1
aI2
aI6
aI1
aI1
aI4
aI4
aI2
aI4
aI2
aI8
aI6
aI2
aI4
aI2
aI1
aI15
aI1
aI6
aI2
aI4
aI2
aI2
aI6
aI2
aI8
aI2
aI2
aI2
aI2
aI2
aI2
aI2
aI2
aI16
aI6
aI2
aI4
aI4
aI4
aI2
aI1
aI8
aI6
aI2
aI4
aI4
aI15
aI1
aI6
aI2
aI2
aI1
aI4
aI2
aI2
aI2
aI2
aI8
aI2
aI2
aI2
aI2
aI2
aI2
aI2
aI2
aI6
aI2
aI4
aI4
aI4
aI2
aI1
aI8
aI6
aI2
aI4
aI4
aI15
aI1
aI6
aI2
aI2
aI1
aI4
aI2
aI2
aI2
aI2
aI8
aI2
aI2
aI2
aI2
aI2
aI2
aI2
aI2
aI16
aI6
aI2
aI4
aI2
aI2
aI6
aI2
aI4
aI4
aI6
aI2
aI4
aI2
aI2
aI11
aI1
aI4
aI11
aI1
aI2
aI2
aI6
aI2
aI6
aI2
aI2
aI2
aI2
aI2
aI4
aI4
aI31
aI1
aI6
aI1
aI1
aI4
aI4
aI2
aI4
aI2
aI8
aI6
aI2
aI4
aI2
aI1
aI15
aI1
aI6
aI2
aI4
aI2
aI2
aI6
aI2
aI8
aI2
aI2
aI2
aI2
aI2
aI2
aI2
aI2
aI16
aI6
aI2
aI4
aI4
aI4
aI2
aI1
aI8
aI6
aI2
aI4
aI4
aI15
aI1
aI6
aI2
aI2
aI1
aI4
aI2
aI2
aI2
aI2
aI8
aI2
aI2
aI2
aI2
aI2
aI2
aI2
aI2
aI16
aI6
aI2
aI4
aI4
aI4
aI2
aI1
aI8
aI6
aI2
aI4
aI4
aI15
aI1
aI6
aI2
aI2
aI1
aI4
aI2
aI2
aI2
aI2
aI8
aI2
aI2
aI2
aI2
aI2
aI2
aI2
aI2
aI16
aI6
aI2
aI2
aI1
aI4
aI2
aI2
aI2
aI2
aI8
aI2
aI2
aI2
aI2
aI2
aI2
aI2
aI2
aI4
aI2
aI2
aI8
aI2
aI2
aI2
aI2
aI8
aI2
aI2
aI2
aI2
aI2
aI2
aI2
aI2
aI4
aI2
aI2
aI8
aI2
aI2
aI2
aI2
aI2
aI2
aI2
aI2
aI31
aI1
aI4
aI4
aI4
aI2
aI2
aI6
aI2
aI4
aI4
aI4
aI2
aI2
aI4
aI4
aI15
aI1
aI4
aI4
aI4
aI2
aI2
aI6
aI2
aI4
aI4
aI4
aI2
aI2
aI4
aI4
aI15
aa(lp45
I5
aI1
aI1
aI1
aI5
aI1
aI1
aI1
aI5
aI1
aI1
aI1
aI4
aI1
aI1
aI1
aI1
aI5
aI1
aI1
aI1
aI5
aI1
aI1
aI1
aI4
aI2
aI2
aI4
aI2
aI2
aI5
aI1
aI1
aI1
aI4
aI2
aI2
aI2
aI2
aI2
aI2
aI6
aI2
aI6
aI2
aI6
aI2
aI15
aI5
aI2
aI2
aI6
aI4
aI6
aI4
aI1
aI1
aI1
aI1
aI4
aI2
aI2
aI2
aI2
aI2
aI4
aI6
aI12
aI2
aI2
aI4
aI2
aI2
aI4
aI4
aI8
aI4
aI2
aI2
aI6
aI4
aI2
aI2
aI2
aI2
aI2
aI4
aI4
aI2
aI2
aI6
aI4
aI6
aI4
aI1
aI1
aI1
aI1
aI4
aI2
aI2
aI2
aI2
aI2
aI4
aI6
aI12
aI2
aI2
aI4
aI2
aI2
aI4
aI4
aI8
aI4
aI2
aI2
aI6
aI2
aI2
aI2
aI2
aI2
aI4
aI2
aI2
aI2
aI4
aI2
aI4
aI4
aI4
aI2
aI2
aI4
aI3
aI6
aI2
aI6
aI2
aI6
aI4
aI2
aI2
aI2
aI4
aI2
aI2
aI4
aI4
aI4
aI2
aI2
aI4
aI3
aI6
aI2
aI6
aI2
aI6
aI2
aI2
aI2
aI2
aI2
aI8
aI2
aI1
aI1
aI1
aI1
aI1
aI1
aI5
aI1
aI1
aI1
aI5
aI1
aI1
aI1
aI4
aI1
aI1
aI1
aI1
aI4
aI2
aI1
aI1
aI5
aI1
aI1
aI1
aI4
aI4
aI4
aI4
aI4
aI4
aI4
aI2
aI2
aI6
aI4
aI6
aI4
aI1
aI1
aI1
aI1
aI4
aI2
aI2
aI2
aI2
aI2
aI4
aI6
aI12
aI2
aI2
aI4
aI2
aI2
aI4
aI4
aI8
aI4
aI2
aI2
aI6
aI4
aI2
aI2
aI2
aI2
aI2
aI4
aI4
aI2
aI2
aI6
aI4
aI6
aI4
aI1
aI1
aI1
aI1
aI4
aI2
aI2
aI2
aI2
aI2
aI4
aI6
aI12
aI2
aI2
aI4
aI2
aI2
aI4
aI4
aI8
aI4
aI2
aI2
aI6
aI2
aI2
aI2
aI2
aI2
aI4
aI2
aI2
aI2
aI4
aI2
aI4
aI4
aI4
aI2
aI2
aI4
aI3
aI6
aI2
aI6
aI2
aI6
aI4
aI2
aI2
aI2
aI4
aI2
aI2
aI4
aI4
aI4
aI2
aI2
aI4
aI3
aI6
aI2
aI6
aI2
aI6
aI2
aI2
aI2
aI2
aI2
aI8
aI2
aI1
aI1
aI1
aI1
aI1
aI1
aI5
aI1
aI1
aI1
aI5
aI1
aI1
aI1
aI4
aI1
aI1
aI1
aI1
aI4
aI2
aI1
aI1
aI5
aI1
aI1
aI1
aI4
aI4
aI4
aI4
aI4
aI4
aI6
aI1
aI1
aI2
aI2
aI2
aI2
aI4
aI2
aI2
aI4
aI4
aI6
aI4
aI2
aI2
aI2
aI2
aI6
aI4
aI2
aI2
aI2
aI2
aI3
aI1
aI1
aI1
aI2
aI2
aI2
aI2
aI4
aI2
aI2
aI6
aI1
aI6
aI2
aI6
aI2
aI6
aI2
aI2
aI2
aI2
aI2
aI2
aI6
aI2
aI1
aI1
aI1
aI1
aI1
aI1
aI4
aI2
aI2
aI6
aI2
aI6
aI2
aI1
aI1
aI4
aI2
aI6
aI2
aI2
aI2
aI4
aI2
aI2
aI4
aI12
aI4
aI6
aI4
aI6
aI4
aI1
aI1
aI1
aI1
aI4
aI4
aI6
aI4
aI6
aI12
aI4
aI4
aI2
aI2
aI6
aI2
aI8
aI4
aI2
aI2
aI8
aI2
aI2
aI1
aI1
aI1
aI1
aI1
aI1
aI1
aI1
aI2
aI2
aI2
aI1
aI11
aa(lp46
I2
aI1
aI2
aI1
aI1
aI1
aI2
aI1
aI2
aI1
aI1
aI1
aI2
aI1
aI2
aI1
aI1
aI1
aI2
aI1
aI2
aI1
aI1
aI1
aI2
aI1
aI2
aI1
aI1
aI1
aI2
aI1
aI2
aI1
aI1
aI1
aI2
aI2
aI2
aI2
aI4
aI4
aI1
aI1
aI1
aI1
aI2
aI1
aI1
aI3
aI5
aI1
aI1
aI1
aI1
aI1
aI1
aI1
aI8
aI2
aI1
aI3
aI2
aI2
aI1
aI3
aI2
aI2
aI1
aI3
aI2
aI8
aI1
aI1
aI1
aI1
aI2
aI1
aI1
aI3
aI5
aI1
aI1
aI1
aI1
aI1
aI1
aI1
aI8
aI2
aI1
aI3
aI2
aI2
aI1
aI3
aI2
aI2
aI2
aI1
aI3
aI2
aI4
aI1
aI1
aI1
aI1
aI1
aI4
aI1
aI1
aI1
aI1
aI5
aI1
aI1
aI1
aI1
aI2
aI1
aI1
aI1
aI1
aI1
aI4
aI1
aI1
aI1
aI1
aI1
aI3
aI1
aI1
aI1
aI1
aI4
aI1
aI1
aI1
aI1
aI1
aI2
aI2
aI1
aI1
aI1
aI4
aI1
aI1
aI1
aI1
aI4
aI1
aI1
aI1
aI1
aI5
aI1
aI1
aI1
aI1
aI2
aI1
aI1
aI1
aI1
aI1
aI4
aI1
aI1
aI1
aI1
aI1
aI3
aI1
aI1
aI1
aI1
aI4
aI1
aI2
aI1
aI3
aI2
aI4
aI4
aI2
aI1
aI2
aI1
aI1
aI1
aI2
aI1
aI2
aI1
aI1
aI1
aI2
aI1
aI2
aI1
aI1
aI1
aI2
aI1
aI2
aI1
aI1
aI1
aI2
aI1
aI2
aI1
aI1
aI1
aI2
aI1
aI2
aI1
aI1
aI1
aI2
aI2
aI2
aI2
aI4
aI4
aa(lp47
I1
aI7
aI4
aI4
aI15
aI1
aI8
aI4
aI4
aI8
aI7
aI1
aI15
aI5
aI2
aI2
aI4
aI4
aI4
aI3
aI1
aI2
aI2
aI2
aI2
aI1
aI1
aI2
aI2
aI2
aI1
aI1
aI2
aI2
aI2
aI2
aI2
aI4
aI8
aI4
aI2
aI2
aI4
aI4
aI4
aI4
aI2
aI2
aI2
aI2
aI1
aI1
aI2
aI2
aI2
aI2
aI2
aI1
aI1
aI2
aI2
aI2
aI2
aI2
aI4
aI2
aI14
aI2
aI6
aI2
aI2
aI4
aI4
aI4
aI3
aI1
aI2
aI2
aI2
aI2
aI1
aI1
aI2
aI2
aI2
aI1
aI1
aI2
aI2
aI2
aI2
aI2
aI4
aI8
aI4
aI2
aI2
aI4
aI4
aI4
aI4
aI2
aI2
aI2
aI2
aI1
aI1
aI2
aI2
aI2
aI4
aI4
aI2
aI2
aI2
aI8
aI2
aI4
aI2
aI2
aI6
aI12
aI4
aI2
aI28
aI2
aI6
aI2
aI2
aI4
aI4
aI4
aI3
aI1
aI2
aI2
aI2
aI2
aI1
aI1
aI2
aI2
aI2
aI1
aI1
aI2
aI2
aI2
aI2
aI2
aI4
aI8
aI4
aI2
aI2
aI4
aI4
aI4
aI4
aI2
aI2
aI2
aI2
aI1
aI1
aI2
aI2
aI2
aI2
aI2
aI1
aI1
aI2
aI2
aI2
aI2
aI2
aI4
aI2
aI14
aI2
aI6
aI2
aI2
aI4
aI4
aI4
aI3
aI1
aI2
aI2
aI2
aI2
aI1
aI1
aI2
aI2
aI2
aI1
aI1
aI2
aI2
aI2
aI2
aI2
aI4
aI8
aI4
aI2
aI2
aI4
aI4
aI4
aI4
aI2
aI2
aI2
aI2
aI1
aI1
aI2
aI2
aI2
aI4
aI4
aI2
aI2
aI2
aI8
aI2
aI4
aI2
aI2
aI4
aI1
aI12
aI4
aI2
aI28
aI2
aI2
aI2
aI2
aI2
aI2
aI2
aI2
aI2
aI2
aI2
aI2
aI2
aI2
aI2
aI2
aI1
aI1
aI2
aI2
aI2
aI2
aI1
aI1
aI1
aI1
aI1
aI1
aI1
aI1
aI2
aI1
aI1
aI1
aI1
aI1
aI1
aI1
aI1
aI1
aI1
aI1
aI1
aI1
aI1
aI1
aI1
aI1
aI1
aI1
aI1
aI1
aI1
aI1
aI1
aI2
aI2
aI2
aI2
aI1
aI1
aI1
aI1
aI1
aI1
aI1
aI1
aI1
aI1
aI1
aI1
aI1
aI1
aI1
aI1
aI1
aI1
aI1
aI1
aI1
aI1
aI1
aI1
aI1
aI1
aI1
aI1
aI1
aI1
aI2
aI1
aI1
aI1
aI1
aI1
aI1
aI1
aI1
aI1
aI1
aI1
aI1
aI2
aI2
aI2
aI2
aI2
aI2
aI2
aI2
aI2
aI2
aI2
aI2
aI2
aI2
aI2
aI2
aI3
aI1
aI15
aa(lp48
I2
aI4
aI2
aI2
aI4
aI2
aI2
aI6
aI2
aI2
aI2
aI2
aI2
aI4
aI2
aI2
aI4
aI2
aI2
aI6
aI2
aI2
aI2
aI2
aI2
aI4
aI2
aI6
aI2
aI2
aI2
aI2
aI6
aI1
aI1
aI1
aI1
aI2
aI2
aI2
aI2
aI6
aI2
aI2
aI2
aI2
aI8
aI2
aI4
aI2
aI2
aI2
aI2
aI2
aI6
aI2
aI2
aI4
aI4
aI2
aI2
aI2
aI2
aI4
aI4
aI2
aI2
aI2
aI2
aI4
aI4
aI2
aI2
aI2
aI2
aI4
aI4
aI2
aI2
aI2
aI2
aI8
aI2
aI4
aI2
aI4
aI4
aI2
aI4
aI2
aI8
aI2
aI4
aI2
aI6
aI2
aI4
aI2
aI2
aI2
aI2
aI2
aI10
aI2
aI2
aI2
aI2
aI2
aI2
aI2
aI2
aI2
aI4
aI2
aI2
aI2
aI4
aI2
aI2
aI2
aI2
aI2
aI4
aI2
aI2
aI4
aI1
aI1
aI2
aI2
aI4
aI2
aI2
aI2
aI2
aI2
aI4
aI2
aI2
aI4
aI1
aI1
aI2
aI2
aI2
aI2
aI4
aI1
aI1
aI1
aI1
aI2
aI2
aI2
aI2
aI4
aI1
aI1
aI1
aI1
aI2
aI2
aI2
aI2
aI6
aI2
aI15
aI9
aI2
aI2
aI2
aI2
aI2
aI2
aI2
aI2
aI2
aI4
aI2
aI2
aI2
aI4
aI2
aI2
aI2
aI2
aI2
aI4
aI2
aI2
aI4
aI1
aI1
aI2
aI2
aI4
aI2
aI2
aI2
aI2
aI2
aI4
aI2
aI2
aI4
aI1
aI1
aI2
aI2
aI2
aI2
aI4
aI1
aI1
aI1
aI1
aI2
aI2
aI2
aI2
aI4
aI1
aI1
aI1
aI1
aI2
aI2
aI2
aI2
aI8
aI2
aI2
aI2
aI2
aI6
aI2
aI4
aI2
aI2
aI2
aI2
aI2
aI2
aI2
aI2
aI2
aI2
aI4
aI4
aI2
aI2
aI2
aI2
aI4
aI4
aI2
aI2
aI2
aI2
aI4
aI4
aI2
aI2
aI2
aI2
aI8
aI2
aI4
aI2
aI4
aI4
aI2
aI4
aI2
aI8
aI2
aI4
aI2
aI6
aI2
aI4
aI2
aI2
aI2
aI2
aI2
aI10
aI2
aI2
aI2
aI2
aI2
aI2
aI2
aI2
aI2
aI4
aI2
aI2
aI2
aI4
aI2
aI2
aI2
aI2
aI2
aI4
aI2
aI2
aI4
aI1
aI1
aI2
aI2
aI4
aI2
aI2
aI2
aI2
aI2
aI4
aI2
aI2
aI4
aI1
aI1
aI2
aI2
aI2
aI2
aI4
aI1
aI1
aI1
aI1
aI2
aI2
aI2
aI2
aI4
aI1
aI1
aI1
aI1
aI2
aI2
aI2
aI2
aI6
aI2
aI15
aI9
aI2
aI2
aI2
aI2
aI2
aI2
aI2
aI2
aI2
aI4
aI2
aI2
aI2
aI4
aI2
aI2
aI2
aI2
aI2
aI4
aI2
aI2
aI4
aI1
aI1
aI2
aI2
aI4
aI2
aI2
aI2
aI2
aI2
aI4
aI2
aI2
aI4
aI1
aI1
aI2
aI2
aI2
aI2
aI4
aI1
aI1
aI1
aI1
aI2
aI2
aI2
aI2
aI4
aI1
aI1
aI1
aI1
aI2
aI2
aI2
aI2
aI8
aI2
aI2
aI2
aI2
aI6
aI2
aI4
aI2
aI2
aI2
aI2
aI2
aI2
aI2
aI2
aI2
aI2
aI4
aI1
aI1
aI1
aI1
aI2
aI2
aI2
aI2
aI8
aI2
aI2
aI2
aI2
aI6
aI2
aI4
aI2
aI15
aa(lp49
I12
aI2
aI2
aI2
aI2
aI2
aI2
aI2
aI2
aI2
aI2
aI2
aI2
aI2
aI2
aI2
aI2
aI2
aI2
aI2
aI2
aI2
aI2
aI2
aI2
aI2
aI2
aI4
aI2
aI2
aI2
aI2
aI2
aI2
aI2
aI2
aI2
aI1
aI11
aI2
aI1
aI1
aI1
aI4
aI2
aI2
aI5
aI1
aI1
aI1
aI4
aI2
aI2
aI6
aI2
aI2
aI2
aI2
aI2
aI2
aI2
aI3
aI1
aI13
aI1
aI1
aI1
aI4
aI2
aI2
aI7
aI1
aI2
aI1
aI2
aI2
aI3
aI2
aI2
aI1
aI2
aI1
aI2
aI2
aI2
aI2
aI2
aI1
aI11
aI2
aI1
aI1
aI1
aI4
aI2
aI1
aI6
aI1
aI1
aI1
aI4
aI2
aI1
aI6
aI2
aI2
aI2
aI2
aI2
aI2
aI2
aI3
aI1
aI7
aI2
aI2
aI2
aI2
aI2
aI2
aI2
aI2
aI5
aI1
aI1
aI1
aI2
aI2
aI2
aI2
aI2
aI2
aI2
aI1
aI2
aI2
aI2
aI2
aI4
aI3
aI1
aI6
aI2
aI8
aI2
aI1
aI3
aI2
aI2
aI2
aI2
aI2
aI3
aI4
aI1
aI2
aI1
aI2
aI2
aI2
aI1
aI3
aI2
aI2
aI2
aI2
aI2
aI2
aI1
aI13
aI2
aI1
aI3
aI2
aI2
aI2
aI2
aI2
aI2
aI1
aI2
aI3
aI7
aI2
aI1
aI2
aI2
aI2
aI1
aI3
aI2
aI4
aI4
aI3
aI2
aI3
aI8
aI4
aI1
aI1
aI1
aI2
aI1
aI2
aI2
aI1
aI2
aI1
aI1
aI3
aI1
aI2
aI1
aI2
aI2
aI3
aI2
aI2
aI2
aI3
aI4
aI1
aI2
aI1
aI2
aI2
aI1
aI3
aI5
aI3
aI2
aI1
aI1
aI1
aI2
aI1
aI2
aI2
aI1
aI5
aI1
aI1
aI1
aI2
aI2
aI2
aI2
aI2
aI2
aI2
aI2
aI2
aI1
aI2
aI3
aI2
aI2
aI2
aI2
aI4
aI1
aI3
aI3
aI2
aI1
aI1
aI2
aI1
aI2
aI2
aI1
aI2
aI1
aI1
aI3
aI1
aI2
aI1
aI2
aI2
aI3
aI2
aI2
aI2
aI3
aI4
aI1
aI2
aI1
aI2
aI2
aI1
aI3
aI5
aI3
aI2
aI1
aI1
aI1
aI2
aI1
aI2
aI2
aI1
aI5
aI1
aI1
aI1
aI2
aI2
aI2
aI2
aI2
aI2
aI2
aI2
aI2
aI1
aI2
aI3
aI2
aI2
aI2
aI2
aI6
aI2
aI2
aI2
aI2
aI2
aI11
aI3
aI1
aI1
aI6
aI2
aI6
aI1
aI1
aI6
aI2
aI6
aI1
aI1
aI6
aI2
aI8
aI8
aI2
aI2
aI2
aI2
aI6
aI2
aI6
aI1
aI1
aI6
aI2
aI4
aI2
aI2
aI2
aI2
aI2
aI2
aI4
aI4
aI10
aI2
aI2
aI2
aI2
aI1
aI3
aI1
aI2
aI2
aI2
aI2
aI3
aI4
aI1
aI2
aI2
aI2
aI2
aI2
aI1
aI3
aI2
aI2
aI2
aI2
aI2
aI2
aI1
aI13
aI2
aI1
aI3
aI2
aI2
aI2
aI2
aI2
aI2
aI1
aI2
aI1
aI1
aI1
aI7
aI2
aI1
aI2
aI2
aI1
aI1
aI1
aI2
aI3
aI4
aI4
aI3
aI2
aI3
aI3
aI3
aI2
aI5
aI1
aI1
aI1
aI2
aI1
aI2
aI2
aI1
aI2
aI1
aI1
aI3
aI1
aI2
aI1
aI2
aI2
aI3
aI2
aI2
aI2
aI3
aI4
aI1
aI2
aI1
aI2
aI2
aI1
aI3
aI5
aI3
aI2
aI1
aI1
aI1
aI2
aI1
aI2
aI2
aI1
aI5
aI1
aI1
aI1
aI2
aI2
aI2
aI2
aI2
aI2
aI2
aI2
aI2
aI1
aI2
aI3
aI2
aI3
aI2
aI3
aI5
aI3
aI2
aI1
aI1
aI2
aI1
aI2
aI2
aI1
aI2
aI1
aI1
aI3
aI1
aI2
aI1
aI2
aI2
aI3
aI2
aI2
aI2
aI3
aI4
aI1
aI2
aI1
aI2
aI2
aI1
aI3
aI5
aI3
aI2
aI1
aI1
aI1
aI2
aI1
aI2
aI2
aI1
aI5
aI1
aI1
aI1
aI2
aI2
aI2
aI2
aI2
aI2
aI2
aI2
aI2
aI1
aI2
aI3
aI2
aI2
aI2
aI2
aI7
aI1
aI2
aI2
aI2
aI1
aI14
aI1
aI1
aI2
aI2
aI2
aI2
aI2
aI2
aI2
aI2
aI2
aI2
aI2
aI2
aI2
aI2
aI2
aI2
aI2
aI2
aI2
aI2
aI2
aI2
aI2
aI2
aI2
aI2
aI2
aI2
aI2
aI2
aI2
aI2
aI2
aI2
aI2
aI3
aI22
aI9
aa(lp50
I14
aI2
aI3
aI3
aI2
aI3
aI3
aI2
aI10
aI2
aI2
aI2
aI3
aI5
aI3
aI3
aI2
aI6
aI4
aI2
aI2
aI2
aI4
aI2
aI4
aI6
aI2
aI2
aI2
aI2
aI6
aI2
aI6
aI2
aI8
aI15
aI1
aI2
aI4
aI2
aI2
aI2
aI1
aI2
aI1
aI8
aI3
aI1
aI2
aI2
aI2
aI4
aI2
aI2
aI2
aI3
aI3
aI6
aI8
aI2
aI2
aI2
aI2
aI2
aI2
aI2
aI2
aI4
aI2
aI1
aI1
aI4
aI6
aI2
aI2
aI2
aI3
aI3
aI4
aI2
aI12
aI2
aI4
aI2
aI2
aI2
aI1
aI2
aI1
aI8
aI3
aI1
aI2
aI2
aI2
aI4
aI2
aI2
aI2
aI3
aI3
aI6
aI7
aI1
aI2
aI2
aI2
aI2
aI2
aI2
aI2
aI2
aI2
aI2
aI2
aI4
aI4
aI4
aI2
aI2
aI2
aI2
aI2
aI2
aI2
aI8
aI2
aI2
aI2
aI2
aI8
aI4
aI2
aI2
aI2
aI1
aI3
aI2
aI2
aI1
aI3
aI2
aI8
aI2
aI2
aI2
aI2
aI2
aI1
aI3
aI2
aI2
aI1
aI3
aI4
aI4
aI4
aI2
aI2
aI2
aI4
aI2
aI4
aI6
aI2
aI2
aI2
aI2
aI2
aI1
aI2
aI1
aI2
aI15
aI3
aI2
aI2
aI2
aI2
aI2
aI2
aI1
aI2
aI1
aI2
aI1
aI2
aI2
aI1
aI2
aI1
aI2
aI8
aI2
aI2
aI2
aI2
aI2
aI1
aI3
aI2
aI2
aI1
aI3
aI2
aI8
aI2
aI2
aI2
aI2
aI4
aI2
aI4
aI2
aI2
aI2
aI3
aI3
aI2
aI4
aI4
aI15
aa(lp51
I4
aI2
aI2
aI8
aI4
aI4
aI8
aI4
aI2
aI2
aI8
aI4
aI4
aI8
aI4
aI2
aI2
aI8
aI4
aI4
aI8
aI4
aI2
aI2
aI8
aI4
aI4
aI12
aI2
aI2
aI8
aI4
aI4
aI8
aI4
aI2
aI2
aI8
aI4
aI4
aI12
aI2
aI2
aI8
aI4
aI4
aI8
aI6
aI2
aI8
aI8
aI4
aI4
aI4
aI2
aI2
aI8
aI4
aI4
aI8
aI4
aI2
aI2
aI8
aI4
aI2
aI2
aI12
aI2
aI2
aI8
aI4
aI4
aI8
aI4
aI2
aI2
aI8
aI4
aI2
aI2
aI12
aI2
aI2
aI6
aI6
aI4
aI6
aI6
aI4
aI6
aI6
aI4
aI12
aI2
aI2
aI6
aI6
aI2
aI2
aI8
aI4
aI4
aI8
aI8
aI4
aI4
aI6
aI1
aI1
aI8
aI4
aI4
aI8
aI8
aI8
aI4
aI4
aI12
aI2
aI2
aI8
aI4
aI4
aI6
aI8
aI2
aI6
aI2
aI4
aI2
aI10
aI2
aI2
aI2
aI2
aI8
aI4
aI4
aI8
aI8
aI8
aI4
aI4
aI8
aI2
aI2
aI2
aI2
aI8
aI4
aI4
aI8
aI4
aI4
aI8
aI8
aI4
aI4
aI4
aI4
aI8
aI4
aI4
aI8
aI4
aI4
aI8
aI6
aI2
aI8
aI4
aI4
aI8
aI4
aI4
aI24
aI15
aI1
aa(lp52
I1
aI2
aI2
aI5
aI1
aI2
aI1
aI1
aI2
aI1
aI1
aI1
aI2
aI3
aI2
aI1
aI1
aI1
aI1
aI1
aI13
aI3
aI2
aI2
aI3
aI1
aI2
aI1
aI2
aI1
aI1
aI1
aI1
aI1
aI1
aI3
aI1
aI1
aI2
aI1
aI2
aI1
aI12
aI5
aI2
aI2
aI2
aI1
aI1
aI1
aI3
aI1
aI1
aI1
aI1
aI1
aI3
aI1
aI2
aI1
aI1
aI2
aI1
aI12
aI1
aI3
aI1
aI1
aI1
aI3
aI1
aI3
aI1
aI1
aI1
aI1
aI1
aI1
aI3
aI2
aI1
aI1
aI2
aI1
aI13
aI1
aI3
aI1
aI2
aI1
aI3
aI1
aI3
aI1
aI1
aI2
aI1
aI1
aI2
aI3
aI1
aI1
aI1
aI1
aI1
aI13
aI2
aI2
aI1
aI5
aI2
aI3
aI1
aI4
aI1
aI1
aI2
aI3
aI2
aI1
aI1
aI2
aI1
aI1
aI14
aI2
aI1
aI7
aI2
aI3
aI1
aI3
aI3
aI1
aI3
aI1
aI1
aI2
aI3
aI1
aI13
aI2
aI3
aI2
aI2
aI2
aI1
aI2
aI1
aI3
aI3
aI1
aI2
aI1
aI9
aI2
aI2
aI14
aI5
aI3
aI5
aI1
aI3
aI1
aI2
aI1
aI2
aI9
aI2
aI1
aI3
aI1
aI14
aI4
aI4
aI5
aI1
aI3
aI1
aI2
aI2
aI1
aI9
aI2
aI1
aI1
aI1
aI15
aI2
aI2
aI5
aI1
aI2
aI1
aI1
aI2
aI1
aI2
aI2
aI2
aI1
aI4
aI2
aI1
aI1
aI1
aI1
aI1
aI13
aI3
aI2
aI2
aI4
aI1
aI2
aI1
aI2
aI1
aI2
aI1
aI1
aI1
aI2
aI4
aI1
aI1
aI2
aI1
aI2
aI1
aI1
aI2
aI1
aI2
aI1
aI2
aI2
aI1
aI3
aI1
aI2
aI1
aI3
aI1
aI1
aI1
aI1
aI1
aI2
aI1
aI2
aI2
aI1
aI1
aI1
aI3
aI1
aI1
aI2
aI1
aI1
aI1
aI2
aI1
aI2
aI1
aI2
aI2
aI1
aI1
aI2
aI1
aI1
aI1
aI1
aI2
aI1
aI1
aI2
aI1
aI1
aI1
aI1
aI1
aI3
aI2
aI1
aI2
aI1
aI1
aI1
aI1
aI2
aI1
aI2
aI1
aI2
aI1
aI1
aI1
aI1
aI1
aI1
aI1
aI2
aI1
aI1
aI1
aI1
aI2
aI1
aI1
aI1
aI2
aI1
aI2
aI5
aI1
aI1
aI2
aI1
aI1
aI1
aI2
aI1
aI2
aI1
aI2
aI2
aI4
aa(lp53
I4
aI2
aI2
aI4
aI4
aI4
aI2
aI2
aI8
aI4
aI2
aI2
aI4
aI4
aI4
aI2
aI2
aI8
aI2
aI2
aI2
aI2
aI4
aI4
aI2
aI2
aI2
aI2
aI4
aI4
aI2
aI2
aI2
aI2
aI4
aI4
aI2
aI2
aI2
aI2
aI4
aI4
aI2
aI2
aI2
aI2
aI4
aI4
aI2
aI2
aI2
aI2
aI4
aI4
aI2
aI2
aI2
aI2
aI4
aI4
aI2
aI2
aI2
aI2
aI4
aI4
aI2
aI2
aI4
aI2
aI2
aI2
aI2
aI8
aI2
aI2
aI2
aI2
aI4
aI2
aI1
aI1
aI2
aI2
aI1
aI2
aI3
aI2
aI6
aI2
aI2
aI4
aI2
aI1
aI1
aI2
aI2
aI2
aI2
aI2
aI2
aI2
aI2
aI2
aI2
aI2
aI2
aI4
aI1
aI1
aI1
aI2
aI2
aI2
aI2
aI1
aI2
aI2
aI1
aI2
aI2
aI2
aI2
aI4
aI2
aI2
aI2
aI2
aI2
aI2
aI2
aI2
aI2
aI2
aI2
aI2
aI1
aI1
aI1
aI4
aI2
aI1
aI1
aI2
aI2
aI2
aI2
aI2
aI2
aI3
aI1
aI2
aI2
aI2
aI2
aI4
aI2
aI2
aI2
aI2
aI2
aI2
aI2
aI2
aI2
aI2
aI2
aI2
aI2
aI2
aI2
aI3
aI1
aI2
aI2
aI2
aI2
aI2
aI2
aI2
aI2
aI2
aI4
aI4
aI4
aI2
aI1
aI1
aI2
aI2
aI2
aI2
aI2
aI2
aI2
aI2
aI2
aI2
aI2
aI2
aI4
aI2
aI1
aI1
aI2
aI2
aI2
aI2
aI2
aI2
aI3
aI1
aI2
aI1
aI2
aI2
aI4
aI2
aI1
aI1
aI2
aI2
aI2
aI2
aI2
aI3
aI3
aI2
aI2
aI2
aI1
aI4
aI2
aI1
aI1
aI2
aI2
aI2
aI2
aI2
aI2
aI3
aI1
aI2
aI2
aI2
aI2
aI4
aI2
aI2
aI4
aI2
aI2
aI4
aI4
aI4
aI2
aI2
aI8
aI4
aI2
aI2
aI4
aI4
aI4
aI2
aI2
aI23
aI1
aa(lp54
I6
aI1
aI1
aI4
aI4
aI6
aI2
aI3
aI1
aI4
aI2
aI2
aI4
aI4
aI4
aI8
aI1
aI16
aI7
aI4
aI4
aI7
aI1
aI2
aI2
aI2
aI2
aI8
aI4
aI4
aI2
aI2
aI2
aI2
aI15
aI1
aI4
aI4
aI2
aI2
aI2
aI2
aI8
aI8
aI4
aI4
aI6
aI2
aI15
aI1
aI4
aI4
aI7
aI1
aI2
aI2
aI2
aI2
aI8
aI4
aI4
aI2
aI2
aI2
aI2
aI15
aI1
aI4
aI4
aI2
aI2
aI2
aI2
aI8
aI8
aI4
aI4
aI6
aI2
aI11
aI1
aI2
aI2
aI2
aI1
aI3
aI2
aI4
aI4
aI2
aI1
aI3
aI1
aI5
aI2
aI2
aI2
aI1
aI3
aI2
aI4
aI4
aI2
aI1
aI3
aI1
aI5
aI2
aI2
aI2
aI1
aI3
aI2
aI4
aI4
aI2
aI1
aI3
aI1
aI5
aI2
aI2
aI2
aI1
aI3
aI2
aI4
aI4
aI2
aI1
aI3
aI2
aI5
aI1
aI1
aI1
aI6
aI1
aI1
aI4
aI4
aI6
aI2
aI4
aI2
aI2
aI2
aI1
aI3
aI2
aI4
aI2
aI1
aI1
aI6
aI2
aI1
aI7
aI4
aI4
aI7
aI1
aI2
aI2
aI2
aI2
aI8
aI4
aI4
aI2
aI2
aI2
aI2
aI15
aI1
aI4
aI4
aI2
aI2
aI2
aI2
aI8
aI8
aI4
aI4
aI6
aI2
aI15
aI1
aI4
aI4
aI7
aI1
aI2
aI2
aI2
aI2
aI8
aI4
aI4
aI2
aI2
aI2
aI2
aI15
aI1
aI4
aI4
aI2
aI2
aI2
aI2
aI8
aI8
aI4
aI4
aI6
aI2
aI11
aI1
aI2
aI2
aI2
aI1
aI3
aI2
aI4
aI4
aI2
aI1
aI3
aI1
aI5
aI2
aI2
aI2
aI1
aI3
aI2
aI4
aI4
aI2
aI1
aI3
aI1
aI5
aI2
aI2
aI2
aI1
aI3
aI2
aI4
aI4
aI2
aI1
aI3
aI1
aI5
aI2
aI2
aI2
aI1
aI3
aI2
aI4
aI4
aI2
aI1
aI3
aI2
aI4
aI2
aI2
aI2
aI1
aI3
aI2
aI4
aI4
aI1
aI1
aI1
aI1
aI1
aI1
aI4
aI2
aI2
aI2
aI1
aI3
aI2
aI4
aI4
aI1
aI1
aI1
aI3
aI1
aI4
aI2
aI2
aI2
aI1
aI3
aI2
aI4
aI4
aI2
aI1
aI3
aI1
aI5
aI2
aI2
aI2
aI1
aI3
aI2
aI4
aI4
aI2
aI1
aI3
aI1
aI5
aI2
aI2
aI2
aI1
aI3
aI2
aI4
aI4
aI1
aI1
aI1
aI1
aI1
aI1
aI4
aI2
aI2
aI2
aI1
aI3
aI2
aI4
aI4
aI1
aI1
aI1
aI3
aI1
aI4
aI2
aI2
aI2
aI1
aI3
aI2
aI4
aI3
aI1
aI2
aI1
aI3
aI1
aI5
aI2
aI2
aI2
aI1
aI3
aI2
aI4
aI4
aI2
aI1
aI3
aI4
aI14
aI8
aI2
aI2
aI2
aI2
aI3
aI1
aI3
aI1
aI4
aI4
aI4
aI2
aI2
aI1
aI13
aI2
aa(lp55
I11
aI2
aI2
aI2
aI4
aI2
aI2
aI4
aI2
aI2
aI2
aI2
aI4
aI2
aI2
aI2
aI2
aI4
aI2
aI2
aI4
aI2
aI2
aI2
aI2
aI4
aI2
aI2
aI2
aI2
aI4
aI2
aI2
aI4
aI2
aI2
aI2
aI4
aI2
aI2
aI2
aI2
aI2
aI2
aI2
aI2
aI2
aI4
aI2
aI10
aI2
aI2
aI2
aI2
aI4
aI2
aI2
aI4
aI2
aI2
aI2
aI2
aI4
aI2
aI2
aI2
aI2
aI4
aI2
aI2
aI4
aI2
aI2
aI2
aI2
aI4
aI2
aI2
aI2
aI2
aI2
aI1
aI4
aI4
aI2
aI2
aI2
aI2
aI2
aI2
aI4
aI2
aI10
aI2
aI2
aI2
aI2
aI2
aI4
aI2
aI2
aI2
aI2
aI8
aI2
aI2
aI2
aI2
aI2
aI2
aI4
aI2
aI2
aI2
aI2
aI8
aI2
aI2
aI2
aI2
aI2
aI2
aI2
aI2
aI2
aI2
aI2
aI2
aI8
aI2
aI2
aI2
aI2
aI4
aI2
aI4
aI4
aI4
aI6
aI2
aI2
aI2
aI2
aI2
aI2
aI4
aI2
aI2
aI2
aI2
aI8
aI2
aI2
aI2
aI2
aI2
aI2
aI4
aI2
aI2
aI2
aI2
aI8
aI2
aI2
aI2
aI2
aI2
aI2
aI2
aI2
aI2
aI2
aI2
aI2
aI6
aI2
aI4
aI2
aI4
aI14
aI10
aI2
aI2
aI2
aI4
aI2
aI2
aI4
aI2
aI2
aI2
aI2
aI4
aI2
aI2
aI2
aI2
aI4
aI2
aI2
aI4
aI2
aI2
aI2
aI2
aI4
aI2
aI2
aI2
aI2
aI4
aI2
aI2
aI4
aI2
aI2
aI2
aI4
aI2
aI2
aI2
aI2
aI2
aI2
aI2
aI2
aI2
aI4
aI2
aI10
aI2
aI2
aI2
aI2
aI4
aI2
aI2
aI4
aI2
aI2
aI2
aI2
aI4
aI2
aI2
aI2
aI2
aI4
aI2
aI2
aI4
aI2
aI2
aI2
aI2
aI4
aI2
aI2
aI2
aI2
aI2
aI2
aI4
aI4
aI2
aI2
aI2
aI2
aI2
aI2
aI4
aI2
aI10
aI2
aI2
aI2
aI2
aI2
aI4
aI2
aI2
aI2
aI2
aI8
aI2
aI2
aI2
aI2
aI2
aI2
aI4
aI2
aI2
aI2
aI2
aI8
aI2
aI2
aI2
aI2
aI2
aI2
aI2
aI2
aI2
aI2
aI2
aI2
aI8
aI2
aI2
aI2
aI2
aI4
aI2
aI4
aI4
aI4
aI6
aI2
aI2
aI2
aI2
aI2
aI2
aI4
aI2
aI2
aI2
aI2
aI8
aI2
aI2
aI2
aI2
aI2
aI2
aI4
aI2
aI2
aI2
aI2
aI8
aI2
aI2
aI2
aI2
aI2
aI2
aI2
aI2
aI2
aI2
aI2
aI2
aI6
aI2
aI4
aI2
aI4
aI14
aI10
aI2
aI2
aI2
aI2
aI2
aI4
aI2
aI2
aI2
aI2
aI8
aI2
aI2
aI2
aI2
aI2
aI2
aI4
aI2
aI2
aI2
aI2
aI8
aI2
aI2
aI2
aI2
aI2
aI2
aI2
aI2
aI2
aI2
aI2
aI2
aI8
aI2
aI2
aI2
aI2
aI4
aI2
aI4
aI4
aI4
aI6
aI2
aI2
aI2
aI2
aI2
aI2
aI4
aI2
aI2
aI2
aI2
aI8
aI2
aI2
aI2
aI2
aI2
aI2
aI4
aI2
aI2
aI2
aI2
aI8
aI2
aI2
aI2
aI2
aI2
aI2
aI2
aI2
aI2
aI2
aI2
aI2
aI6
aI2
aI4
aI2
aI4
aI14
aa(lp56
I1
aI1
aI1
aI1
aI1
aI1
aI1
aI1
aI1
aI1
aI1
aI1
aI1
aI1
aI1
aI1
aI1
aI1
aI1
aI1
aI1
aI1
aI1
aI1
aI6
aI2
aI1
aI1
aI1
aI1
aI1
aI1
aI1
aI1
aI1
aI1
aI1
aI1
aI1
aI1
aI1
aI1
aI3
aI1
aI1
aI1
aI1
aI1
aI7
aI4
aI3
aI1
aI2
aI1
aI2
aI3
aI2
aI1
aI2
aI3
aI2
aI1
aI2
aI7
aI4
aI2
aI1
aI2
aI3
aI2
aI1
aI2
aI3
aI2
aI1
aI2
aI2
aI2
aI4
aI1
aI1
aI2
aI1
aI2
aI3
aI2
aI1
aI2
aI3
aI2
aI1
aI3
aI2
aI3
aI4
aI1
aI2
aI1
aI2
aI2
aI1
aI2
aI1
aI2
aI2
aI1
aI1
aI1
aI1
aI2
aI3
aI1
aI1
aI1
aI1
aI1
aI2
aI1
aI1
aI1
aI2
aI3
aI1
aI1
aI1
aI2
aI3
aI2
aI1
aI2
aI3
aI2
aI1
aI2
aI3
aI1
aI1
aI1
aI2
aI3
aI1
aI1
aI1
aI2
aI3
aI2
aI1
aI2
aI1
aI2
aI8
aI14
aI1
aI1
aI2
aI1
aI2
aI3
aI2
aI1
aI2
aI3
aI4
aI1
aI1
aI1
aI8
aI1
aI2
aI1
aI2
aI3
aI2
aI1
aI2
aI3
aI2
aI1
aI2
aI2
aI6
aI1
aI1
aI1
aI2
aI1
aI2
aI3
aI2
aI1
aI2
aI3
aI4
aI1
aI1
aI1
aI8
aI1
aI1
aI1
aI1
aI2
aI2
aI3
aI1
aI2
aI2
aI6
aI2
aI6
aI2
aI12
aI2
aI2
aI3
aI1
aI1
aI1
aI1
aI1
aI3
aI1
aI4
aI3
aI4
aI3
aI2
aI4
aI9
aI1
aI1
aI1
aI1
aI1
aI4
aI3
aI1
aI2
aI1
aI2
aI3
aI2
aI1
aI2
aI3
aI2
aI1
aI2
aI10
aI1
aI2
aI1
aI2
aI3
aI2
aI1
aI2
aI3
aI2
aI1
aI2
aI2
aI6
aI2
aI1
aI2
aI1
aI2
aI3
aI2
aI1
aI2
aI3
aI2
aI1
aI3
aI2
aI3
aI4
aI1
aI2
aI1
aI2
aI2
aI1
aI2
aI1
aI2
aI2
aI1
aI1
aI1
aI1
aI2
aI10
aI1
aI1
aI1
aI2
aI3
aI1
aI1
aI1
aI2
aI3
aI2
aI1
aI2
aI3
aI2
aI1
aI2
aI3
aI1
aI1
aI1
aI2
aI3
aI1
aI1
aI1
aI2
aI3
aI2
aI1
aI2
aI1
aI2
aI8
aI6
aI1
aI1
aI2
aI1
aI2
aI3
aI2
aI1
aI2
aI3
aI4
aI1
aI1
aI1
aI8
aI1
aI2
aI1
aI2
aI3
aI2
aI1
aI2
aI3
aI2
aI1
aI2
aI2
aI6
aI1
aI1
aI1
aI2
aI1
aI2
aI3
aI2
aI1
aI2
aI3
aI4
aI1
aI1
aI1
aI8
aI1
aI1
aI1
aI1
aI2
aI2
aI3
aI1
aI2
aI2
aI6
aI2
aI8
aI2
aI2
aI2
aI2
aI2
aI2
aI2
aI2
aI6
aI1
aI1
aI2
aI1
aI2
aI3
aI2
aI1
aI2
aI3
aI4
aI1
aI1
aI1
aI8
aI1
aI2
aI1
aI2
aI3
aI2
aI1
aI2
aI3
aI2
aI1
aI2
aI2
aI6
aI1
aI1
aI1
aI2
aI1
aI2
aI3
aI2
aI1
aI2
aI3
aI4
aI1
aI1
aI1
aI8
aI1
aI1
aI1
aI1
aI2
aI2
aI3
aI1
aI2
aI2
aI6
aI2
aI6
aI2
aI1
aI1
aI1
aI2
aI2
aI3
aI1
aI2
aI2
aI6
aI2
aI6
aI1
aI1
aI8
aI8
aa(lp57
I8
aI4
aI4
aI14
aI2
aI2
aI2
aI2
aI2
aI4
aI2
aI16
aI2
aI2
aI2
aI2
aI2
aI4
aI2
aI13
aI1
aI2
aI2
aI4
aI4
aI4
aI2
aI10
aI2
aI2
aI2
aI2
aI6
aI1
aI1
aI8
aI4
aI2
aI2
aI2
aI2
aI2
aI6
aI2
aI2
aI2
aI4
aI6
aI2
aI2
aI2
aI2
aI4
aI2
aI2
aI2
aI2
aI2
aI2
aI4
aI4
aI2
aI2
aI2
aI2
aI2
aI6
aI2
aI2
aI2
aI4
aI6
aI2
aI2
aI2
aI2
aI2
aI2
aI4
aI2
aI2
aI4
aI4
aI6
aI2
aI2
aI2
aI4
aI6
aI2
aI2
aI2
aI4
aI6
aI2
aI2
aI2
aI4
aI2
aI2
aI2
aI2
aI2
aI2
aI4
aI6
aI2
aI2
aI2
aI4
aI6
aI2
aI2
aI2
aI4
aI2
aI2
aI2
aI2
aI2
aI2
aI4
aI2
aI2
aI2
aI2
aI2
aI2
aI2
aI2
aI15
aI1
aI6
aI2
aI2
aI2
aI2
aI2
aI2
aI2
aI4
aI2
aI2
aI4
aI6
aI2
aI2
aI2
aI2
aI2
aI2
aI2
aI4
aI2
aI2
aI1
aI3
aI6
aI2
aI2
aI2
aI2
aI2
aI4
aI2
aI2
aI2
aI2
aI4
aI6
aI2
aI2
aI2
aI2
aI2
aI4
aI2
aI2
aI2
aI2
aI2
aI2
aI6
aI2
aI2
aI2
aI2
aI2
aI2
aI2
aI4
aI2
aI2
aI4
aI6
aI2
aI2
aI2
aI2
aI2
aI2
aI2
aI4
aI2
aI2
aI1
aI3
aI6
aI2
aI2
aI2
aI2
aI2
aI4
aI2
aI2
aI2
aI2
aI4
aI6
aI2
aI2
aI2
aI2
aI2
aI4
aI2
aI2
aI2
aI2
aI2
aI2
aI6
aI2
aI4
aI2
aI2
aI2
aI2
aI11
aI9
aI8
aI4
aI2
aI2
aI2
aI2
aI2
aI6
aI2
aI2
aI2
aI4
aI6
aI2
aI2
aI2
aI2
aI4
aI2
aI2
aI2
aI2
aI2
aI2
aI4
aI4
aI2
aI2
aI2
aI2
aI2
aI6
aI2
aI2
aI2
aI4
aI6
aI2
aI2
aI2
aI2
aI2
aI2
aI4
aI2
aI2
aI4
aI4
aI6
aI2
aI2
aI2
aI4
aI6
aI2
aI2
aI2
aI4
aI6
aI2
aI2
aI2
aI4
aI2
aI2
aI2
aI2
aI2
aI2
aI4
aI6
aI2
aI2
aI2
aI4
aI6
aI2
aI2
aI2
aI4
aI2
aI2
aI2
aI2
aI2
aI2
aI4
aI2
aI2
aI2
aI2
aI2
aI2
aI2
aI2
aI15
aI1
aI6
aI2
aI2
aI2
aI2
aI2
aI2
aI2
aI4
aI2
aI2
aI4
aI6
aI2
aI2
aI2
aI2
aI2
aI2
aI2
aI4
aI2
aI2
aI1
aI3
aI6
aI2
aI2
aI2
aI2
aI2
aI4
aI2
aI2
aI2
aI2
aI4
aI6
aI2
aI2
aI2
aI2
aI2
aI4
aI2
aI2
aI2
aI2
aI2
aI2
aI6
aI2
aI2
aI2
aI2
aI2
aI2
aI2
aI4
aI2
aI2
aI4
aI6
aI2
aI2
aI2
aI2
aI2
aI2
aI2
aI4
aI2
aI2
aI1
aI3
aI6
aI2
aI2
aI2
aI2
aI2
aI4
aI2
aI2
aI2
aI2
aI4
aI6
aI2
aI2
aI2
aI2
aI2
aI4
aI2
aI2
aI2
aI2
aI2
aI2
aI6
aI2
aI4
aI2
aI2
aI2
aI2
aI11
aI7
aI4
aI2
aI2
aI2
aI4
aI2
aI6
aI2
aI2
aI4
aI2
aI4
aI6
aI4
aI2
aI4
aI2
aI2
aI17
aI1
aI4
aI2
aI4
aI4
aI6
aI2
aI4
aI6
aI4
aI2
aI4
aI2
aI2
aI2
aI8
aI3
aI3
aI2
aI14
aI1
aI1
aI8
aI4
aI4
aI4
aI2
aI4
aI4
aI2
aI14
aI2
aI4
aI2
aI8
aI2
aI4
aI2
aI4
aI6
aI2
aI13
aI1
aI6
aI2
aI2
aI2
aI2
aI2
aI2
aI2
aI4
aI2
aI2
aI4
aI6
aI2
aI2
aI2
aI2
aI2
aI2
aI2
aI4
aI2
aI2
aI1
aI3
aI6
aI2
aI2
aI2
aI2
aI2
aI4
aI2
aI2
aI2
aI2
aI4
aI6
aI2
aI2
aI2
aI2
aI2
aI4
aI2
aI2
aI2
aI2
aI2
aI2
aI6
aI2
aI2
aI2
aI2
aI2
aI2
aI2
aI4
aI2
aI2
aI4
aI6
aI2
aI2
aI2
aI2
aI2
aI2
aI2
aI2
aI2
aI2
aI2
aI2
aI2
aI1
aI1
aI8
aI2
aI2
aI2
aI2
aI2
aI4
aI2
aI2
aI2
aI2
aI1
aI1
aI6
aI2
aI2
aI2
aI2
aI2
aI2
aI2
aI2
aI2
aI2
aI2
aI2
aI6
aI2
aI4
aI2
aI2
aI14
aI2
aI2
aI2
aI2
aI2
aI4
aI2
aI16
aI2
aI2
aI2
aI2
aI2
aI4
aI2
aI13
aI1
aI2
aI2
aI4
aI4
aI4
aI2
aI10
aI2
aI2
aI2
aI2
aI6
aI1
aI1
aI8
aI15
aI1
aa(lp58
I4
aI2
aI4
aI6
aI4
aI2
aI4
aI4
aI2
aI6
aI4
aI2
aI3
aI15
aI1
aI4
aI2
aI6
aI2
aI6
aI4
aI6
aI1
aI7
aI1
aI2
aI4
aI2
aI11
aI1
aI4
aI4
aI2
aI4
aI4
aI6
aI4
aI4
aI4
aI6
aI4
aI4
aI6
aI2
aI2
aI6
aI2
aI4
aI2
aI4
aI4
aI8
aI6
aI4
aI8
aI2
aI2
aI2
aI2
aI2
aI2
aI2
aI2
aI2
aI2
aI2
aI2
aI13
aI1
aI2
aI6
aI2
aI6
aI2
aI6
aI2
aI6
aI2
aI2
aI2
aI2
aI2
aI2
aI2
aI2
aI2
aI6
aI2
aI4
aI2
aI2
aI8
aI2
aI2
aI2
aI12
aI2
aI2
aI6
aI4
aI6
aI2
aI6
aI2
aI6
aI2
aI6
aI2
aI2
aI2
aI2
aI2
aI4
aI4
aI2
aI2
aI2
aI2
aI4
aI4
aI2
aI2
aI3
aI6
aI2
aI4
aI4
aI2
aI6
aI4
aI4
aI15
aI7
aI2
aI2
aI2
aI2
aI2
aI2
aI2
aI2
aI6
aI2
aI2
aI8
aI8
aI2
aI2
aI2
aI2
aI4
aI2
aI2
aI4
aI2
aI9
aI7
aI3
aI2
aI2
aI2
aI2
aI4
aI2
aI2
aI2
aI4
aI2
aI2
aI2
aI2
aI4
aI2
aI2
aI4
aI2
aI9
aI8
aI2
aI2
aI2
aI2
aI8
aI4
aI4
aI4
aI2
aI6
aI2
aI4
aI6
aI2
aI2
aI2
aI2
aI4
aI2
aI4
aI2
aI2
aI2
aI2
aI4
aI2
aI14
aI4
aI6
aI4
aI2
aI4
aI6
aI8
aI8
aI2
aI6
aI4
aI4
aI6
aI4
aI2
aI2
aI2
aI6
aI4
aI4
aI2
aI6
aI4
aI4
aI2
aI8
aI4
aI4
aI8
aI2
aI2
aI2
aI8
aI4
aI2
aI2
aI8
aI2
aI4
aI2
aI2
aI8
aI2
aI2
aI2
aI2
aI2
aI2
aI2
aI2
aI2
aI2
aI2
aI2
aI2
aI2
aI2
aI2
aI2
aI2
aI4
aI6
aI4
aI2
aI2
aI2
aI6
aI4
aI2
aI2
aI2
aI6
aI8
aI1
aI1
aI6
aI8
aI2
aI8
aI4
aI4
aI2
aI2
aI4
aI2
aI2
aI2
aI2
aI6
aI2
aI8
aI6
aI2
aI8
aI15
aI1
aI8
aI4
aI4
aI8
aI4
aI2
aI2
aI6
aI4
aI4
aI2
aI6
aI4
aI2
aI4
aI8
aI2
aI2
aI2
aI2
aI8
aI6
aI1
aI1
aI6
aI2
aI2
aI2
aI4
aI6
aI4
aI4
aI15
aI1
aI1
aI1
aI4
aI2
aI8
aI1
aI1
aI4
aI4
aI4
aI4
aI8
aI2
aI2
aI2
aI16
aI1
aI8
aI2
aI2
aI2
aI17
aI1
aI14
aI2
aI12
aI4
aI15
aI1
aa(lp59
I4
aI2
aI1
aI1
aI1
aI1
aI1
aI2
aI1
aI2
aI3
aI1
aI2
aI1
aI1
aI1
aI1
aI3
aI1
aI2
aI3
aI1
aI2
aI1
aI1
aI1
aI1
aI3
aI1
aI2
aI1
aI1
aI1
aI2
aI1
aI2
aI1
aI2
aI3
aI3
aI3
aI1
aI2
aI1
aI1
aI1
aI1
aI1
aI2
aI1
aI2
aI3
aI1
aI2
aI1
aI1
aI1
aI1
aI3
aI1
aI2
aI3
aI1
aI2
aI1
aI1
aI1
aI1
aI3
aI1
aI2
aI1
aI1
aI1
aI2
aI1
aI2
aI1
aI2
aI2
aI4
aI3
aI3
aI3
aI2
aI1
aI4
aI2
aI3
aI3
aI3
aI3
aI3
aI3
aI3
aI3
aI3
aI2
aI1
aI5
aI1
aI1
aI1
aI1
aI2
aI1
aI2
aI1
aI2
aI2
aI4
aI3
aI1
aI2
aI1
aI1
aI1
aI1
aI1
aI2
aI1
aI2
aI1
aI2
aI1
aI2
aI1
aI1
aI1
aI1
aI3
aI1
aI2
aI1
aI1
aI1
aI2
aI1
aI1
aI1
aI1
aI3
aI1
aI2
aI1
aI1
aI1
aI2
aI1
aI2
aI1
aI2
aI3
aI3
aI3
aI3
aI3
aI2
aI1
aI4
aI2
aI3
aI3
aI3
aI2
aI1
aI2
aI3
aI3
aI1
aI2
aI2
aI2
aI2
aI1
aI2
aI1
aI3
aI1
aI2
aI2
aI1
aI2
aI1
aI2
aI1
aI4
aI3
aI1
aI2
aI1
aI1
aI1
aI1
aI1
aI2
aI1
aI2
aI1
aI2
aI1
aI2
aI1
aI1
aI2
aI1
aI2
aI1
aI2
aI1
aI2
aI1
aI2
aI1
aI1
aI1
aI1
aI2
aI1
aI2
aI1
aI2
aI2
aI1
aI2
aI1
aI2
aI1
aI4
aI3
aI1
aI2
aI1
aI1
aI1
aI2
aI2
aI1
aI2
aI3
aI1
aI2
aI1
aI1
aI1
aI1
aI2
aI1
aI2
aI3
aI1
aI2
aI1
aI1
aI1
aI1
aI2
aI1
aI2
aI1
aI2
aI2
aI1
aI2
aI1
aI3
aI7
aa(lp60
I2
aI2
aI2
aI2
aI2
aI4
aI2
aI2
aI2
aI2
aI2
aI1
aI4
aI3
aI2
aI2
aI2
aI2
aI2
aI4
aI2
aI2
aI2
aI2
aI2
aI2
aI4
aI2
aI2
aI2
aI2
aI2
aI2
aI4
aI2
aI2
aI2
aI2
aI2
aI1
aI4
aI5
aI2
aI2
aI2
aI2
aI1
aI3
aI2
aI2
aI1
aI2
aI3
aI2
aI8
aI2
aI2
aI4
aI2
aI2
aI4
aI2
aI2
aI4
aI2
aI2
aI4
aI4
aI1
aI1
aI2
aI2
aI2
aI1
aI2
aI3
aI2
aI2
aI2
aI1
aI2
aI2
aI3
aI2
aI2
aI4
aI2
aI2
aI4
aI2
aI2
aI4
aI2
aI2
aI4
aI4
aI1
aI1
aI2
aI2
aI2
aI1
aI2
aI4
aI1
aI1
aI2
aI2
aI2
aI1
aI2
aI4
aI1
aI2
aI2
aI2
aI2
aI2
aI4
aI3
aI4
aI2
aI1
aI1
aI1
aI1
aI2
aI1
aI1
aI1
aI1
aI2
aI1
aI1
aI1
aI1
aI2
aI2
aI2
aI2
aI1
aI1
aI1
aI1
aI2
aI1
aI1
aI1
aI1
aI2
aI1
aI1
aI1
aI1
aI2
aI2
aI2
aI2
aI1
aI1
aI1
aI1
aI2
aI1
aI1
aI1
aI1
aI2
aI1
aI1
aI1
aI1
aI2
aI2
aI2
aI2
aI2
aI2
aI1
aI1
aI1
aI1
aI2
aI1
aI1
aI1
aI1
aI2
aI1
aI1
aI1
aI1
aI1
aI1
aI2
aI2
aI2
aI2
aI4
aI2
aI2
aI2
aI2
aI2
aI4
aI2
aI2
aI2
aI2
aI2
aI1
aI4
aI3
aI2
aI2
aI2
aI2
aI2
aI4
aI2
aI2
aI2
aI2
aI2
aI2
aI4
aI2
aI1
aI2
aI2
aI2
aI2
aI2
aI4
aI2
aI2
aI2
aI2
aI1
aI4
aI3
aI2
aI2
aI2
aI2
aI1
aI3
aI2
aI2
aI1
aI2
aI2
aI4
aI6
aI2
aI2
aI4
aI2
aI2
aI4
aI2
aI2
aI4
aI2
aI2
aI4
aI4
aI1
aI1
aI2
aI2
aI2
aI1
aI2
aI3
aI2
aI2
aI2
aI1
aI2
aI2
aI3
aI2
aI2
aI4
aI2
aI2
aI4
aI2
aI2
aI4
aI2
aI2
aI4
aI4
aI1
aI1
aI2
aI2
aI2
aI1
aI2
aI4
aI1
aI1
aI2
aI2
aI2
aI1
aI2
aI4
aI1
aI2
aI2
aI2
aI2
aI1
aI4
aI3
aI4
aI6
aI4
aI2
aI2
aI4
aI3
aI4
aI2
aI2
aI2
aI2
aI2
aI2
aI8
aI2
aI2
aI2
aI2
aI4
aI4
aI2
aI2
aI2
aI4
aI2
aI2
aI4
aI2
aI2
aI4
aI2
aI2
aI4
aI4
aI1
aI1
aI2
aI2
aI2
aI1
aI2
aI3
aI2
aI2
aI2
aI1
aI2
aI2
aI3
aI2
aI2
aI4
aI2
aI2
aI4
aI2
aI2
aI4
aI2
aI2
aI4
aI4
aI1
aI1
aI2
aI2
aI2
aI1
aI2
aI4
aI1
aI1
aI2
aI2
aI2
aI1
aI2
aI4
aI1
aI2
aI2
aI2
aI2
aI1
aI4
aI4
aI4
aI2
aI2
aI2
aI2
aI2
aI2
aI2
aI1
aI1
aI2
aI1
aI1
aI2
aI1
aI1
aI2
aI2
aI4
aI2
aI2
aI2
aI2
aI2
aI2
aI2
aI1
aI1
aI1
aI1
aI1
aI1
aI2
aI2
aI2
aI2
aI4
aI2
aI2
aI2
aI2
aI2
aI2
aI4
aI2
aI2
aI2
aI2
aI2
aI2
aI4
aI2
aI2
aI2
aI2
aI2
aI3
aI7
aa(lp61
I1
aI1
aI2
aI4
aI1
aI1
aI1
aI1
aI2
aI1
aI1
aI1
aI4
aI1
aI2
aI1
aI8
aI5
aI1
aI1
aI4
aI2
aI1
aI1
aI3
aI3
aI1
aI3
aI1
aI2
aI1
aI5
aI1
aI2
aI2
aI1
aI1
aI2
aI1
aI3
aI2
aI2
aI4
aI3
aI5
aI1
aI2
aI2
aI1
aI1
aI1
aI1
aI6
aI2
aI3
aI2
aI2
aI4
aI2
aI2
aI2
aI1
aI2
aI2
aI9
aI8
aI1
aI1
aI2
aI4
aI2
aI2
aI1
aI5
aI1
aI4
aI1
aI2
aI1
aI1
aI1
aI8
aI5
aI1
aI2
aI3
aI2
aI2
aI1
aI3
aI3
aI2
aI1
aI1
aI1
aI6
aI1
aI1
aI1
aI1
aI1
aI1
aI1
aI1
aI1
aI2
aI2
aI2
aI3
aI2
aI1
aI1
aI3
aI2
aI1
aI1
aI3
aI2
aI1
aI1
aI3
aI2
aI2
aI3
aI2
aI1
aI1
aI5
aI1
aI1
aI1
aI3
aI1
aI1
aI2
aI14
aa(lp62
I14
aI1
aI1
aI6
aI2
aI4
aI4
aI13
aI1
aI1
aI1
aI6
aI2
aI4
aI4
aI13
aI1
aI1
aI1
aI6
aI2
aI4
aI4
aI13
aI1
aI1
aI1
aI6
aI2
aI4
aI4
aI13
aI1
aI1
aI1
aI6
aI2
aI4
aI4
aI13
aI1
aI1
aI1
aI6
aI2
aI4
aI4
aI13
aI1
aI1
aI1
aI6
aI2
aI4
aI4
aI6
aI2
aI6
aI1
aI1
aI6
aI2
aI4
aI4
aI13
aI1
aI1
aI1
aI6
aI2
aI4
aI4
aI13
aI1
aI1
aI1
aI6
aI2
aI4
aI4
aI13
aI1
aI1
aI1
aI6
aI2
aI4
aI4
aI8
aI6
aI2
aI15
aI1
aI4
aI4
aI6
aI1
aI1
aI6
aI2
aI4
aI4
aI13
aI1
aI1
aI1
aI6
aI2
aI4
aI4
aI6
aI2
aI6
aI1
aI1
aI6
aI2
aI4
aI4
aI8
aI8
aI15
aI1
aI1
aI15
aI1
aI1
aI16
aI8
aI8
aI15
aI1
aa(lp63
I4
aI1
aI2
aI1
aI8
aI4
aI1
aI1
aI2
aI4
aI3
aI1
aI5
aI1
aI7
aI1
aI4
aI1
aI2
aI1
aI8
aI4
aI1
aI1
aI2
aI4
aI3
aI1
aI5
aI1
aI7
aI1
aI2
aI2
aI2
aI2
aI7
aI1
aI1
aI3
aI1
aI1
aI1
aI8
aI1
aI2
aI2
aI2
aI1
aI1
aI2
aI2
aI3
aI1
aI1
aI3
aI11
aI1
aI2
aI2
aI2
aI1
aI1
aI2
aI2
aI4
aI3
aI3
aI1
aI1
aI7
aI1
aI2
aI2
aI2
aI1
aI3
aI4
aI2
aI15
aI1
aI2
aI2
aI2
aI2
aI7
aI1
aI1
aI3
aI1
aI1
aI1
aI8
aI1
aI2
aI2
aI2
aI1
aI1
aI2
aI2
aI3
aI1
aI1
aI3
aI11
aI1
aI2
aI2
aI2
aI1
aI1
aI2
aI2
aI4
aI3
aI3
aI1
aI1
aI7
aI1
aI2
aI2
aI2
aI1
aI3
aI4
aI2
aI15
aI1
aI3
aI3
aI2
aI6
aI1
aI1
aI6
aI2
aI8
aI3
aI3
aI2
aI6
aI1
aI1
aI11
aI1
aI1
aI1
aI1
aI1
aI3
aI3
aI2
aI6
aI1
aI1
aI6
aI2
aI4
aI2
aI2
aI6
aI2
aI6
aI1
aI1
aI15
aI1
aI3
aI3
aI2
aI6
aI1
aI1
aI6
aI2
aI8
aI3
aI3
aI2
aI6
aI1
aI1
aI11
aI1
aI1
aI1
aI1
aI1
aI3
aI3
aI2
aI6
aI1
aI1
aI6
aI2
aI4
aI2
aI2
aI6
aI2
aI6
aI1
aI1
aI15
aI1
aI2
aI2
aI2
aI2
aI6
aI1
aI1
aI3
aI1
aI2
aI2
aI6
aI1
aI1
aI2
aI2
aI2
aI2
aI4
aI2
aI17
aI1
aI2
aI2
aI2
aI2
aI6
aI2
aI3
aI1
aI2
aI2
aI6
aI1
aI1
aI2
aI2
aI2
aI2
aI2
aI4
aI2
aI15
aI1
aI2
aI2
aI2
aI2
aI6
aI1
aI1
aI3
aI1
aI2
aI2
aI6
aI1
aI1
aI2
aI2
aI2
aI2
aI4
aI2
aI17
aI1
aI2
aI2
aI2
aI2
aI6
aI2
aI3
aI1
aI2
aI2
aI6
aI1
aI1
aI2
aI2
aI2
aI2
aI2
aI4
aI2
aI15
aI1
aI2
aI2
aI2
aI2
aI6
aI1
aI1
aI3
aI1
aI2
aI2
aI6
aI1
aI1
aI2
aI2
aI1
aI2
aI1
aI3
aI1
aI2
aI1
aI16
aI1
aI2
aI2
aI2
aI2
aI6
aI2
aI3
aI1
aI2
aI2
aI6
aI1
aI1
aI2
aI2
aI2
aI2
aI2
aI4
aI2
aI15
aI1
aI2
aI2
aI2
aI2
aI7
aI1
aI1
aI3
aI1
aI1
aI1
aI1
aI6
aI1
aI1
aI2
aI2
aI2
aI1
aI1
aI4
aI1
aI3
aI15
aI1
aI3
aI3
aI2
aI7
aI1
aI3
aI1
aI2
aI2
aI6
aI1
aI1
aI2
aI2
aI2
aI1
aI3
aI6
aI8
aI2
aI2
aI2
aI2
aI15
aI1
aa(lp64
I4
aI4
aI4
aI4
aI1
aI1
aI1
aI1
aI1
aI1
aI1
aI1
aI1
aI1
aI1
aI1
aI1
aI1
aI1
aI1
aI2
aI1
aI1
aI2
aI1
aI1
aI2
aI3
aI1
aI1
aI1
aI8
aI3
aI1
aI1
aI1
aI1
aI1
aI1
aI2
aI1
aI1
aI1
aI1
aI1
aI1
aI2
aI2
aI1
aI1
aI1
aI1
aI1
aI1
aI1
aI1
aI1
aI3
aI1
aI1
aI1
aI1
aI1
aI1
aI2
aI2
aI1
aI1
aI1
aI1
aI2
aI2
aI1
aI1
aI1
aI1
aI2
aI1
aI1
aI2
aI1
aI3
aI1
aI1
aI1
aI1
aI1
aI1
aI2
aI2
aI1
aI1
aI1
aI1
aI2
aI2
aI1
aI1
aI1
aI1
aI2
aI1
aI1
aI2
aI1
aI3
aI1
aI1
aI1
aI1
aI1
aI1
aI2
aI2
aI1
aI1
aI1
aI1
aI2
aI2
aI1
aI1
aI1
aI1
aI2
aI1
aI1
aI2
aI1
aI3
aI1
aI1
aI1
aI1
aI1
aI1
aI2
aI1
aI1
aI1
aI1
aI1
aI1
aI1
aI1
aI2
aI1
aI1
aI1
aI1
aI2
aI1
aI1
aI2
aI1
aI1
aI4
aI1
aI1
aI1
aI1
aI1
aI1
aI2
aI1
aI1
aI1
aI1
aI1
aI1
aI2
aI1
aI1
aI1
aI1
aI2
aI1
aI1
aI2
aI1
aI1
aI2
aI2
aI1
aI1
aI1
aI1
aI1
aI1
aI1
aI1
aI1
aI1
aI1
aI1
aI1
aI1
aI2
aI1
aI1
aI1
aI1
aI2
aI1
aI1
aI2
aI1
aI1
aI4
aI1
aI1
aI1
aI1
aI1
aI1
aI2
aI1
aI1
aI1
aI1
aI1
aI1
aI1
aI6
aI3
aI1
aI1
aI1
aI1
aI2
aI1
aI1
aI1
aI1
aI1
aI1
aI2
aI1
aI1
aI1
aI1
aI1
aI12
aI1
aI1
aI1
aI1
aI2
aI2
aI1
aI1
aI1
aI1
aI2
aI2
aI1
aI1
aI1
aI1
aI1
aI1
aI1
aI1
aI1
aI3
aI1
aI1
aI1
aI1
aI1
aI1
aI2
aI2
aI1
aI1
aI1
aI1
aI2
aI2
aI1
aI1
aI1
aI1
aI2
aI1
aI1
aI2
aI1
aI3
aI1
aI1
aI1
aI1
aI1
aI1
aI2
aI2
aI1
aI1
aI1
aI1
aI2
aI2
aI1
aI1
aI1
aI1
aI2
aI1
aI1
aI2
aI1
aI3
aI1
aI1
aI1
aI1
aI1
aI1
aI2
aI2
aI1
aI1
aI1
aI1
aI2
aI2
aI1
aI1
aI1
aI1
aI2
aI1
aI1
aI2
aI1
aI3
aI1
aI1
aI1
aI1
aI1
aI1
aI2
aI1
aI1
aI1
aI1
aI1
aI1
aI1
aI1
aI2
aI1
aI1
aI1
aI1
aI2
aI1
aI1
aI2
aI1
aI1
aI4
aI1
aI1
aI1
aI1
aI1
aI1
aI2
aI1
aI1
aI1
aI1
aI1
aI1
aI2
aI1
aI1
aI1
aI1
aI2
aI1
aI1
aI2
aI1
aI1
aI2
aI2
aI1
aI1
aI1
aI1
aI1
aI1
aI1
aI1
aI1
aI1
aI1
aI1
aI1
aI1
aI2
aI1
aI1
aI1
aI1
aI2
aI1
aI1
aI2
aI1
aI1
aI4
aI1
aI1
aI1
aI1
aI1
aI1
aI2
aI1
aI1
aI1
aI1
aI1
aI1
aI1
aI6
aI3
aI1
aI1
aI1
aI1
aI2
aI1
aI1
aI1
aI1
aI1
aI1
aI2
aI1
aI1
aI1
aI1
aI3
aI1
aI1
aI1
aI1
aI1
aI1
aI2
aI1
aI1
aI1
aI1
aI1
aI1
aI1
aI1
aI2
aI1
aI1
aI1
aI1
aI2
aI1
aI1
aI2
aI1
aI1
aI3
aI1
aI1
aI1
aI1
aI1
aI1
aI1
aI2
aI1
aI1
aI1
aI1
aI1
aI1
aI2
aI1
aI1
aI1
aI1
aI2
aI1
aI1
aI2
aI1
aI1
aI2
aI2
aI1
aI1
aI1
aI1
aI1
aI1
aI1
aI1
aI1
aI1
aI1
aI1
aI1
aI1
aI2
aI1
aI1
aI1
aI1
aI2
aI1
aI1
aI2
aI1
aI1
aI3
aI1
aI1
aI1
aI1
aI1
aI1
aI1
aI2
aI1
aI1
aI1
aI1
aI1
aI1
aI1
aI6
aI3
aI1
aI1
aI1
aI1
aI2
aI1
aI1
aI1
aI1
aI1
aI1
aI2
aI1
aI1
aI1
aI1
aI5
aI1
aI1
aI1
aI1
aI2
aI1
aI1
aI1
aI1
aI1
aI1
aI2
aI1
aI1
aI1
aI1
aI8
aI15
aI1
aa(lp65
I4
aI4
aI6
aI2
aI2
aI2
aI2
aI2
aI3
aI3
aI2
aI10
aI2
aI2
aI2
aI2
aI2
aI2
aI2
aI3
aI3
aI2
aI8
aI2
aI2
aI2
aI2
aI2
aI2
aI2
aI2
aI6
aI2
aI2
aI2
aI2
aI6
aI2
aI2
aI3
aI3
aI2
aI2
aI2
aI1
aI1
aI1
aI15
aI1
aI2
aI6
aI4
aI2
aI17
aI1
aI2
aI6
aI4
aI2
aI17
aI1
aI4
aI2
aI10
aI4
aI2
aI10
aI3
aI3
aI2
aI3
aI3
aI2
aI2
aI14
aI2
aI6
aI4
aI2
aI17
aI1
aI2
aI6
aI4
aI2
aI4
aI14
aI4
aI2
aI10
aI2
aI4
aI1
aI1
aI8
aI3
aI3
aI2
aI3
aI3
aI2
aI15
aI5
aI4
aI6
aI2
aI2
aI2
aI2
aI2
aI3
aI3
aI2
aI10
aI2
aI2
aI2
aI2
aI2
aI2
aI2
aI3
aI3
aI2
aI8
aI2
aI2
aI2
aI2
aI2
aI2
aI2
aI6
aI2
aI2
aI2
aI2
aI6
aI2
aI2
aI2
aI2
aI2
aI2
aI2
aI2
aI2
aI6
aI2
aI2
aI2
aI2
aI2
aI2
aI2
aI2
aI3
aI3
aI2
aI10
aI2
aI2
aI2
aI2
aI2
aI2
aI2
aI3
aI3
aI2
aI8
aI2
aI2
aI2
aI2
aI2
aI2
aI2
aI6
aI2
aI2
aI2
aI2
aI6
aI2
aI2
aI2
aI2
aI2
aI2
aI2
aI2
aI2
aI14
aI2
aI6
aI4
aI2
aI17
aI1
aI2
aI6
aI4
aI2
aI17
aI1
aI4
aI2
aI10
aI4
aI2
aI10
aI3
aI3
aI2
aI3
aI3
aI2
aI2
aI14
aI2
aI6
aI4
aI2
aI17
aI1
aI2
aI6
aI4
aI2
aI4
aI14
aI4
aI2
aI10
aI2
aI4
aI1
aI1
aI8
aI3
aI3
aI2
aI3
aI3
aI2
aI15
aI5
aI4
aI6
aI2
aI2
aI2
aI2
aI2
aI3
aI3
aI2
aI10
aI2
aI2
aI2
aI2
aI2
aI2
aI2
aI3
aI3
aI2
aI8
aI2
aI2
aI2
aI2
aI2
aI2
aI2
aI6
aI2
aI2
aI2
aI2
aI6
aI2
aI2
aI2
aI2
aI2
aI2
aI2
aI2
aI2
aI6
aI2
aI2
aI2
aI2
aI2
aI2
aI2
aI2
aI3
aI3
aI2
aI10
aI2
aI2
aI2
aI2
aI2
aI2
aI2
aI3
aI3
aI2
aI8
aI2
aI2
aI2
aI2
aI2
aI2
aI2
aI6
aI2
aI2
aI2
aI2
aI6
aI2
aI2
aI2
aI2
aI2
aI2
aI2
aI2
aI2
aI6
aI2
aI2
aI2
aI15
aI1
aa(lp66
I2
aI2
aI2
aI2
aI8
aI2
aI2
aI2
aI2
aI8
aI2
aI2
aI2
aI2
aI1
aI1
aI2
aI6
aI4
aI1
aI1
aI4
aI2
aI2
aI8
aI2
aI2
aI2
aI2
aI8
aI2
aI2
aI2
aI2
aI8
aI2
aI2
aI2
aI2
aI1
aI1
aI2
aI4
aI2
aI4
aI1
aI1
aI4
aI2
aI2
aI12
aI2
aI2
aI6
aI1
aI1
aI2
aI2
aI2
aI2
aI2
aI2
aI2
aI2
aI3
aI1
aI8
aI2
aI2
aI6
aI1
aI1
aI2
aI2
aI2
aI2
aI2
aI2
aI2
aI1
aI3
aI10
aI1
aI1
aI1
aI11
aI1
aI1
aI1
aI1
aI6
aI2
aI2
aI2
aI1
aI1
aI1
aI1
aI1
aI6
aI1
aI1
aI4
aI1
aI1
aI1
aI1
aI1
aI1
aI1
aI1
aI2
aI2
aI1
aI1
aI1
aI11
aI1
aI1
aI1
aI1
aI6
aI2
aI2
aI3
aI1
aI1
aI1
aI2
aI1
aI5
aI1
aI1
aI4
aI1
aI1
aI1
aI1
aI1
aI9
aI2
aI1
aI1
aI2
aI2
aI2
aI2
aI2
aI2
aI1
aI3
aI2
aI13
aI2
aI2
aI2
aI2
aI8
aI2
aI2
aI2
aI2
aI8
aI2
aI2
aI2
aI2
aI1
aI1
aI2
aI6
aI4
aI1
aI1
aI4
aI2
aI2
aI8
aI2
aI2
aI2
aI2
aI8
aI2
aI2
aI2
aI2
aI8
aI2
aI2
aI2
aI2
aI1
aI1
aI2
aI4
aI2
aI4
aI1
aI1
aI4
aI2
aI2
aI12
aI2
aI2
aI6
aI1
aI1
aI2
aI2
aI2
aI2
aI2
aI2
aI2
aI2
aI3
aI1
aI8
aI2
aI2
aI6
aI1
aI1
aI2
aI2
aI2
aI2
aI2
aI2
aI2
aI1
aI3
aI10
aI1
aI1
aI1
aI11
aI1
aI1
aI1
aI1
aI6
aI2
aI2
aI2
aI1
aI1
aI1
aI1
aI1
aI6
aI1
aI1
aI4
aI1
aI1
aI1
aI1
aI1
aI1
aI1
aI1
aI2
aI2
aI1
aI1
aI1
aI11
aI1
aI1
aI1
aI1
aI6
aI2
aI2
aI3
aI1
aI1
aI1
aI2
aI1
aI5
aI1
aI1
aI4
aI1
aI1
aI1
aI1
aI1
aI9
aI2
aI1
aI1
aI2
aI2
aI2
aI2
aI2
aI2
aI1
aI3
aI2
aI2
aI1
aI2
aI2
aI1
aI1
aI1
aI1
aI1
aI1
aI1
aI1
aI2
aI1
aI2
aI6
aI2
aI1
aI1
aI1
aI1
aI1
aI1
aI1
aI3
aI1
aI5
aI1
aI1
aI1
aI1
aI2
aI1
aI4
aI1
aI1
aI1
aI2
aI10
aI1
aI1
aI1
aI6
aI2
aI2
aI2
aI1
aI1
aI1
aI1
aI1
aI6
aI1
aI1
aI4
aI1
aI1
aI1
aI1
aI1
aI1
aI1
aI1
aI2
aI2
aI1
aI1
aI1
aI11
aI1
aI1
aI1
aI1
aI6
aI2
aI2
aI3
aI1
aI1
aI1
aI2
aI1
aI5
aI1
aI1
aI4
aI1
aI1
aI1
aI1
aI1
aI9
aI2
aI1
aI1
aI2
aI2
aI2
aI2
aI2
aI2
aI1
aI3
aI1
aI11
aI1
aI1
aI1
aI2
aI2
aI2
aI2
aI2
aI2
aI1
aI3
aI2
aI13
aa(lp67
I4
aI11
aI5
aI11
aI11
aI3
aI2
aI2
aI2
aI2
aI2
aI2
aI2
aI2
aI2
aI2
aI10
aI2
aI2
aI2
aI2
aI2
aI2
aI2
aI2
aI2
aI2
aI2
aI4
aI2
aI2
aI4
aI2
aI2
aI2
aI2
aI2
aI2
aI2
aI2
aI2
aI2
aI6
aI2
aI4
aI2
aI2
aI4
aI4
aI4
aI2
aI2
aI10
aI2
aI2
aI2
aI2
aI2
aI2
aI2
aI2
aI2
aI2
aI2
aI12
aI2
aI2
aI2
aI2
aI2
aI2
aI2
aI4
aI2
aI10
aI2
aI2
aI2
aI2
aI2
aI2
aI2
aI2
aI2
aI2
aI2
aI4
aI2
aI2
aI4
aI2
aI2
aI4
aI4
aI6
aI4
aI2
aI1
aI3
aI2
aI2
aI2
aI2
aI2
aI2
aI4
aI6
aI4
aI2
aI1
aI3
aI2
aI2
aI2
aI2
aI2
aI2
aI4
aI6
aI2
aI2
aI2
aI2
aI2
aI2
aI4
aI2
aI8
aI4
aI2
aI2
aI1
aI3
aI2
aI2
aI2
aI2
aI2
aI2
aI2
aI2
aI4
aI1
aI4
aI2
aI2
aI2
aI1
aI3
aI2
aI2
aI2
aI2
aI4
aI2
aI2
aI4
aI2
aI2
aI1
aI3
aI2
aI2
aI2
aI2
aI2
aI2
aI2
aI2
aI2
aI2
aI2
aI2
aI2
aI2
aI1
aI3
aI2
aI2
aI2
aI2
aI1
aI5
aI2
aI2
aI2
aI2
aI2
aI1
aI1
aI4
aI2
aI2
aI2
aI2
aI2
aI1
aI1
aI4
aI2
aI2
aI2
aI2
aI2
aI2
aI2
aI2
aI2
aI2
aI2
aI2
aI2
aI2
aI2
aI2
aI2
aI2
aI2
aI2
aI2
aI2
aI2
aI1
aI3
aI2
aI2
aI2
aI2
aI2
aI2
aI2
aI2
aI2
aI2
aI2
aI2
aI2
aI2
aI1
aI3
aI2
aI2
aI2
aI2
aI1
aI5
aI2
aI2
aI2
aI2
aI2
aI1
aI1
aI4
aI2
aI2
aI2
aI2
aI2
aI1
aI5
aI4
aI4
aI2
aI2
aI2
aI2
aI3
aI3
aI2
aI2
aI2
aI2
aI2
aI2
aI2
aI2
aI2
aI2
aI2
aI2
aI4
aI2
aI2
aI1
aI1
aI2
aI2
aI2
aI1
aI1
aI1
aI1
aI1
aI1
aI1
aI1
aI1
aI1
aI1
aI1
aI1
aI1
aI1
aI1
aI1
aI1
aI1
aI1
aI1
aI1
aI2
aI2
aI2
aI2
aI2
aI1
aI3
aI2
aI2
aI2
aI2
aI2
aI2
aI4
aI2
aI2
aI2
aI2
aI2
aI2
aI1
aI3
aI2
aI2
aI2
aI4
aI2
aI3
aI1
aI2
aI2
aI4
aI2
aI2
aI1
aI3
aI2
aI2
aI2
aI2
aI2
aI2
aI2
aI2
aI2
aI2
aI4
aI2
aI2
aI4
aI4
aI4
aI2
aI2
aI2
aI2
aI1
aI3
aI2
aI2
aI2
aI2
aI2
aI2
aI2
aI2
aI6
aI4
aI2
aI1
aI3
aI2
aI2
aI2
aI2
aI2
aI2
aI2
aI2
aI4
aI4
aI2
aI2
aI2
aI2
aI2
aI2
aI2
aI2
aI4
aI2
aI2
aI2
aI2
aI2
aI2
aI1
aI3
aI2
aI2
aI2
aI2
aI2
aI2
aI2
aI2
aI2
aI2
aI2
aI2
aI2
aI2
aI2
aI2
aI1
aI1
aI1
aI1
aI1
aI1
aI2
aI2
aI2
aI4
aI2
aI2
aI4
aI2
aI2
aI1
aI3
aI2
aI2
aI2
aI2
aI2
aI2
aI4
aI2
aI2
aI4
aI2
aI2
aI1
aI3
aI2
aI2
aI2
aI2
aI1
aI3
aI2
aI2
aI2
aI2
aI2
aI2
aI1
aI3
aI2
aI2
aI2
aI2
aI2
aI2
aI1
aI3
aI2
aI2
aI2
aI2
aI2
aI2
aI2
aI2
aI2
aI2
aI4
aI2
aI2
aI2
aI2
aI2
aI2
aI2
aI2
aI4
aI2
aI2
aI1
aI3
aI2
aI2
aI2
aI2
aI2
aI2
aI2
aI2
aI2
aI2
aI4
aI2
aI2
aI1
aI3
aI2
aI1
aI3
aI2
aI1
aI3
aI2
aI2
aI2
aI2
aI2
aI2
aI1
aI3
aI2
aI2
aI2
aI2
aI2
aI2
aI1
aI3
aI2
aI2
aI2
aI2
aI2
aI2
aI2
aI2
aI2
aI2
aI2
aI2
aI2
aI2
aI2
aI2
aI2
aI3
aI3
aI6
aI11
aI5
aI11
aI9
aI4
aI4
aI15
aI1
aa(lp68
I2
aI1
aI2
aI3
aI2
aI2
aI1
aI2
aI1
aI2
aI2
aI2
aI1
aI2
aI1
aI2
aI1
aI2
aI4
aI2
aI2
aI1
aI2
aI1
aI2
aI2
aI2
aI1
aI2
aI1
aI2
aI1
aI2
aI3
aI2
aI2
aI1
aI2
aI1
aI2
aI2
aI2
aI1
aI2
aI1
aI2
aI1
aI2
aI4
aI2
aI2
aI1
aI2
aI1
aI2
aI2
aI2
aI1
aI2
aI1
aa(lp69
I6
aI6
aI4
aI4
aI4
aI4
aI4
aI4
aI2
aI10
aI12
aI2
aI2
aI4
aI2
aI6
aI4
aI4
aI2
aI6
aI4
aI4
aI2
aI10
aI12
aI2
aI2
aI4
aI2
aI4
aI6
aI8
aI4
aI4
aI4
aI2
aI4
aI6
aI8
aI4
aI4
aI4
aI2
aI6
aI4
aI4
aI4
aI4
aI2
aI10
aI12
aI4
aI4
aI2
aI2
aI6
aI6
aI2
aI2
aI4
aI4
aI4
aI4
aI4
aI4
aI4
aI2
aI14
aI2
aI2
aI6
aI6
aI2
aI2
aI4
aI4
aI6
aI2
aI8
aI2
aI2
aI4
aI4
aI8
aI2
aI2
aI6
aI6
aI2
aI2
aI4
aI4
aI4
aI4
aI4
aI4
aI4
aI2
aI10
aI4
aI2
aI2
aI6
aI6
aI2
aI2
aI4
aI4
aI6
aI2
aI8
aI8
aI4
aI4
aI4
aI2
aI2
aI4
aI2
aI6
aI2
aI2
aI4
aI2
aI6
aI4
aI4
aI2
aI10
aI12
aI2
aI2
aI4
aI2
aI4
aI6
aI4
aI2
aI4
aI6
aI4
aI2
aI10
aI12
aI2
aI2
aI4
aI2
aI4
aI6
aI8
aI8
aI4
aI2
aI4
aI6
aI8
aI6
aI1
aI1
aI4
aI4
aI4
aI4
aI4
aI2
aI4
aI6
aI8
aI8
aI4
aI4
aI4
aI2
aI2
aI6
aI6
aI2
aI2
aI4
aI4
aI4
aI4
aI4
aI4
aI4
aI2
aI14
aI2
aI2
aI6
aI6
aI2
aI2
aI4
aI4
aI6
aI2
aI8
aI2
aI2
aI4
aI4
aI8
aI2
aI2
aI6
aI6
aI2
aI2
aI4
aI4
aI4
aI4
aI4
aI4
aI6
aI1
aI1
aI8
aI4
aI2
aI2
aI6
aI6
aI2
aI2
aI4
aI4
aI6
aI2
aI8
aI8
aI4
aI4
aI4
aI2
aI2
aI6
aI6
aI2
aI2
aI4
aI4
aI4
aI4
aI4
aI4
aI6
aI1
aI1
aI8
aI4
aI2
aI2
aI6
aI6
aI2
aI2
aI4
aI4
aI6
aI2
aI8
aI8
aI4
aI4
aI4
aI2
aI2
aI6
aI6
aI2
aI2
aI4
aI4
aI4
aI4
aI4
aI4
aI6
aI1
aI1
aI8
aI4
aI2
aI2
aI6
aI6
aI2
aI2
aI4
aI4
aI6
aI2
aI8
aI8
aI4
aI4
aI4
aI2
aI2
aI6
aI6
aI2
aI2
aI6
aI6
aI4
aI8
aI8
aI4
aI4
aI4
aI2
aI2
aI6
aI6
aI2
aI2
aI4
aI4
aI6
aI2
aI15
aI1
aI2
aI2
aI2
aI10
aI8
aI8
aI15
aI1
aa(lp70
I14
aI1
aI1
aI6
aI6
aI4
aI6
aI8
aI1
aI1
aI6
aI6
aI4
aI6
aI8
aI1
aI1
aI13
aI1
aI2
aI6
aI8
aI1
aI1
aI6
aI10
aI14
aI1
aI1
aI6
aI6
aI4
aI6
aI8
aI1
aI1
aI6
aI6
aI4
aI6
aI8
aI1
aI1
aI6
aI6
aI4
aI6
aI6
aI4
aI6
aI6
aI4
aI6
aI8
aI1
aI1
aI6
aI6
aI4
aI6
aI8
aI1
aI1
aI6
aI6
aI4
aI6
aI8
aI1
aI1
aI6
aI8
aI2
aI6
aI2
aI6
aI1
aI1
aI6
aI6
aI4
aI4
aI4
aI6
aI1
aI1
aI6
aI6
aI4
aI6
aI8
aI1
aI1
aI6
aI8
aI2
aI6
aI8
aI1
aI1
aI6
aI8
aI2
aI6
aI8
aI1
aI1
aI6
aI8
aI2
aI6
aI2
aI6
aI1
aI1
aI6
aI8
aI2
aI6
aI8
aI1
aI1
aI6
aI8
aI2
aI6
aI8
aI1
aI1
aI6
aI8
aI2
aI6
aI8
aI2
aI6
aI10
aI14
aI1
aI1
aI6
aI6
aI4
aI6
aI8
aI2
aI15
aI1
aI1
aI6
aI6
aI4
aI6
aI10
aI1
aI1
aI1
aI1
aI1
aI2
aI1
aI8
aI15
aI1
aa(lp71
I4
aI2
aI2
aI2
aI2
aI2
aI2
aI8
aI4
aI2
aI2
aI4
aI2
aI2
aI2
aI2
aI2
aI2
aI11
aI1
aI4
aI4
aI2
aI2
aI2
aI2
aI2
aI2
aI8
aI2
aI2
aI2
aI2
aI4
aI2
aI2
aI2
aI2
aI2
aI1
aI1
aI11
aI1
aI2
aI2
aI4
aI2
aI2
aI4
aI2
aI2
aI4
aI2
aI2
aI4
aI2
aI2
aI4
aI2
aI2
aI2
aI2
aI2
aI2
aI12
aI2
aI2
aI4
aI2
aI2
aI4
aI2
aI2
aI4
aI2
aI2
aI4
aI2
aI2
aI4
aI2
aI2
aI2
aI2
aI2
aI1
aI1
aI8
aI4
aI4
aI4
aI2
aI2
aI2
aI2
aI2
aI2
aI8
aI2
aI2
aI2
aI2
aI4
aI2
aI2
aI2
aI2
aI2
aI2
aI11
aI1
aI4
aI4
aI2
aI2
aI2
aI2
aI2
aI2
aI4
aI2
aI2
aI2
aI2
aI2
aI2
aI4
aI2
aI2
aI2
aI2
aI2
aI1
aI1
aI8
aI2
aI2
aI2
aI2
aI4
aI2
aI2
aI4
aI2
aI2
aI4
aI2
aI2
aI4
aI2
aI2
aI4
aI2
aI2
aI2
aI2
aI2
aI2
aI11
aI1
aI2
aI2
aI4
aI2
aI2
aI4
aI2
aI2
aI4
aI2
aI2
aI4
aI2
aI2
aI4
aI2
aI2
aI2
aI2
aI2
aI1
aI1
aI8
aI4
aI4
aI4
aI2
aI2
aI2
aI2
aI2
aI1
aI1
aI6
aI2
aI2
aI2
aI2
aI1
aI1
aI6
aI2
aI4
aI2
aI2
aI16
aI15
aI1
aatb.