cnumpy.core.multiarray
_reconstruct
p1
(cnumpy
ndarray
p2
(I0
tS'b'
tRp3
(I1
(I41
tcnumpy
dtype
p4
(S'O8'
I0
I1
tRp5
(I3
S'|'
NNNI-1
I-1
I63
tbI00
(lp6
(lp7
I8
aI2
aI2
aI2
aI2
aI8
aI2
aI2
aI2
aI2
aI8
aI2
aI2
aI2
aI2
aI2
aI2
aI4
aI6
aI2
aI8
aI2
aI2
aI2
aI2
aI8
aI4
aI2
aI2
aI8
aI2
aI2
aI2
aI2
aI8
aI2
aI2
aI2
aI2
aI8
aI2
aI2
aI2
aI2
aI2
aI2
aI4
aI6
aI2
aI8
aI2
aI2
aI2
aI2
aI8
aI4
aI2
aI2
aI8
aI2
aI2
aI2
aI2
aI8
aI4
aI4
aI8
aI12
aI4
aI4
aI4
aI8
aI2
aI2
aI2
aI2
aI6
aI6
aI4
aI8
aI2
aI2
aI2
aI2
aI6
aI6
aI4
aI7
aI2
aI2
aI2
aI2
aI6
aI6
aI4
aI8
aI2
aI2
aI2
aI2
aI8
aI4
aI4
aI8
aI2
aI2
aI2
aI2
aI6
aI6
aI4
aI8
aI2
aI2
aI2
aI2
aI6
aI6
aI4
aI7
aI2
aI2
aI2
aI2
aI6
aI6
aI4
aI15
aI9
aI2
aI2
aI2
aI2
aI8
aI2
aI2
aI2
aI2
aI8
aI2
aI2
aI2
aI2
aI2
aI2
aI4
aI6
aI2
aI15
aI9
aI2
aI2
aI2
aI2
aI8
aI4
aI2
aI2
aI8
aI2
aI2
aI2
aI2
aI7
aI9
aI7
aI2
aI2
aI3
aI2
aI2
aI2
aI6
aI2
aI2
aI2
aI2
aI2
aI2
aI2
aI2
aI2
aI2
aI4
aI4
aI2
aI2
aI2
aI2
aI2
aI2
aI8
aI2
aI2
aI2
aI2
aI3
aI4
aI4
aI4
aI2
aI2
aI2
aI4
aI4
aI7
aI2
aI2
aI3
aI2
aI2
aI2
aI6
aI2
aI2
aI2
aI2
aI2
aI2
aI2
aI2
aI2
aI2
aI4
aI4
aI2
aI2
aI2
aI2
aI2
aI2
aI8
aI2
aI2
aI2
aI2
aI3
aI4
aI4
aI4
aI15
aI5
aI4
aI4
aI4
aI8
aI2
aI2
aI2
aI2
aI6
aI6
aI4
aI8
aI2
aI2
aI2
aI2
aI6
aI6
aI4
aI7
aI2
aI2
aI2
aI2
aI6
aI6
aI4
aI7
aI2
aI2
aI2
aI2
aI6
aI6
aI4
aI8
aI2
aI2
aI2
aI2
aI6
aI6
aI4
aI7
aI2
aI2
aI2
aI2
aI4
aI1
aI6
aI4
aI7
aI8
aI15
aI9
aI2
aI2
aI2
aI2
aI8
aI2
aI2
aI2
aI2
aI8
aI2
aI2
aI2
aI2
aI2
aI2
aI4
aI6
aI2
aI8
aI2
aI2
aI2
aI2
aI8
aI4
aI2
aI2
aI8
aI2
aI2
aI2
aI2
aI8
aI2
aI2
aI2
aI2
aI15
aa(lp8
I1
aI2
aI1
aI2
aI2
aI1
aI4
aI3
aI1
aI2
aI1
aI2
aI2
aI1
aI4
aI4
aI2
aI1
aI2
aI2
aI1
aI2
aI2
aI2
aI2
aI4
aI4
aI4
aI1
aI1
aI1
aI1
aI2
aI1
aI2
aI2
aI1
aI4
aI3
aI1
aI2
aI1
aI2
aI2
aI1
aI4
aI3
aI1
aI2
aI1
aI2
aI2
aI1
aI4
aI2
aI1
aI1
aI4
aI1
aI1
aI1
aI1
aI4
aI1
aI1
aI1
aI1
aI2
aI1
aI2
aI2
aI1
aI4
aI3
aI1
aI2
aI1
aI2
aI2
aI1
aI4
aI4
aI2
aI1
aI1
aI1
aI2
aI1
aI2
aI2
aI2
aI2
aI4
aI1
aI1
aI1
aI1
aI4
aI1
aI1
aI1
aI1
aI2
aI1
aI2
aI2
aI1
aI4
aI3
aI1
aI2
aI1
aI2
aI2
aI1
aI4
aI3
aI1
aI2
aI1
aI2
aI2
aI1
aI4
aI2
aI1
aI1
aI2
aI2
aI2
aI2
aI4
aI4
aI4
aI2
aI1
aI8
aI1
aI2
aI1
aI2
aI1
aI6
aI4
aI4
aI2
aI1
aI5
aI2
aI2
aI6
aI10
aI4
aI2
aI1
aI8
aI1
aI2
aI1
aI2
aI1
aI6
aI3
aI1
aI2
aI1
aI5
aI3
aI1
aI2
aI1
aI1
aI8
aI4
aI2
aI1
aI1
aI1
aI1
aI2
aI1
aI9
aI1
aI2
aI1
aI2
aI1
aI6
aI2
aI1
aI1
aI1
aI1
aI2
aI1
aI2
aI4
aI2
aI2
aI4
aI4
aI4
aI1
aI1
aI1
aI1
aI2
aI1
aI2
aI2
aI1
aI4
aI3
aI1
aI2
aI1
aI2
aI2
aI1
aI4
aI4
aI2
aI1
aI2
aI2
aI1
aI2
aI2
aI2
aI2
aI4
aI4
aI4
aI1
aI1
aI1
aI1
aI2
aI1
aI2
aI2
aI1
aI4
aI3
aI1
aI2
aI1
aI2
aI2
aI1
aI4
aI3
aI1
aI2
aI1
aI2
aI2
aI1
aI4
aI2
aI1
aI1
aI2
aI2
aI2
aI2
aI4
aI4
aI1
aI1
aI1
aI3
aI1
aI2
aI2
aI5
aI1
aI1
aI1
aI3
aI1
aI2
aI2
aI5
aI1
aI1
aI1
aI3
aI1
aI2
aI2
aI3
aI1
aI3
aI1
aI2
aI2
aI5
aI4
aI1
aI1
aI1
aI3
aI1
aI2
aI2
aI5
aI1
aI1
aI1
aI3
aI1
aI2
aI2
aI5
aI1
aI1
aI1
aI3
aI1
aI2
aI2
aI3
aI1
aI3
aI1
aI2
aI2
aI5
aI8
aI2
aI1
aI8
aI1
aI2
aI1
aI2
aI1
aI6
aI8
aI2
aI1
aI5
aI2
aI2
aI11
aI9
aI2
aI1
aI8
aI1
aI2
aI1
aI2
aI1
aI6
aI3
aI1
aI2
aI1
aI5
aI3
aI1
aI2
aI1
aI1
aI8
aI4
aI2
aI1
aI1
aI1
aI1
aI2
aI1
aI9
aI1
aI2
aI1
aI2
aI1
aI6
aI2
aI1
aI1
aI2
aI1
aI2
aI1
aI2
aI4
aI2
aI2
aI4
aI4
aI4
aI1
aI1
aI1
aI1
aI2
aI1
aI2
aI2
aI1
aI4
aI3
aI1
aI2
aI1
aI2
aI2
aI1
aI4
aI4
aI2
aI1
aI1
aI1
aI2
aI1
aI2
aI2
aI2
aI2
aI4
aI4
aI4
aI1
aI1
aI1
aI1
aI2
aI1
aI2
aI2
aI1
aI4
aI3
aI1
aI2
aI1
aI2
aI2
aI1
aI4
aI3
aI1
aI2
aI1
aI2
aI2
aI1
aI4
aI2
aI1
aI1
aI4
aI1
aI1
aI1
aI1
aI4
aI1
aI1
aI1
aI1
aI2
aI1
aI2
aI2
aI1
aI4
aI3
aI1
aI2
aI1
aI2
aI2
aI1
aI4
aI4
aI2
aI1
aI2
aI2
aI1
aI2
aI2
aI2
aI2
aI4
aI1
aI1
aI1
aI1
aI4
aI1
aI1
aI1
aI1
aI2
aI1
aI2
aI2
aI1
aI4
aI3
aI1
aI2
aI1
aI2
aI2
aI1
aI4
aI3
aI1
aI2
aI1
aI2
aI2
aI1
aI4
aI2
aI1
aI1
aI3
aI3
aI1
aI9
aa(lp9
I14
aI1
aI1
aI1
aI1
aI1
aI2
aI2
aI4
aI1
aI1
aI1
aI1
aI1
aI1
aI2
aI2
aI4
aI1
aI1
aI1
aI1
aI2
aI2
aI2
aI1
aI2
aI2
aI2
aI3
aI2
aI2
aI4
aI1
aI1
aI1
aI2
aI2
aI2
aI2
aI4
aI2
aI1
aI1
aI2
aI2
aI2
aI2
aI4
aI2
aI1
aI1
aI2
aI2
aI2
aI2
aI4
aI2
aI1
aI1
aI2
aI2
aI2
aI2
aI4
aI1
aI1
aI1
aI2
aI2
aI2
aI2
aI4
aI2
aI1
aI1
aI2
aI2
aI2
aI2
aI4
aI2
aI1
aI1
aI2
aI2
aI2
aI2
aI2
aI2
aI2
aI2
aI3
aI2
aI2
aI4
aI1
aI1
aI1
aI2
aI2
aI2
aI2
aI4
aI1
aI1
aI1
aI2
aI2
aI2
aI2
aI4
aI2
aI1
aI1
aI1
aI2
aI2
aI2
aI2
aI2
aI2
aI2
aI4
aI2
aI2
aI4
aI2
aI2
aI1
aI1
aI1
aI2
aI2
aI8
aI1
aI2
aI2
aI2
aI6
aI2
aI1
aI2
aI2
aI2
aI6
aI2
aI2
aI2
aI2
aI2
aI2
aI2
aI2
aI2
aI2
aI2
aI2
aI2
aI6
aI1
aI1
aI4
aI2
aI6
aI2
aI1
aI1
aI2
aI1
aI1
aI2
aI1
aI1
aI2
aI4
aI4
aI2
aI4
aI2
aI2
aI2
aI1
aI1
aI2
aI2
aI2
aI2
aI4
aI2
aI1
aI1
aI2
aI2
aI2
aI2
aI4
aI2
aI1
aI1
aI2
aI2
aI2
aI2
aI2
aI2
aI2
aI2
aI3
aI2
aI2
aI3
aI2
aI2
aI1
aI2
aI2
aI2
aI4
aI2
aI1
aI1
aI2
aI2
aI2
aI2
aI4
aI2
aI1
aI1
aI2
aI2
aI2
aI2
aI2
aI2
aI2
aI2
aI4
aI2
aI2
aI4
aI2
aI2
aI2
aI2
aI2
aI2
aI6
aI2
aI1
aI2
aI2
aI2
aI6
aI2
aI1
aI2
aI2
aI2
aI6
aI2
aI2
aI2
aI2
aI2
aI2
aI2
aI2
aI2
aI2
aI2
aI2
aI2
aI6
aI2
aI2
aI2
aI2
aI2
aI6
aI1
aI1
aI4
aI2
aI4
aI2
aI2
aI4
aI2
aI4
aI2
aI2
aI2
aI1
aI1
aI2
aI2
aI2
aI2
aI4
aI2
aI1
aI1
aI2
aI2
aI2
aI2
aI4
aI2
aI1
aI1
aI2
aI2
aI2
aI2
aI2
aI2
aI2
aI2
aI3
aI2
aI2
aI4
aI1
aI1
aI1
aI2
aI2
aI2
aI2
aI2
aI2
aI2
aI1
aI1
aI2
aI2
aI2
aI2
aI4
aI2
aI1
aI1
aI2
aI2
aI2
aI2
aI2
aI2
aI2
aI2
aI4
aI2
aI2
aI7
aa(lp10
I12
aI5
aI1
aI1
aI1
aI1
aI1
aI1
aI1
aI1
aI4
aI1
aI1
aI1
aI1
aI1
aI1
aI1
aI1
aI1
aI4
aI1
aI1
aI1
aI1
aI1
aI1
aI1
aI1
aI1
aI4
aI1
aI1
aI1
aI1
aI1
aI1
aI4
aI4
aI1
aI1
aI1
aI1
aI1
aI1
aI1
aI1
aI1
aI4
aI1
aI1
aI1
aI1
aI1
aI1
aI1
aI1
aI1
aI4
aI1
aI1
aI1
aI1
aI1
aI1
aI1
aI1
aI1
aI2
aI3
aI1
aI1
aI2
aI2
aI8
aI1
aI1
aI1
aI1
aI1
aI1
aI1
aI1
aI1
aI4
aI1
aI1
aI1
aI1
aI1
aI1
aI1
aI1
aI1
aI4
aI1
aI1
aI1
aI1
aI1
aI1
aI1
aI1
aI1
aI4
aI1
aI1
aI1
aI1
aI1
aI1
aI4
aI4
aI1
aI1
aI1
aI1
aI1
aI1
aI1
aI1
aI1
aI4
aI1
aI1
aI1
aI1
aI1
aI1
aI1
aI1
aI1
aI4
aI1
aI1
aI1
aI1
aI1
aI1
aI1
aI1
aI1
aI2
aI2
aI1
aI1
aI1
aI2
aI2
aI8
aI4
aI1
aI1
aI1
aI4
aI4
aI15
aI1
aI4
aI1
aI1
aI1
aI4
aI2
aI2
aI4
aI1
aI1
aI1
aI4
aI1
aI2
aI1
aI1
aI1
aI4
aI1
aI1
aI1
aI1
aI1
aI1
aI2
aI2
aI2
aI2
aI6
aI2
aI4
aI1
aI1
aI1
aI4
aI1
aI1
aI1
aI6
aI2
aI7
aI1
aI1
aI1
aI1
aI1
aI1
aI1
aI1
aI1
aI4
aI1
aI1
aI1
aI1
aI1
aI1
aI1
aI1
aI1
aI4
aI1
aI1
aI1
aI1
aI1
aI1
aI1
aI1
aI1
aI4
aI1
aI1
aI1
aI1
aI1
aI1
aI3
aI5
aI1
aI1
aI1
aI1
aI1
aI1
aI1
aI1
aI1
aI1
aI1
aI1
aI1
aI1
aI1
aI1
aI2
aI1
aI1
aI4
aI1
aI1
aI1
aI1
aI1
aI1
aI1
aI1
aI1
aI2
aI1
aI1
aI1
aI1
aI1
aI2
aI2
aI8
aI1
aI1
aI1
aI1
aI1
aI1
aI1
aI1
aI1
aI1
aI1
aI1
aI1
aI1
aI1
aI1
aI1
aI1
aI1
aI1
aI1
aI1
aI1
aI1
aI1
aI1
aI1
aI1
aI1
aI1
aI1
aI1
aI1
aI1
aI1
aI1
aI1
aI1
aI1
aI1
aI1
aI1
aI1
aI1
aI1
aI1
aI1
aI1
aI15
aI1
aa(lp11
I8
aI3
aI3
aI2
aI8
aI3
aI2
aI3
aI8
aI3
aI3
aI2
aI8
aI3
aI3
aI2
aI7
aI6
aI2
aI7
aI2
aI2
aI2
aI3
aI10
aI2
aI2
aI17
aI6
aI3
aI3
aI2
aI8
aI3
aI3
aI2
aI8
aI3
aI3
aI3
aI6
aI3
aI3
aI2
aI8
aI3
aI3
aI2
aI8
aI3
aI3
aI3
aI10
aI2
aI2
aI4
aI2
aI2
aI2
aI2
aI2
aI2
aI2
aI2
aI2
aI2
aI1
aI1
aI1
aI1
aI1
aI1
aI2
aI2
aI2
aI2
aI1
aI1
aI1
aI1
aI1
aI1
aI2
aI2
aI2
aI2
aI2
aI2
aI1
aI1
aI1
aI15
aI1
aI8
aI3
aI3
aI2
aI8
aI3
aI3
aI2
aI8
aI3
aI3
aI2
aI8
aI3
aI3
aI2
aI8
aI3
aI3
aI2
aI8
aI3
aI3
aI3
aI9
aI3
aI2
aI32
aa(lp12
I2
aI2
aI2
aI2
aI2
aI2
aI2
aI2
aI2
aI2
aI2
aI2
aI2
aI2
aI2
aI2
aI2
aI2
aI2
aI2
aI2
aI2
aI2
aI2
aI2
aI2
aI2
aI2
aI4
aI2
aI2
aI8
aI2
aI2
aI2
aI2
aI12
aI2
aI2
aI8
aI2
aI2
aI2
aI2
aI8
aI4
aI2
aI2
aI7
aI2
aI2
aI2
aI2
aI12
aI2
aI2
aI8
aI2
aI2
aI2
aI2
aI7
aI2
aI2
aI2
aI2
aI8
aI4
aI2
aI2
aI8
aI4
aI2
aI2
aI8
aI2
aI4
aI2
aI6
aI2
aI2
aI2
aI2
aI2
aI4
aI2
aI2
aI4
aI2
aI2
aI4
aI2
aI2
aI4
aI4
aI2
aI2
aI2
aI2
aI2
aI2
aI2
aI2
aI2
aI2
aI2
aI2
aI2
aI2
aI2
aI2
aI2
aI2
aI2
aI2
aI2
aI2
aI2
aI3
aI13
aI1
aa(lp13
I1
aI5
aI2
aI6
aI2
aI6
aI2
aI2
aI1
aI2
aI2
aI7
aI2
aI2
aI2
aI2
aI6
aI2
aI4
aI2
aI2
aI6
aI2
aI6
aI2
aI6
aI2
aI1
aI1
aI1
aI1
aI1
aI1
aI7
aI2
aI2
aI2
aI2
aI6
aI2
aI4
aI4
aI8
aI2
aI2
aI3
aI1
aI8
aI8
aI8
aI2
aI2
aI3
aI1
aI8
aI8
aI8
aI8
aI8
aI4
aI4
aI5
aI2
aI6
aI2
aI6
aI2
aI2
aI1
aI2
aI2
aI7
aI2
aI2
aI2
aI2
aI6
aI2
aI4
aI2
aI2
aI6
aI2
aI6
aI2
aI6
aI10
aI7
aI2
aI2
aI2
aI2
aI8
aI2
aI2
aI2
aI2
aI3
aI2
aI2
aI2
aI2
aI2
aI2
aI14
aI1
aa(lp14
I2
aI2
aI2
aI2
aI2
aI2
aI2
aI2
aI2
aI2
aI2
aI2
aI2
aI2
aI3
aI1
aI2
aI2
aI2
aI2
aI2
aI2
aI2
aI2
aI1
aI2
aI2
aI2
aI2
aI2
aI2
aI2
aI2
aI2
aI2
aI2
aI2
aI2
aI2
aI2
aI2
aI2
aI2
aI2
aI2
aI2
aI2
aI2
aI2
aI2
aI2
aI2
aI2
aI2
aI2
aI2
aI2
aI2
aI2
aI2
aI2
aI2
aI2
aI2
aI2
aI1
aI2
aI1
aI2
aI1
aI2
aI2
aI2
aI2
aI2
aI2
aI2
aI2
aI2
aI2
aI2
aI2
aI2
aI2
aI2
aI2
aI2
aI2
aI2
aI2
aI2
aI2
aI2
aI2
aI2
aI2
aI2
aI2
aI2
aI2
aI2
aI2
aI2
aI2
aI2
aI2
aI2
aI2
aI2
aI2
aI2
aI2
aI2
aI2
aI2
aI2
aI2
aI2
aI2
aI1
aI1
aI2
aI2
aI2
aI2
aI2
aI2
aI2
aI2
aI2
aI2
aI2
aI2
aI4
aI2
aI2
aI2
aI2
aI2
aI2
aI2
aI2
aI2
aI2
aI2
aI2
aI2
aI2
aI2
aI2
aI2
aI2
aI2
aI2
aI2
aI2
aI2
aI2
aI2
aI2
aI2
aI2
aI2
aI2
aI2
aI2
aI2
aI2
aI2
aI2
aI2
aI2
aI2
aI2
aI2
aI2
aI2
aI2
aI2
aI2
aI2
aI2
aI2
aI2
aI15
aI1
aa(lp15
I2
aI2
aI2
aI2
aI6
aI2
aI2
aI2
aI2
aI2
aI4
aI4
aI2
aI2
aI2
aI2
aI4
aI2
aI3
aI4
aI3
aI2
aI4
aI2
aI2
aI2
aI2
aI4
aI2
aI2
aI2
aI2
aI2
aI2
aI6
aI2
aI2
aI2
aI4
aI2
aI2
aI4
aI2
aI2
aI2
aI2
aI6
aI2
aI2
aI2
aI2
aI2
aI4
aI4
aI2
aI2
aI2
aI2
aI4
aI2
aI3
aI2
aI2
aI2
aI4
aI4
aI2
aI2
aI2
aI2
aI6
aI2
aI2
aI2
aI2
aI3
aI2
aI2
aI4
aI2
aI4
aI2
aI2
aI4
aI8
aI8
aI2
aI2
aI2
aI2
aI6
aI2
aI15
aI1
aI2
aI2
aI2
aI2
aI6
aI2
aI15
aI1
aI1
aI1
aI2
aI2
aI2
aI6
aI2
aI2
aI2
aI2
aI3
aI2
aI4
aI2
aI2
aI2
aI2
aI4
aI2
aI3
aI2
aI2
aI2
aI4
aI2
aI2
aI2
aI2
aI2
aI2
aI6
aI2
aI2
aI2
aI2
aI3
aI4
aI4
aI2
aI4
aI2
aI2
aI5
aI2
aI2
aI2
aI16
aI8
aa(lp16
I5
aI1
aI1
aI1
aI5
aI1
aI1
aI1
aI1
aI1
aI1
aI1
aI6
aI2
aI2
aI2
aI4
aI5
aI2
aI2
aI2
aI8
aI6
aI2
aI4
aI1
aI1
aI1
aI5
aI1
aI1
aI1
aI1
aI1
aI1
aI1
aI6
aI2
aI2
aI2
aI4
aI5
aI2
aI2
aI2
aI1
aI1
aI6
aI6
aI3
aI1
aI2
aI1
aI1
aI1
aI1
aI6
aI3
aI1
aI2
aI1
aI1
aI1
aI1
aI1
aI4
aI2
aI2
aI2
aI2
aI2
aI6
aI2
aI8
aI6
aI2
aI3
aI1
aI1
aI1
aI1
aI4
aI1
aI1
aI1
aI1
aI1
aI1
aI1
aI1
aI6
aI2
aI2
aI2
aI4
aI6
aI2
aI2
aI2
aI1
aI1
aI1
aI1
aI12
aI1
aI1
aI1
aI1
aI12
aI1
aI1
aI1
aI1
aI12
aI15
aI1
aa(lp17
I2
aI2
aI2
aI2
aI2
aI2
aI2
aI2
aI2
aI2
aI2
aI2
aI2
aI2
aI2
aI2
aI2
aI2
aI2
aI2
aI6
aI2
aI4
aI4
aI4
aI5
aI6
aI2
aI2
aI2
aI2
aI11
aI5
aI2
aI2
aI2
aI3
aI4
aI2
aI3
aI4
aI6
aI2
aI1
aI2
aI2
aI2
aI1
aI2
aI2
aI2
aI11
aI5
aI2
aI2
aI2
aI2
aI6
aI2
aI4
aI4
aI4
aI4
aI2
aI2
aI4
aI2
aI2
aI2
aI2
aI2
aI2
aI2
aI2
aI2
aI2
aI2
aI2
aI15
aI1
aI2
aI2
aI2
aI2
aI6
aI2
aI4
aI4
aI4
aI4
aI2
aI2
aI2
aI2
aI2
aI2
aI2
aI2
aI2
aI2
aI2
aI2
aI2
aI2
aI2
aI2
aI6
aI2
aI2
aI2
aI2
aI2
aI15
aI1
aI2
aI2
aI2
aI2
aI2
aI2
aI2
aI2
aI2
aI2
aI2
aI2
aI2
aI2
aI2
aI2
aI15
aI1
aa(lp18
I4
aI4
aI6
aI2
aI2
aI2
aI3
aI1
aI8
aI4
aI4
aI6
aI2
aI2
aI2
aI3
aI1
aI4
aI2
aI2
aI2
aI2
aI2
aI2
aI2
aI2
aI2
aI2
aI2
aI2
aI4
aI2
aI2
aI2
aI2
aI2
aI2
aI2
aI2
aI2
aI2
aI2
aI2
aI2
aI2
aI3
aI1
aI4
aI2
aI2
aI4
aI4
aI5
aI2
aI2
aI2
aI3
aI1
aI8
aI4
aI4
aI5
aI2
aI2
aI2
aI3
aI1
aI4
aI2
aI2
aI2
aI2
aI2
aI2
aI2
aI2
aI2
aI2
aI2
aI2
aI4
aI2
aI2
aI2
aI2
aI2
aI2
aI2
aI2
aI2
aI2
aI2
aI2
aI2
aI2
aI3
aI1
aI4
aI4
aI4
aI2
aI2
aI2
aI2
aI2
aI2
aI4
aI2
aI2
aI2
aI2
aI2
aI2
aI2
aI2
aI2
aI2
aI2
aI2
aI2
aI2
aI2
aI2
aI2
aI2
aI2
aI2
aI2
aI2
aI2
aI2
aI2
aI2
aI2
aI2
aI2
aI2
aI4
aI4
aI4
aI4
aI4
aI4
aI4
aI4
aI15
aI1
aI4
aI4
aI6
aI2
aI2
aI2
aI3
aI1
aI8
aI4
aI4
aI6
aI2
aI2
aI2
aI3
aI1
aI4
aI2
aI2
aI2
aI2
aI2
aI2
aI2
aI2
aI2
aI2
aI2
aI2
aI4
aI2
aI2
aI2
aI2
aI2
aI2
aI2
aI2
aI2
aI2
aI2
aI2
aI2
aI2
aI3
aI1
aI8
aa(lp19
I4
aI3
aI1
aI2
aI2
aI2
aI2
aI4
aI3
aI1
aI2
aI2
aI1
aI1
aI1
aI1
aI4
aI3
aI1
aI2
aI2
aI2
aI2
aI5
aI2
aI4
aI4
aI1
aI2
aI2
aI2
aI8
aI7
aI1
aI6
aI1
aI1
aI4
aI3
aI1
aI2
aI2
aI2
aI2
aI6
aI2
aI2
aI2
aI2
aI2
aI4
aI3
aI1
aI2
aI2
aI2
aI2
aI4
aI3
aI1
aI2
aI2
aI1
aI1
aI1
aI1
aI4
aI3
aI1
aI2
aI2
aI2
aI2
aI5
aI2
aI4
aI4
aI4
aI2
aI2
aI8
aI8
aI2
aI2
aI2
aI2
aI2
aI2
aI1
aI1
aI1
aI1
aI6
aI2
aI8
aI8
aI4
aI3
aI1
aI2
aI2
aI2
aI2
aI1
aI2
aI3
aI1
aI2
aI2
aI2
aI2
aI1
aI2
aI3
aI1
aI4
aI1
aI1
aI1
aI1
aI16
aI4
aI3
aI1
aI2
aI2
aI2
aI2
aI4
aI3
aI1
aI2
aI2
aI2
aI2
aI2
aI2
aI2
aI2
aI2
aI2
aI2
aI2
aI15
aI1
aI4
aI3
aI1
aI2
aI2
aI2
aI2
aI14
aI1
aI1
aI2
aI3
aI2
aI3
aI4
aI1
aI7
aI9
aI2
aI1
aI2
aI2
aI2
aI1
aI3
aI1
aI15
aI1
aI3
aI1
aI3
aI2
aI3
aI1
aI3
aI1
aI11
aI5
aI2
aI1
aI2
aI2
aI4
aI3
aI1
aI15
aI1
aI3
aI1
aI3
aI2
aI3
aI1
aI3
aI1
aI11
aI5
aI4
aI3
aI1
aI2
aI2
aI2
aI2
aI4
aI3
aI1
aI2
aI2
aI1
aI1
aI1
aI1
aI4
aI3
aI1
aI2
aI2
aI2
aI2
aI5
aI2
aI4
aI4
aI1
aI2
aI2
aI2
aI8
aI8
aI2
aI2
aI2
aI2
aI2
aI2
aI1
aI1
aI1
aI1
aI6
aI2
aI2
aI2
aI2
aI2
aI2
aI2
aI2
aI2
aI1
aI14
aa(lp20
I8
aI3
aI3
aI2
aI8
aI5
aI1
aI1
aI1
aI16
aI13
aI1
aI2
aI13
aI1
aI1
aI1
aI6
aI2
aI6
aI1
aI1
aI8
aI3
aI3
aI2
aI29
aI1
aI2
aI8
aI3
aI3
aI2
aI8
aI5
aI1
aI1
aI1
aI16
aI13
aI1
aI2
aI13
aI1
aI1
aI1
aI6
aI2
aI6
aI1
aI1
aI6
aI1
aI1
aI6
aI2
aI15
aI1
aI6
aI1
aI1
aI3
aI3
aI1
aI1
aI5
aI1
aI1
aI1
aI5
aI1
aI1
aI1
aI6
aI2
aI7
aI1
aI15
aI1
aI6
aI1
aI1
aI3
aI3
aI1
aI1
aI5
aI1
aI1
aI1
aI5
aI1
aI1
aI1
aI8
aI3
aI3
aI2
aI31
aI1
aI8
aI3
aI3
aI2
aI8
aI5
aI1
aI1
aI1
aI16
aI13
aI1
aI2
aI13
aI1
aI1
aI1
aI6
aI2
aI6
aI1
aI1
aI6
aI2
aI6
aI2
aI15
aI1
aI8
aI3
aI3
aI2
aI8
aI5
aI1
aI1
aI1
aI16
aI13
aI1
aI2
aI13
aI1
aI1
aI1
aI6
aI2
aI6
aI1
aI1
aI8
aI3
aI3
aI2
aI15
aI9
aI4
aI4
aI8
aI3
aI3
aI2
aI6
aI2
aI5
aI1
aI1
aI1
aI16
aI13
aI1
aI2
aI13
aI1
aI1
aI1
aI6
aI2
aI6
aI1
aI1
aI6
aI2
aI6
aI2
aI13
aI1
aI1
aI1
aI6
aI2
aI6
aI2
aI13
aI1
aI1
aI1
aI6
aI2
aI6
aI2
aI13
aI1
aI1
aI1
aI6
aI2
aI6
aI2
aI15
aI1
aI15
aI1
aa(lp21
I6
aI2
aI3
aI3
aI1
aI1
aI6
aI2
aI6
aI2
aI6
aI1
aI1
aI2
aI2
aI3
aI1
aI2
aI14
aI6
aI2
aI3
aI3
aI1
aI1
aI6
aI2
aI8
aI2
aI2
aI2
aI2
aI6
aI2
aI16
aI4
aI2
aI4
aI2
aI3
aI1
aI2
aI14
aI4
aI2
aI4
aI2
aI2
aI2
aI2
aI14
aI4
aI2
aI4
aI2
aI2
aI2
aI4
aI2
aI4
aI2
aI2
aI2
aI4
aI2
aI3
aI2
aI2
aI2
aI2
aI2
aI2
aI10
aI2
aI2
aI2
aI10
aI2
aI2
aI2
aI10
aI6
aI2
aI3
aI3
aI1
aI1
aI6
aI2
aI8
aI2
aI2
aI2
aI2
aI6
aI2
aI16
aI3
aI2
aI6
aI1
aI1
aI1
aI1
aI4
aI2
aI6
aI1
aI1
aI1
aI1
aI4
aI2
aI4
aI2
aI2
aI2
aI6
aI1
aI1
aI8
aI3
aI2
aI6
aI1
aI1
aI1
aI1
aI4
aI2
aI6
aI1
aI1
aI1
aI1
aI4
aI2
aI2
aI8
aI15
aI1
aI2
aI2
aI2
aI2
aI8
aI2
aI2
aI2
aI2
aI8
aI2
aI2
aI4
aI2
aI2
aI2
aI2
aI16
aI2
aI2
aI2
aI2
aI8
aI2
aI2
aI2
aI2
aI8
aI2
aI2
aI2
aI2
aI4
aI4
aI32
aI6
aI2
aI3
aI3
aI1
aI1
aI6
aI2
aI6
aI2
aI6
aI1
aI1
aI2
aI2
aI3
aI1
aI2
aI14
aI6
aI2
aI3
aI3
aI1
aI1
aI6
aI2
aI8
aI2
aI2
aI2
aI2
aI2
aI2
aI2
aI2
aI15
aI1
aI1
aI14
aa(lp22
I4
aI2
aI4
aI2
aI2
aI6
aI4
aI8
aI4
aI2
aI4
aI2
aI2
aI6
aI4
aI7
aI7
aI4
aI2
aI2
aI6
aI4
aI7
aI5
aI2
aI4
aI2
aI2
aI13
aI3
aI2
aI6
aI6
aI8
aI4
aI8
aI6
aI6
aI8
aI4
aI7
aI5
aI2
aI4
aI2
aI2
aI6
aI4
aI7
aI5
aI2
aI4
aI2
aI2
aI6
aI4
aI7
aI5
aI2
aI4
aI2
aI2
aI6
aI4
aI7
aI5
aI2
aI4
aI2
aI2
aI13
aI3
aI2
aI4
aI2
aI6
aI2
aI4
aI4
aI6
aI4
aI4
aI2
aI6
aI2
aI13
aI3
aI2
aI4
aI2
aI6
aI2
aI4
aI4
aI10
aI4
aI2
aI4
aI2
aI11
aI5
aI2
aI2
aI4
aI2
aI4
aI2
aI12
aI2
aI2
aI2
aI2
aI2
aI2
aI2
aI2
aI7
aI5
aI2
aI4
aI2
aI2
aI6
aI4
aI8
aI4
aI2
aI4
aI2
aI2
aI6
aI4
aI7
aI5
aI2
aI4
aI2
aI2
aI6
aI4
aI7
aI5
aI2
aI4
aI2
aI2
aI6
aI4
aI8
aI4
aI2
aI4
aI2
aI11
aI5
aI2
aI2
aI4
aI2
aI6
aI4
aI15
aI3
aI2
aI2
aI4
aI2
aI2
aI6
aI4
aI7
aI5
aI2
aI4
aI2
aI2
aI6
aI2
aI2
aI7
aI5
aI2
aI4
aI2
aI4
aI4
aI4
aI7
aI5
aI2
aI4
aI2
aI2
aI4
aI2
aI2
aI2
aI2
aI2
aI2
aI2
aI7
aI3
aI2
aI2
aI2
aI4
aI2
aI4
aI2
aI6
aI2
aI2
aI2
aI2
aI2
aI2
aI2
aI4
aI2
aI4
aI6
aI2
aI2
aI2
aI2
aI2
aI2
aI2
aI2
aI2
aI2
aI2
aI2
aI2
aI2
aI2
aI2
aI4
aI2
aI4
aI2
aI2
aI6
aI4
aI7
aI5
aI2
aI4
aI2
aI2
aI6
aI2
aI2
aI7
aI5
aI2
aI4
aI2
aI2
aI6
aI4
aI7
aI5
aI2
aI4
aI2
aI2
aI14
aI2
aI2
aI4
aI2
aI6
aI2
aI4
aI4
aI6
aI4
aI4
aI2
aI6
aI2
aI18
aI4
aI2
aI6
aI2
aI6
aI4
aI8
aI4
aI2
aI4
aI2
aI8
aI4
aI4
aI4
aI4
aI2
aI4
aI6
aI8
aI8
aI4
aI2
aI4
aI2
aI2
aI6
aI4
aI7
aI5
aI2
aI4
aI2
aI2
aI6
aI4
aI7
aI5
aI2
aI4
aI2
aI2
aI6
aI4
aI7
aI5
aI2
aI4
aI2
aI4
aI8
aI2
aI4
aI4
aI2
aI2
aI4
aI2
aI4
aI8
aI2
aI2
aI2
aI2
aI6
aI4
aI2
aI4
aI16
aa(lp23
I24
aI2
aI4
aI2
aI4
aI4
aI34
aI14
aI2
aI4
aI2
aI4
aI4
aI34
aI10
aI2
aI2
aI2
aI4
aI2
aI4
aI4
aI14
aI2
aI18
aI10
aI2
aI2
aI2
aI4
aI2
aI4
aI4
aI18
aI2
aI2
aI2
aI4
aI2
aI4
aI4
aI14
aI2
aI18
aI10
aI2
aI2
aI2
aI4
aI2
aI10
aI24
aI2
aI2
aI2
aI4
aI2
aI8
aI2
aI8
aI8
aI16
aI10
aI2
aI2
aI2
aI4
aI2
aI4
aI4
aI18
aI10
aI2
aI2
aI2
aI8
aI2
aI4
aI10
aI2
aI2
aI2
aI2
aI6
aI4
aI3
aI2
aI8
aI2
aI2
aI2
aI12
aI3
aI14
aI2
aI2
aI6
aI10
aI5
aI4
aI4
aI2
aI4
aI2
aI4
aI3
aI8
aI2
aI3
aI2
aI2
aI4
aI2
aI4
aI4
aI8
aI1
aI3
aI2
aI2
aI6
aI2
aI4
aI2
aI10
aI8
aI32
aI14
aI2
aI4
aI2
aI4
aI4
aI26
aI2
aI4
aI2
aI4
aI4
aI18
aI2
aI4
aI2
aI4
aI4
aI18
aI2
aI4
aI2
aI8
aI1
aI1
aI16
aI16
aI10
aI2
aI2
aI2
aI4
aI2
aI4
aI4
aI10
aI2
aI4
aI2
aI16
aI10
aI2
aI2
aI2
aI4
aI2
aI10
aI12
aI2
aI2
aI8
aI8
aI8
aI2
aI2
aI2
aI2
aI4
aI2
aI8
aI2
aI8
aI8
aI8
aI8
aI8
aI1
aI2
aI2
aI2
aI4
aI2
aI4
aI4
aI18
aI10
aI2
aI2
aI2
aI8
aI2
aI3
aI10
aI2
aI2
aI2
aI2
aI6
aI4
aI4
aI2
aI8
aI2
aI2
aI2
aI2
aI6
aI4
aI4
aI10
aI6
aI2
aI6
aI10
aI6
aI4
aI4
aI2
aI4
aI2
aI3
aI4
aI8
aI2
aI3
aI2
aI2
aI2
aI2
aI2
aI2
aI2
aI2
aI2
aI2
aI2
aI2
aI2
aI2
aI2
aI2
aI2
aI2
aI2
aI2
aI2
aI2
aI2
aI2
aI2
aI2
aI6
aI2
aI6
aI2
aI12
aI2
aI2
aI2
aI4
aI4
aI4
aI2
aI6
aI4
aI4
aI8
aI2
aI2
aI2
aI2
aI6
aI2
aI4
aI2
aI8
aI2
aI2
aI2
aI2
aI4
aI2
aI4
aI4
aI10
aI6
aI2
aI6
aI10
aI6
aI6
aI2
aI2
aI4
aI2
aI4
aI4
aI8
aI2
aI2
aI2
aI2
aI2
aI2
aI2
aI2
aI2
aI2
aI2
aI2
aI2
aI2
aI2
aI2
aI2
aI2
aI2
aI2
aI2
aI2
aI2
aI2
aI2
aI2
aI3
aI1
aI6
aI2
aI8
aI32
aI2
aI2
aI2
aI2
aI2
aI2
aI2
aI2
aI2
aI2
aI2
aI2
aI6
aI1
aI1
aI32
aI2
aI2
aI2
aI2
aI2
aI2
aI2
aI2
aI2
aI2
aI2
aI2
aI6
aI1
aI1
aI32
aI2
aI2
aI2
aI2
aI2
aI2
aI2
aI2
aI2
aI2
aI2
aI2
aI2
aI2
aI2
aI2
aI1
aI2
aI2
aI2
aI2
aI2
aI2
aI2
aI2
aI2
aI2
aI2
aI2
aI2
aI2
aI2
aI2
aI2
aI2
aI2
aI2
aI2
aI2
aI2
aI2
aI2
aI2
aI2
aI2
aI2
aI2
aI14
aI4
aI16
aa(lp24
I6
aI10
aI6
aI10
aI4
aI4
aI4
aI4
aI15
aI1
aI8
aI4
aI2
aI2
aI8
aI4
aI2
aI2
aI4
aI8
aI4
aI4
aI11
aI5
aI4
aI8
aI8
aI8
aI4
aI4
aI4
aI4
aI13
aI3
aI8
aI4
aI2
aI2
aI8
aI6
aI2
aI4
aI4
aI6
aI2
aI6
aI2
aI8
aI4
aI4
aI6
aI4
aI14
aI4
aI4
aI2
aI4
aI1
aI1
aI11
aI3
aI2
aI8
aI4
aI2
aI1
aI3
aI6
aI6
aI1
aI1
aI4
aI4
aI6
aI1
aI1
aI11
aI3
aI2
aI2
aI1
aI2
aI2
aI3
aI2
aI2
aI2
aI3
aI1
aI2
aI1
aI3
aI6
aI2
aI1
aI2
aI2
aI3
aI1
aI3
aI2
aI2
aI1
aI2
aI3
aI4
aI2
aI2
aI2
aI1
aI3
aI2
aI2
aI2
aI2
aI2
aI2
aI3
aI2
aI1
aI4
aI2
aI2
aI2
aI2
aI2
aI2
aI2
aI2
aI2
aI2
aI2
aI2
aI2
aI2
aI8
aI15
aI5
aI4
aI8
aI8
aI6
aI2
aI4
aI4
aI6
aI2
aI15
aI1
aI8
aI2
aI2
aI2
aI8
aI4
aI2
aI2
aI4
aI4
aI4
aI4
aI4
aI4
aI4
aI4
aI8
aI8
aI6
aI4
aI2
aI2
aI2
aI4
aI4
aI8
aI8
aI6
aI2
aI4
aI4
aI6
aI2
aI15
aI1
aI8
aI2
aI2
aI2
aI8
aI4
aI2
aI2
aI4
aI4
aI4
aI4
aI4
aI4
aI4
aI4
aI8
aI2
aI2
aI2
aI2
aI15
aI1
aa(lp25
I2
aI2
aI2
aI2
aI2
aI2
aI2
aI4
aI2
aI2
aI2
aI2
aI2
aI2
aI4
aI2
aI2
aI2
aI6
aI1
aI1
aI6
aI6
aI4
aI13
aI3
aI4
aI2
aI2
aI2
aI2
aI2
aI6
aI2
aI2
aI2
aI2
aI2
aI8
aI4
aI4
aI4
aI4
aI4
aI2
aI2
aI6
aI2
aI2
aI2
aI2
aI2
aI2
aI4
aI2
aI2
aI2
aI2
aI2
aI4
aI2
aI2
aI4
aI4
aI4
aI4
aI4
aI4
aI2
aI4
aI2
aI4
aI2
aI2
aI2
aI4
aI2
aI2
aI4
aI2
aI6
aI2
aI2
aI2
aI2
aI2
aI6
aI2
aI4
aI4
aI1
aI1
aI14
aI1
aI1
aI2
aI2
aI2
aI6
aI2
aI4
aI4
aI4
aI4
aI1
aI1
aI2
aI2
aI2
aI8
aI2
aI2
aI4
aI6
aI2
aI1
aI1
aI6
aI2
aI2
aI2
aI2
aI2
aI2
aI2
aI2
aI2
aI2
aI2
aI2
aI4
aI2
aI2
aI2
aI2
aI2
aI2
aI4
aI2
aI2
aI7
aI1
aI1
aI1
aI5
aI1
aI9
aI1
aI4
aI2
aI2
aI2
aI2
aI2
aI6
aI2
aI2
aI2
aI2
aI2
aI4
aI4
aI4
aI3
aI1
aI4
aI4
aI4
aI2
aI2
aI6
aI2
aI2
aI2
aI2
aI2
aI1
aI1
aI2
aI2
aI2
aI2
aI2
aI2
aI2
aI4
aI4
aI4
aI4
aI4
aI2
aI2
aI7
aI1
aI2
aI4
aI2
aI4
aI2
aI2
aI2
aI4
aI2
aI2
aI4
aI2
aI6
aI2
aI2
aI2
aI2
aI2
aI6
aI2
aI4
aI4
aI1
aI1
aI10
aI4
aI1
aI1
aI2
aI2
aI2
aI6
aI2
aI4
aI4
aI4
aI4
aI1
aI1
aI2
aI2
aI2
aI8
aI2
aI2
aI4
aI6
aI2
aI1
aI1
aI6
aI2
aI2
aI2
aI2
aI2
aI4
aI2
aI2
aI2
aI2
aI2
aI6
aI2
aI4
aI4
aI8
aI4
aI4
aI1
aI1
aI4
aI2
aI4
aI2
aI2
aI6
aI2
aI2
aI2
aI2
aI2
aI6
aI2
aI4
aI4
aI6
aI2
aI7
aI1
aI1
aI1
aI4
aI2
aI6
aI4
aI4
aI2
aI4
aI2
aI2
aI2
aI4
aI2
aI2
aI4
aI2
aI6
aI2
aI2
aI2
aI2
aI2
aI6
aI2
aI4
aI4
aI1
aI1
aI14
aI1
aI1
aI2
aI2
aI2
aI6
aI2
aI4
aI4
aI4
aI4
aI1
aI1
aI2
aI2
aI2
aI8
aI2
aI2
aI4
aI6
aI2
aI1
aI1
aI4
aI2
aI2
aI2
aI2
aI2
aI2
aI5
aI1
aI4
aI4
aI2
aI2
aI2
aI2
aI6
aI2
aI2
aI2
aI4
aI4
aI4
aI1
aI1
aI6
aI2
aI2
aI2
aI4
aI2
aI2
aI2
aI2
aI2
aI2
aI2
aI4
aI2
aI2
aI2
aI2
aI2
aI2
aI4
aI2
aI2
aI7
aI1
aI1
aI1
aI6
aI10
aI13
aI3
aa(lp26
I4
aI4
aI4
aI4
aI6
aI10
aI6
aI6
aI4
aI2
aI2
aI8
aI4
aI4
aI4
aI4
aI4
aI6
aI10
aI6
aI6
aI4
aI16
aI4
aI4
aI4
aI4
aI6
aI10
aI6
aI6
aI4
aI2
aI2
aI12
aI4
aI4
aI4
aI4
aI6
aI10
aI6
aI4
aI6
aI8
aI4
aI2
aI2
aI4
aI2
aI2
aI4
aI2
aI2
aI4
aI4
aI4
aI2
aI2
aI4
aI2
aI2
aI2
aI1
aI1
aI2
aI2
aI8
aI4
aI2
aI2
aI4
aI2
aI2
aI4
aI2
aI2
aI4
aI4
aI4
aI2
aI2
aI4
aI2
aI2
aI4
aI2
aI2
aI16
aI4
aI4
aI4
aI4
aI6
aI10
aI6
aI6
aI4
aI2
aI2
aI8
aI4
aI4
aI4
aI4
aI4
aI6
aI10
aI6
aI6
aI4
aI2
aI2
aI2
aI2
aI2
aI2
aI4
aI4
aI4
aI4
aI4
aI6
aI10
aI6
aI6
aI4
aI2
aI2
aI12
aI4
aI4
aI4
aI4
aI6
aI6
aI4
aI6
aI6
aI2
aI2
aI2
aI2
aI7
aI1
aI2
aI2
aI6
aI6
aI4
aI6
aI6
aI4
aI4
aI4
aI4
aI4
aI6
aI10
aI2
aI2
aI2
aI2
aI4
aI4
aI15
aI1
aI2
aI2
aI2
aI2
aI2
aI2
aI2
aI6
aI4
aI4
aI4
aI2
aI2
aI2
aI2
aI4
aI2
aI4
aI14
aI2
aI2
aI2
aI4
aI6
aI2
aI2
aI2
aI10
aI2
aI2
aI2
aI2
aI4
aI4
aI16
aI2
aI2
aI2
aI4
aI6
aI2
aI2
aI2
aI4
aI2
aI2
aI2
aI2
aI2
aI2
aI2
aI4
aI2
aI2
aI15
aI1
aI4
aI4
aI4
aI4
aI6
aI10
aI6
aI6
aI4
aI2
aI2
aI8
aI4
aI4
aI4
aI4
aI4
aI6
aI10
aI6
aI6
aI4
aI2
aI2
aI2
aI2
aI2
aI2
aI4
aI4
aI4
aI4
aI4
aI6
aI10
aI6
aI6
aI4
aI2
aI2
aI8
aI4
aI4
aI4
aI4
aI4
aI6
aI10
aI6
aI6
aI4
aI8
aI4
aI2
aI2
aI4
aI2
aI2
aI4
aI2
aI2
aI4
aI4
aI4
aI2
aI2
aI4
aI2
aI2
aI2
aI1
aI1
aI2
aI2
aI8
aI4
aI2
aI2
aI4
aI2
aI2
aI4
aI2
aI2
aI4
aI4
aI4
aI2
aI2
aI4
aI2
aI2
aI4
aI2
aI2
aI8
aI4
aI2
aI2
aI4
aI4
aI4
aI2
aI2
aI4
aI4
aI6
aI2
aI2
aI2
aI2
aI2
aI4
aI2
aI2
aI8
aI4
aI2
aI2
aI4
aI4
aI4
aI2
aI2
aI4
aI2
aI2
aI8
aI2
aI2
aI2
aI2
aI4
aI2
aI4
aI2
aI8
aI4
aI2
aI2
aI2
aI2
aI4
aI2
aI4
aI2
aI8
aI4
aI2
aI2
aI2
aI4
aI6
aI2
aI2
aI2
aI10
aI2
aI2
aI2
aI2
aI4
aI4
aI16
aI2
aI2
aI2
aI4
aI6
aI2
aI2
aI2
aI4
aI2
aI2
aI2
aI2
aI2
aI2
aI2
aI4
aI2
aI2
aI15
aI1
aI4
aI4
aI4
aI4
aI6
aI10
aI6
aI6
aI4
aI2
aI2
aI8
aI4
aI4
aI4
aI4
aI4
aI6
aI10
aI6
aI6
aI4
aI2
aI2
aI2
aI2
aI2
aI2
aI4
aI4
aI4
aI4
aI4
aI6
aI10
aI6
aI6
aI4
aI2
aI2
aI12
aI4
aI4
aI4
aI4
aI6
aI6
aI4
aI6
aI6
aI4
aI8
aI8
aa(lp27
I1
aI1
aI2
aI12
aI1
aI2
aI2
aI10
aI1
aI2
aI12
aI1
aI2
aI2
aI10
aI3
aI12
aI3
aI4
aI4
aI8
aI4
aI4
aI8
aI4
aI4
aI8
aI1
aI3
aI4
aI4
aI4
aI4
aI4
aI8
aI4
aI4
aI8
aI4
aI4
aI4
aI4
aI4
aI4
aI12
aI4
aI8
aI4
aI4
aI1
aI7
aI4
aI4
aI8
aI4
aI4
aI4
aI4
aI4
aI4
aI8
aI1
aI3
aI4
aI1
aI7
aI4
aI4
aI4
aI4
aI4
aI4
aI12
aI4
aI8
aI4
aI4
aI8
aI1
aI3
aI4
aI8
aI1
aI3
aI1
aI3
aI1
aI3
aI1
aI3
aI1
aI3
aI4
aI8
aI4
aI4
aI8
aI1
aI3
aI4
aI4
aI1
aI3
aI1
aI3
aI1
aI3
aI12
aI3
aI7
aI4
aI4
aI7
aI4
aI4
aI7
aI4
aI4
aI3
aI4
aI4
aI4
aI7
aI1
aI3
aI4
aI1
aI7
aI4
aI4
aI4
aI4
aI4
aI4
aI12
aI5
aI7
aI1
aI3
aI4
aI1
aI7
aI1
aI3
aI4
aI8
aI1
aI3
aI4
aI1
aI3
aI1
aI3
aI1
aI3
aI4
aI1
aI7
aI1
aI3
aI4
aI1
aI7
aI1
aI3
aI4
aI1
aI3
aI1
aI3
aI1
aI3
aI20
aI16
aI1
aI2
aI2
aI10
aI1
aI2
aI12
aI1
aI2
aI2
aI10
aI3
aI12
aI3
aI27
aa(lp28
I1
aI1
aI1
aI1
aI1
aI1
aI1
aI1
aI1
aI5
aI1
aI1
aI1
aI1
aI1
aI1
aI1
aI1
aI1
aI1
aI1
aI7
aI1
aI1
aI1
aI1
aI1
aI1
aI1
aI1
aI4
aI2
aI1
aI1
aI1
aI1
aI1
aI1
aI1
aI1
aI1
aI1
aI2
aI2
aI2
aI2
aI1
aI1
aI1
aI1
aI1
aI1
aI1
aI1
aI2
aI4
aI1
aI1
aI1
aI1
aI1
aI1
aI1
aI1
aI1
aI1
aI1
aI7
aI1
aI1
aI1
aI1
aI1
aI1
aI1
aI1
aI1
aI1
aI1
aI1
aI2
aI1
aI1
aI1
aI1
aI1
aI1
aI1
aI1
aI1
aI1
aI1
aI3
aI1
aI1
aI1
aI1
aI1
aI1
aI1
aI1
aI1
aI1
aI1
aI1
aI1
aI1
aI1
aI1
aI1
aI1
aI1
aI1
aI1
aI1
aI1
aI1
aI1
aI1
aI1
aI1
aI2
aI6
aI1
aI1
aI1
aI1
aI2
aI1
aI1
aI1
aI1
aI1
aI1
aI2
aI1
aI1
aI1
aI1
aI1
aI1
aI1
aI1
aI1
aI1
aI2
aI2
aI2
aI2
aI1
aI1
aI1
aI1
aI1
aI1
aI1
aI1
aI1
aI1
aI1
aI1
aI1
aI1
aI1
aI1
aI1
aI1
aI1
aI1
aI1
aI1
aI1
aI1
aI2
aI6
aI1
aI1
aI1
aI1
aI2
aI1
aI1
aI1
aI1
aI1
aI1
aI2
aI1
aI1
aI1
aI1
aI1
aI1
aI1
aI1
aI1
aI1
aI2
aI2
aI2
aI2
aa(lp29
I5
aI2
aI2
aI1
aI1
aI1
aI1
aI2
aI3
aI4
aI2
aI2
aI3
aI4
aI3
aI2
aI1
aI3
aI1
aI1
aI1
aI1
aI3
aI4
aI4
aI5
aI3
aI3
aI1
aI2
aI1
aI1
aI1
aI1
aI1
aI3
aI1
aI3
aI1
aI2
aI2
aI1
aI3
aI3
aI1
aI1
aI1
aI2
aI2
aI2
aI2
aI1
aI2
aI1
aI2
aI3
aI4
aI1
aI2
aI1
aI2
aI1
aI2
aI1
aI1
aI1
aI3
aI2
aI2
aI3
aI5
aI3
aI2
aI2
aI1
aI2
aI1
aI2
aI1
aI1
aI2
aI4
aI2
aI2
aI1
aI3
aI3
aI1
aI1
aI3
aI1
aI1
aI3
aI1
aI1
aI1
aI2
aI1
aI3
aI1
aI2
aI2
aI6
aI6
aI3
aI1
aI1
aI4
aI1
aI1
aI1
aI1
aI1
aI2
aI1
aI1
aI4
aI1
aI3
aI4
aI1
aI2
aI1
aI1
aI3
aI1
aI1
aI1
aI3
aI3
aI1
aI2
aI1
aI4
aI1
aI2
aI1
aI3
aI2
aI3
aI1
aI3
aI1
aI1
aI1
aI2
aI1
aI3
aI1
aI2
aI1
aI5
aI1
aI2
aI5
aI1
aI2
aI1
aI3
aI3
aI1
aI1
aI1
aI1
aI1
aI2
aI3
aI3
aI3
aI3
aI1
aI3
aI1
aI1
aI1
aI1
aI2
aI1
aI3
aI1
aI3
aI3
aI4
aI2
aI1
aI1
aI2
aI2
aI1
aI2
aI1
aI1
aI3
aI2
aI3
aI3
aI3
aI1
aI4
aI3
aI2
aI1
aI1
aI2
aI1
aI2
aI3
aI1
aI1
aI2
aI3
aI1
aI2
aI2
aI3
aI3
aI1
aI1
aI2
aI1
aI2
aI1
aI1
aI1
aI4
aI2
aI1
aI2
aI1
aI4
aI3
aI1
aI1
aI1
aI1
aI1
aI1
aI2
aI3
aI3
aI1
aI2
aI2
aI1
aI1
aI2
aI2
aI2
aI1
aI2
aI1
aI2
aI1
aI1
aI3
aI2
aI2
aI1
aI1
aI1
aI2
aI2
aI2
aI2
aI1
aI1
aI1
aI1
aI3
aI2
aI3
aI1
aI2
aI1
aI1
aI2
aI1
aI2
aI6
aI1
aI1
aI1
aI1
aI1
aI1
aI1
aI1
aI1
aI2
aI2
aI1
aI1
aI2
aI3
aI1
aI1
aI4
aI2
aI1
aI1
aI6
aI2
aI2
aI1
aI1
aI2
aI2
aI1
aI1
aI2
aI1
aI1
aI6
aI1
aa(lp30
I8
aI4
aI2
aI2
aI6
aI2
aI3
aI3
aI2
aI6
aI2
aI8
aI6
aI2
aI3
aI3
aI2
aI6
aI2
aI8
aI6
aI2
aI3
aI3
aI2
aI6
aI10
aI4
aI2
aI2
aI6
aI2
aI6
aI1
aI1
aI4
aI1
aI1
aI1
aI1
aI6
aI2
aI3
aI3
aI2
aI6
aI2
aI8
aI6
aI2
aI3
aI3
aI2
aI6
aI2
aI8
aI6
aI2
aI3
aI3
aI2
aI6
aI10
aI4
aI2
aI2
aI6
aI2
aI11
aI4
aI1
aI6
aI2
aI7
aI1
aI2
aI1
aI3
aI2
aI2
aI2
aI2
aI1
aI1
aI6
aI2
aI3
aI3
aI2
aI6
aI10
aI2
aI1
aI3
aI1
aI5
aI2
aI2
aI6
aI5
aI3
aI2
aI6
aI2
aI2
aI2
aI2
aI2
aI8
aI7
aI6
aI2
aI6
aI2
aI6
aI2
aI2
aI2
aI2
aI1
aI1
aI6
aI2
aI5
aI1
aI1
aI6
aI2
aI2
aI2
aI2
aI2
aI6
aI2
aI6
aI2
aI6
aI2
aI6
aI1
aI1
aI4
aI2
aI2
aI4
aI2
aI2
aI8
aI8
aI2
aI2
aI2
aI2
aI2
aI1
aI5
aI2
aI2
aI2
aI2
aI2
aI1
aI5
aI2
aI1
aI2
aI10
aI1
aI2
aI1
aI2
aI3
aI7
aI6
aI2
aI6
aI2
aI6
aI2
aI2
aI2
aI2
aI2
aI1
aI1
aI3
aI2
aI1
aI1
aI3
aI1
aI5
aI2
aI1
aI4
aI4
aI2
aI2
aI2
aI2
aI2
aI1
aI5
aI2
aI2
aI2
aI1
aI1
aI2
aI1
aI3
aI1
aI6
aI1
aI1
aI3
aI3
aI1
aI6
aI1
aI1
aI3
aI3
aI2
aI6
aI8
aI1
aI1
aI6
aI6
aI4
aI16
aI15
aI1
aa(lp31
I1
aI1
aI2
aI1
aI1
aI8
aI2
aI1
aI1
aI2
aI1
aI1
aI8
aI2
aI1
aI1
aI2
aI1
aI1
aI8
aI2
aI1
aI1
aI11
aI3
aI1
aI1
aI2
aI1
aI1
aI8
aI2
aI1
aI1
aI2
aI1
aI1
aI8
aI2
aI1
aI1
aI2
aI1
aI1
aI8
aI2
aI1
aI1
aI11
aI1
aI6
aI2
aI8
aI6
aI2
aI8
aI6
aI2
aI8
aI6
aI2
aI8
aI6
aI2
aI8
aI6
aI2
aI8
aI6
aI2
aI8
aI6
aI2
aI8
aI1
aI1
aI1
aI1
aI1
aI1
aI1
aI1
aI1
aI1
aI1
aI1
aI1
aI1
aI1
aI1
aI1
aI1
aI1
aI1
aI1
aI1
aI1
aI1
aI1
aI1
aI1
aI1
aI1
aI1
aI1
aI1
aI1
aI1
aI1
aI1
aI1
aI1
aI1
aI1
aI1
aI1
aI1
aI1
aI1
aI1
aI1
aI1
aI1
aI1
aI1
aI1
aI1
aI1
aI1
aI1
aI1
aI1
aI1
aI1
aI1
aI1
aI1
aI1
aI1
aI1
aI1
aI1
aI1
aI1
aI1
aI1
aI1
aI1
aI1
aI1
aI1
aI1
aI1
aI1
aI1
aI1
aI1
aI1
aI1
aI1
aI1
aI1
aI1
aI1
aI1
aI1
aI1
aI1
aI1
aI1
aI1
aI1
aI1
aI1
aI1
aI1
aI1
aI1
aI1
aI1
aI1
aI1
aI1
aI1
aI1
aI1
aI1
aI1
aI1
aI1
aI1
aI1
aI1
aI1
aI1
aI1
aI1
aI1
aI1
aI1
aI2
aI2
aI1
aI1
aI2
aI1
aI1
aI8
aI2
aI1
aI1
aI2
aI1
aI1
aI8
aI2
aI1
aI1
aI2
aI1
aI1
aI8
aI2
aI1
aI1
aI11
aI3
aI1
aI1
aI2
aI1
aI1
aI8
aI2
aI1
aI1
aI2
aI1
aI1
aI8
aI2
aI1
aI1
aI2
aI1
aI1
aI8
aI2
aI1
aI1
aI11
aI1
aI6
aI2
aI8
aI6
aI2
aI8
aI6
aI2
aI8
aI6
aI2
aI8
aI6
aI2
aI8
aI6
aI2
aI8
aI6
aI2
aI8
aI6
aI2
aI8
aI1
aI1
aI1
aI1
aI1
aI1
aI1
aI1
aI1
aI1
aI1
aI1
aI1
aI1
aI1
aI1
aI1
aI1
aI1
aI1
aI1
aI1
aI1
aI1
aI1
aI1
aI1
aI1
aI1
aI1
aI1
aI1
aI1
aI1
aI1
aI1
aI1
aI1
aI1
aI1
aI1
aI1
aI1
aI1
aI1
aI1
aI1
aI1
aI1
aI1
aI1
aI1
aI1
aI1
aI1
aI1
aI1
aI1
aI1
aI1
aI1
aI1
aI1
aI1
aI1
aI1
aI1
aI1
aI1
aI1
aI1
aI1
aI1
aI1
aI1
aI1
aI1
aI1
aI1
aI1
aI1
aI1
aI1
aI1
aI1
aI1
aI1
aI1
aI1
aI1
aI1
aI1
aI1
aI1
aI1
aI1
aI1
aI1
aI1
aI1
aI1
aI1
aI1
aI1
aI1
aI1
aI1
aI1
aI1
aI1
aI1
aI1
aI1
aI1
aI1
aI1
aI1
aI1
aI1
aI1
aI1
aI1
aI1
aI1
aI1
aI1
aI1
aI1
aI15
aI1
aa(lp32
I11
aI1
aI3
aI1
aI11
aI1
aI3
aI1
aI4
aI3
aI1
aI4
aI3
aI1
aI11
aI5
aI11
aI1
aI3
aI1
aI11
aI1
aI3
aI1
aI4
aI3
aI1
aI4
aI3
aI2
aI14
aI11
aI1
aI3
aI1
aI11
aI1
aI3
aI1
aI4
aI3
aI1
aI4
aI3
aI1
aI16
aI11
aI1
aI3
aI1
aI11
aI1
aI3
aI1
aI4
aI3
aI1
aI4
aI3
aI1
aI11
aI5
aI11
aI1
aI3
aI1
aI8
aI8
aI2
aI2
aI2
aI2
aI2
aI2
aI2
aI2
aI11
aI5
aI8
aI4
aI3
aI1
aI11
aI1
aI3
aI1
aI4
aI3
aI1
aI4
aI3
aI1
aI11
aI5
aI11
aI1
aI3
aI1
aI11
aI1
aI3
aI1
aI4
aI3
aI1
aI4
aI3
aI1
aI3
aI1
aI3
aI1
aI3
aI1
aI3
aI1
aI4
aI8
aI3
aI1
aI3
aI1
aI2
aI2
aI4
aI2
aI2
aI6
aI1
aI1
aI2
aI2
aI2
aI2
aI2
aI2
aI2
aI2
aI8
aI2
aI2
aI2
aI2
aI8
aI8
aI4
aI3
aI1
aI11
aI1
aI3
aI1
aI4
aI3
aI1
aI4
aI3
aI1
aI11
aI5
aI11
aI1
aI3
aI1
aI11
aI1
aI3
aI1
aI4
aI3
aI1
aI4
aI3
aI2
aI6
aI8
aI8
aI8
aI8
aI4
aI4
aI15
aI1
aI1
aI1
aI2
aI2
aI2
aI2
aI5
aI1
aI1
aI1
aI2
aI2
aI2
aI2
aI6
aI4
aI2
aI2
aI2
aI2
aI2
aI2
aI4
aI2
aI2
aI2
aI2
aI2
aI2
aI4
aI2
aI2
aI2
aI2
aI2
aI2
aI2
aI2
aI2
aI2
aI2
aI2
aI2
aI2
aI4
aI2
aI2
aI2
aI2
aI2
aI2
aI4
aI2
aI2
aI2
aI2
aI2
aI2
aI4
aI2
aI2
aI2
aI2
aI2
aI2
aI2
aI2
aI2
aI2
aI2
aI2
aI2
aI2
aI4
aI2
aI2
aI2
aI2
aI2
aI4
aI4
aI4
aI4
aI2
aI4
aI2
aI2
aI2
aI2
aI2
aI4
aI2
aI2
aI2
aI2
aI2
aI2
aI4
aI2
aI2
aI2
aI2
aI2
aI2
aI2
aI4
aI2
aI2
aI2
aI2
aI2
aI2
aI2
aI2
aI2
aI2
aI4
aI2
aI2
aI2
aI2
aI2
aI2
aI2
aI2
aI2
aI2
aI4
aI4
aI8
aI4
aI4
aI4
aI4
aI4
aI2
aI2
aI2
aI2
aI2
aI2
aI4
aI4
aI4
aI4
aI4
aI4
aI4
aI4
aI4
aI4
aI4
aI4
aI4
aI2
aI2
aI2
aI2
aI2
aI2
aI2
aI4
aI2
aI2
aI2
aI2
aI2
aI4
aI4
aI4
aI4
aI2
aI4
aI2
aI2
aI2
aI2
aI2
aI4
aI2
aI2
aI2
aI2
aI2
aI2
aI4
aI2
aI2
aI2
aI2
aI2
aI2
aI4
aI2
aI2
aI2
aI2
aI2
aI2
aI2
aI2
aI2
aI2
aI4
aI2
aI2
aI2
aI2
aI2
aI2
aI2
aI2
aI2
aI2
aI4
aI4
aI8
aI4
aI4
aI4
aI4
aI4
aI2
aI2
aI2
aI2
aI2
aI2
aI4
aI4
aI4
aI4
aI4
aI4
aI4
aI4
aI4
aI4
aI4
aI4
aI4
aI2
aI2
aI2
aI2
aI2
aI2
aI4
aI2
aI2
aI4
aI2
aI2
aI4
aI2
aI2
aI2
aI2
aI2
aI2
aI2
aI4
aI2
aI2
aI2
aI2
aI2
aI4
aI4
aI4
aI4
aI4
aI4
aI4
aI4
aI4
aI2
aI2
aI2
aI2
aI2
aI2
aI4
aI4
aI4
aI4
aI4
aI2
aI2
aI2
aI2
aI2
aI2
aI2
aI1
aI1
aI4
aI4
aI4
aI2
aI1
aI1
aI4
aI4
aI4
aI2
aI2
aI2
aI2
aI2
aI2
aI2
aI2
aI4
aI4
aI4
aI4
aI4
aI2
aI2
aI2
aI2
aI2
aI2
aI4
aI4
aI4
aI4
aI4
aI2
aI2
aI2
aI2
aI2
aI2
aI2
aI1
aI1
aI4
aI4
aI4
aI4
aI4
aI4
aI4
aI15
aI3
aI2
aI2
aI2
aI2
aI2
aI2
aI2
aI4
aI4
aI4
aI4
aI4
aI2
aI2
aI2
aI2
aI2
aI2
aI4
aI4
aI4
aI4
aI4
aI4
aI4
aI4
aI4
aI4
aI4
aI4
aI4
aI2
aI2
aI2
aI2
aI2
aI2
aI2
aI4
aI2
aI2
aI2
aI2
aI2
aI4
aI4
aI4
aI4
aI2
aI4
aI2
aI2
aI2
aI2
aI2
aI4
aI2
aI2
aI2
aI2
aI2
aI2
aI4
aI2
aI2
aI2
aI2
aI2
aI2
aI4
aI2
aI2
aI2
aI2
aI2
aI2
aI2
aI2
aI2
aI2
aI4
aI2
aI2
aI2
aI2
aI2
aI2
aI2
aI2
aI2
aI2
aI4
aI4
aI8
aI4
aI4
aI4
aI4
aI4
aI2
aI2
aI2
aI2
aI2
aI2
aI4
aI4
aI4
aI4
aI4
aI4
aI4
aI4
aI4
aI4
aI4
aI4
aI4
aI2
aI2
aI2
aI2
aI2
aI2
aI4
aI2
aI2
aI4
aI2
aI2
aI4
aI2
aI2
aI2
aI2
aI2
aI2
aI2
aI4
aI2
aI2
aI2
aI2
aI2
aI2
aI4
aI2
aI2
aI2
aI2
aI2
aI4
aI4
aI4
aI4
aa(lp33
I2
aI2
aI2
aI4
aI2
aI2
aI2
aI2
aI2
aI2
aI4
aI2
aI2
aI2
aI2
aI2
aI2
aI4
aI2
aI2
aI2
aI2
aI2
aI2
aI4
aI2
aI2
aI2
aI2
aI2
aI2
aI2
aI2
aI2
aI2
aI2
aI2
aI2
aI2
aI2
aI2
aI2
aI2
aI2
aI2
aI2
aI2
aI2
aI2
aI2
aI2
aI2
aI2
aI2
aI2
aI2
aI2
aI2
aI2
aI2
aI2
aI2
aI2
aI2
aI2
aI2
aI2
aI2
aI2
aI2
aI2
aI4
aI2
aI2
aI2
aI2
aI2
aI2
aI2
aI4
aI4
aI4
aI4
aI4
aI4
aI2
aI2
aI2
aI2
aI2
aI2
aI2
aI2
aI2
aI2
aI2
aI2
aI2
aI2
aI2
aI2
aI2
aI2
aI2
aI2
aI2
aI2
aI2
aI2
aI2
aI2
aI2
aI2
aI2
aI2
aI2
aI2
aI2
aI2
aI2
aI2
aI4
aI4
aI4
aI4
aI4
aI4
aI8
aI8
aI4
aI4
aI4
aI4
aI4
aI2
aI2
aI2
aI2
aI2
aI2
aI4
aI2
aI2
aI2
aI2
aI2
aI2
aI2
aI2
aI2
aI2
aI2
aI2
aI2
aI2
aI4
aI8
aI2
aI2
aI2
aI2
aI2
aI2
aI2
aI2
aI2
aI2
aI2
aI2
aI2
aI2
aI4
aI4
aI2
aI2
aI2
aI2
aI2
aI2
aI2
aI2
aI2
aI2
aI2
aI2
aI2
aI2
aI2
aI2
aI8
aI4
aI4
aI6
aI2
aI8
aI8
aI4
aI4
aI6
aI2
aI8
aI2
aI2
aI2
aI2
aI4
aI4
aI4
aI4
aI4
aI4
aI8
aI8
aI6
aI2
aI8
aI8
aI4
aI4
aI6
aI2
aI8
aI4
aI4
aI4
aI4
aI6
aI2
aI8
aI2
aI2
aI2
aI2
aI2
aI2
aI2
aI2
aI4
aI4
aI4
aI4
aI4
aI2
aI2
aI8
aI4
aI2
aI2
aI4
aI4
aI15
aI1
aa(lp34
I2
aI2
aI2
aI2
aI2
aI2
aI2
aI10
aI6
aI4
aI2
aI2
aI2
aI2
aI2
aI2
aI10
aI12
aI2
aI2
aI2
aI2
aI2
aI2
aI2
aI4
aI4
aI6
aI2
aI4
aI4
aI6
aI2
aI4
aI4
aI2
aI2
aI2
aI4
aI2
aI2
aI2
aI2
aI2
aI2
aI2
aI4
aI4
aI6
aI2
aI4
aI4
aI6
aI2
aI4
aI4
aI2
aI2
aI2
aI4
aI2
aI2
aI2
aI2
aI2
aI2
aI2
aI4
aI4
aI6
aI2
aI4
aI4
aI6
aI2
aI4
aI4
aI2
aI2
aI2
aI4
aI2
aI2
aI2
aI2
aI2
aI2
aI2
aI4
aI4
aI6
aI2
aI4
aI4
aI6
aI2
aI4
aI4
aI2
aI2
aI2
aI4
aI2
aI2
aI2
aI2
aI2
aI2
aI2
aI4
aI2
aI2
aI2
aI2
aI2
aI4
aI2
aI2
aI2
aI2
aI2
aI2
aI2
aI2
aI2
aI2
aI2
aI2
aI2
aI2
aI4
aI2
aI2
aI2
aI2
aI2
aI2
aI2
aI4
aI2
aI2
aI2
aI2
aI2
aI4
aI2
aI2
aI2
aI2
aI2
aI2
aI2
aI2
aI2
aI2
aI2
aI2
aI2
aI2
aI2
aI2
aI2
aI2
aI2
aI2
aI2
aI10
aI6
aI4
aI2
aI2
aI2
aI2
aI2
aI2
aI10
aI12
aI2
aI2
aI2
aI2
aI2
aI2
aI2
aI4
aI4
aI6
aI2
aI4
aI4
aI6
aI2
aI4
aI4
aI2
aI2
aI2
aI4
aI2
aI2
aI2
aI2
aI2
aI2
aI2
aI4
aI4
aI6
aI2
aI4
aI4
aI6
aI2
aI4
aI4
aI2
aI2
aI2
aI4
aI2
aI2
aI2
aI2
aI2
aI2
aI2
aI4
aI4
aI6
aI2
aI4
aI4
aI6
aI2
aI4
aI4
aI2
aI2
aI2
aI4
aI2
aI2
aI2
aI2
aI2
aI2
aI2
aI4
aI4
aI6
aI2
aI4
aI4
aI6
aI2
aI4
aI4
aI2
aI2
aI2
aI4
aI2
aI2
aI2
aI2
aI2
aI2
aI2
aI4
aI2
aI2
aI2
aI2
aI2
aI4
aI2
aI2
aI2
aI2
aI2
aI2
aI2
aI2
aI2
aI2
aI2
aI2
aI2
aI2
aI4
aI2
aI2
aI2
aI2
aI2
aI2
aI2
aI4
aI2
aI2
aI2
aI2
aI2
aI4
aI2
aI2
aI2
aI2
aI2
aI2
aI2
aI2
aI2
aI2
aI2
aI2
aI2
aI2
aI2
aI2
aI2
aI2
aI2
aI2
aI2
aI10
aI4
aI2
aI8
aI2
aI2
aI2
aI2
aI10
aI8
aI2
aI2
aI2
aI2
aI2
aI2
aI2
aI8
aI2
aI4
aI4
aI2
aI2
aI4
aI2
aI2
aI2
aI17
aa(lp35
I2
aI2
aI2
aI2
aI2
aI2
aI2
aI2
aI6
aI6
aI2
aI8
aI6
aI2
aI8
aI12
aI2
aI2
aI2
aI2
aI2
aI2
aI2
aI11
aI1
aI2
aI6
aI2
aI6
aI2
aI6
aI2
aI4
aI2
aI2
aI4
aI4
aI4
aI2
aI2
aI4
aI4
aI4
aI2
aI2
aI4
aI2
aI2
aI4
aI2
aI2
aI4
aI2
aI2
aI6
aI4
aI2
aI2
aI2
aI2
aI2
aI2
aI2
aI2
aI6
aI12
aI2
aI2
aI2
aI2
aI2
aI2
aI2
aI11
aI3
aI1
aI1
aI2
aI2
aI2
aI2
aI2
aI2
aI2
aI2
aI2
aI2
aI2
aI2
aI2
aI2
aI2
aI2
aI2
aI2
aI2
aI2
aI2
aI2
aI2
aI2
aI2
aI2
aI2
aI2
aI2
aI2
aI2
aI2
aI2
aI2
aI2
aI2
aI2
aI2
aI2
aI2
aI2
aI2
aI2
aI2
aI2
aI2
aI2
aI2
aI2
aI2
aI2
aI2
aI2
aI2
aI2
aI2
aI2
aI2
aI2
aI2
aI2
aI2
aI2
aI2
aI2
aI2
aI2
aI2
aI2
aI2
aI2
aI2
aI15
aI3
aI2
aI2
aI2
aI2
aI2
aI2
aI2
aI15
aI3
aI2
aI2
aI2
aI2
aI2
aI2
aI2
aI11
aI3
aI1
aI1
aI2
aI2
aI2
aI2
aI2
aI2
aI2
aI2
aI2
aI2
aI2
aI2
aI2
aI2
aI2
aI2
aI2
aI2
aI2
aI2
aI2
aI2
aI2
aI2
aI2
aI2
aI2
aI2
aI2
aI2
aI2
aI2
aI2
aI2
aI2
aI2
aI2
aI2
aI2
aI2
aI2
aI2
aI2
aI2
aI2
aI2
aI2
aI2
aI15
aI1
aa(lp36
I2
aI1
aI1
aI3
aI2
aI2
aI2
aI2
aI2
aI4
aI4
aI2
aI2
aI2
aI4
aI2
aI2
aI2
aI2
aI2
aI2
aI10
aI2
aI2
aI2
aI4
aI2
aI2
aI2
aI2
aI2
aI2
aI4
aI2
aI2
aI6
aI2
aI4
aI2
aI2
aI2
aI2
aI2
aI18
aI1
aI2
aI3
aI2
aI2
aI2
aI1
aI2
aI4
aI4
aI2
aI2
aI2
aI4
aI2
aI2
aI2
aI2
aI2
aI2
aI10
aI2
aI2
aI2
aI3
aI2
aI2
aI2
aI2
aI2
aI2
aI4
aI2
aI2
aI6
aI2
aI4
aI4
aI2
aI2
aI2
aI2
aI11
aI1
aI2
aI2
aI2
aI2
aI2
aI2
aI2
aI2
aI2
aI2
aI4
aI2
aI2
aI4
aI2
aI1
aI2
aI2
aI2
aI2
aI4
aI2
aI4
aI10
aI2
aI1
aI2
aI2
aI2
aI1
aI2
aI2
aI2
aI2
aI4
aI2
aI2
aI4
aI2
aI2
aI4
aI4
aI4
aI2
aI4
aI2
aI2
aI2
aI2
aI2
aI2
aI2
aI4
aI4
aI4
aI4
aI4
aI2
aI6
aI2
aI2
aI4
aI4
aI4
aI2
aI17
aI3
aI2
aI2
aI2
aI2
aI2
aI2
aI2
aI4
aI2
aI2
aI4
aI2
aI2
aI2
aI2
aI2
aI2
aI4
aI2
aI4
aI2
aI2
aI2
aI2
aI2
aI2
aI2
aI4
aI4
aI4
aI4
aI4
aI2
aI6
aI2
aI2
aI4
aI4
aI4
aI2
aI17
aI3
aI2
aI2
aI2
aI2
aI2
aI2
aI2
aI4
aI2
aI2
aI4
aI2
aI2
aI2
aI2
aI2
aI2
aI2
aI2
aI2
aI4
aI6
aI8
aa(lp37
I2
aI1
aI1
aI3
aI2
aI2
aI2
aI2
aI2
aI4
aI4
aI2
aI2
aI2
aI4
aI2
aI2
aI2
aI2
aI2
aI2
aI10
aI2
aI2
aI2
aI4
aI2
aI2
aI2
aI2
aI2
aI2
aI4
aI2
aI2
aI6
aI2
aI4
aI2
aI2
aI2
aI2
aI2
aI18
aI1
aI2
aI3
aI2
aI2
aI2
aI1
aI2
aI4
aI4
aI2
aI2
aI2
aI4
aI2
aI2
aI2
aI2
aI2
aI2
aI10
aI2
aI2
aI2
aI3
aI2
aI2
aI2
aI2
aI2
aI2
aI4
aI2
aI2
aI6
aI2
aI4
aI4
aI2
aI2
aI2
aI2
aI11
aI1
aI2
aI2
aI2
aI2
aI2
aI2
aI2
aI2
aI2
aI2
aI4
aI2
aI2
aI4
aI2
aI1
aI2
aI2
aI2
aI2
aI4
aI2
aI4
aI10
aI2
aI1
aI2
aI2
aI2
aI1
aI2
aI2
aI2
aI2
aI4
aI2
aI2
aI4
aI2
aI2
aI4
aI4
aI4
aI2
aI4
aI2
aI2
aI2
aI2
aI2
aI2
aI2
aI4
aI4
aI4
aI4
aI4
aI2
aI6
aI2
aI2
aI4
aI4
aI4
aI2
aI17
aI3
aI2
aI2
aI2
aI2
aI2
aI2
aI2
aI4
aI2
aI2
aI4
aI2
aI2
aI2
aI2
aI2
aI2
aI4
aI2
aI4
aI2
aI2
aI2
aI2
aI2
aI2
aI2
aI4
aI4
aI4
aI4
aI4
aI2
aI6
aI2
aI2
aI4
aI4
aI4
aI2
aI17
aI3
aI2
aI2
aI2
aI2
aI2
aI2
aI2
aI4
aI2
aI2
aI4
aI2
aI2
aI2
aI2
aI2
aI2
aI2
aI2
aI2
aI4
aI6
aI8
aa(lp38
I12
aI1
aI1
aI1
aI1
aI2
aI2
aI2
aI8
aI1
aI1
aI2
aI2
aI2
aI4
aI2
aI2
aI2
aI2
aI2
aI2
aI4
aI2
aI2
aI13
aI1
aI1
aI1
aI1
aI1
aI2
aI2
aI2
aI4
aI2
aI2
aI2
aI2
aI2
aI2
aI8
aI1
aI1
aI2
aI2
aI2
aI4
aI2
aI2
aI10
aI7
aI6
aI8
aI1
aI1
aI6
aI2
aI4
aI2
aI8
aI2
aI2
aI2
aI2
aI8
aI2
aI4
aI4
aI2
aI2
aI2
aI2
aI2
aI2
aI2
aI10
aI4
aI2
aI6
aI2
aI2
aI2
aI2
aI2
aI8
aI2
aI4
aI4
aI4
aI2
aI10
aI6
aI2
aI4
aI2
aI8
aI2
aI2
aI2
aI2
aI8
aI2
aI4
aI4
aI2
aI2
aI2
aI2
aI2
aI2
aI2
aI10
aI4
aI2
aI8
aI2
aI2
aI2
aI2
aI8
aI2
aI2
aI2
aI2
aI4
aI2
aI2
aI2
aI2
aI2
aI10
aI4
aI4
aI2
aI2
aI2
aI2
aI2
aI2
aI2
aI2
aI3
aI3
aI4
aI2
aI2
aI4
aI2
aI2
aI2
aI2
aI2
aI2
aI2
aI3
aI3
aI4
aI2
aI2
aI8
aI2
aI2
aI2
aI2
aI2
aI4
aI2
aI4
aI4
aI2
aI4
aI4
aI2
aI2
aI2
aI10
aI4
aI4
aI2
aI2
aI2
aI2
aI2
aI2
aI2
aI2
aI3
aI3
aI4
aI2
aI2
aI4
aI2
aI2
aI2
aI2
aI2
aI2
aI2
aI3
aI3
aI6
aI2
aI2
aI4
aI2
aI4
aI2
aI2
aI4
aI8
aI2
aI2
aI6
aI2
aI4
aI4
aI18
aI7
aI2
aI2
aI2
aI4
aI10
aI1
aI1
aI1
aI1
aI2
aI2
aI2
aI4
aI2
aI2
aI2
aI2
aI2
aI2
aI4
aI2
aI2
aI2
aI2
aI2
aI2
aI6
aI2
aI2
aI7
aI1
aI1
aI1
aI1
aI1
aI1
aI1
aI1
aI15
aa(lp39
I15
aI1
aI15
aI1
aI8
aI4
aI4
aI15
aI1
aI8
aI2
aI2
aI2
aI2
aI6
aI2
aI8
aI8
aI2
aI2
aI2
aI2
aI6
aI2
aI8
aI8
aI2
aI2
aI2
aI2
aI6
aI2
aI4
aI4
aI8
aI4
aI4
aI8
aI2
aI2
aI2
aI2
aI8
aI8
aI8
aI2
aI2
aI2
aI2
aI8
aI8
aI8
aI2
aI2
aI2
aI2
aI8
aI2
aI2
aI2
aI2
aI6
aI2
aI4
aI4
aI11
aI4
aI1
aI8
aI6
aI2
aI8
aI7
aI1
aI8
aI6
aI2
aI8
aI7
aI1
aI8
aI7
aI1
aI8
aI2
aI2
aI2
aI2
aI6
aI2
aI8
aI8
aI2
aI2
aI2
aI2
aI8
aI2
aI2
aI2
aI2
aI2
aI2
aI2
aI2
aI2
aI2
aI2
aI2
aI2
aI2
aI2
aI2
aI2
aI2
aI2
aI15
aI1
aa(lp40
I6
aI6
aI4
aI6
aI6
aI4
aI6
aI6
aI4
aI11
aI5
aI6
aI4
aI2
aI4
aI6
aI6
aI4
aI6
aI6
aI4
aI4
aI2
aI6
aI4
aI20
aI2
aI2
aI4
aI2
aI2
aI18
aI2
aI2
aI2
aI2
aI2
aI2
aI2
aI2
aI2
aI8
aI2
aI2
aI2
aI2
aI8
aI2
aI2
aI6
aI10
aI8
aI2
aI2
aI2
aI2
aI4
aI2
aI2
aI4
aI2
aI6
aI4
aI2
aI2
aI2
aI2
aI4
aI2
aI2
aI4
aI2
aI6
aI4
aI2
aI2
aI2
aI2
aI4
aI4
aI3
aI3
aI2
aI6
aI2
aI4
aI2
aI2
aI6
aI2
aI8
aI8
aI2
aI2
aI2
aI2
aI4
aI2
aI2
aI4
aI2
aI6
aI4
aI2
aI2
aI2
aI2
aI4
aI2
aI2
aI3
aI3
aI2
aI4
aI4
aI2
aI2
aI2
aI2
aI4
aI4
aI3
aI3
aI2
aI6
aI2
aI4
aI2
aI2
aI6
aI2
aI8
aI8
aI8
aI6
aI6
aI4
aI4
aI2
aI3
aI1
aI2
aI4
aI6
aI4
aI2
aI2
aI1
aI1
aI8
aI4
aI2
aI2
aI4
aI2
aI6
aI2
aI6
aI2
aI4
aI2
aI4
aI4
aI2
aI4
aI4
aI10
aI4
aI2
aI2
aI4
aI2
aI4
aI2
aI4
aI6
aI4
aI2
aI2
aI2
aI4
aI2
aI4
aI2
aI2
aI4
aI2
aI4
aI2
aI2
aI2
aI2
aI2
aI2
aI2
aI2
aI4
aI2
aI2
aI8
aI2
aI2
aI2
aI2
aI4
aI2
aI6
aI4
aI4
aI4
aI2
aI2
aI2
aI2
aI4
aI2
aI2
aI4
aI2
aI6
aI4
aI2
aI2
aI2
aI2
aI4
aI2
aI2
aI3
aI3
aI3
aI1
aI2
aI4
aI2
aI2
aI2
aI2
aI3
aI1
aI4
aI3
aI3
aI2
aI2
aI1
aI2
aI1
aI2
aI4
aI2
aI2
aI6
aI2
aI8
aI8
aI2
aI2
aI2
aI2
aI2
aI2
aI2
aI2
aI4
aI2
aI6
aI4
aI2
aI2
aI2
aI2
aI4
aI2
aI2
aI3
aI4
aI1
aI1
aI2
aI4
aI2
aI2
aI2
aI2
aI3
aI1
aI4
aI3
aI3
aI2
aI2
aI1
aI2
aI1
aI2
aI4
aI2
aI2
aI6
aI4
aI2
aI2
aI2
aI8
aI8
aI6
aI6
aI4
aI4
aI2
aI3
aI1
aI2
aI4
aI6
aI4
aI2
aI2
aI1
aI1
aI8
aI4
aI2
aI2
aI4
aI2
aI6
aI2
aI6
aI2
aI4
aI2
aI4
aI4
aI2
aI4
aI4
aI10
aI4
aI2
aI2
aI4
aI2
aI4
aI2
aI4
aI6
aI4
aI2
aI2
aI2
aI4
aI2
aI4
aI2
aI2
aI4
aI2
aI4
aI2
aI2
aI2
aI2
aI2
aI2
aI2
aI2
aI4
aI2
aI2
aI8
aI2
aI2
aI2
aI2
aI4
aI2
aI4
aI2
aI1
aI1
aI1
aI6
aI6
aI4
aI4
aI2
aI4
aI2
aI4
aI6
aI4
aI2
aI4
aI5
aI1
aI1
aI3
aI6
aI2
aI2
aI1
aI2
aI1
aI2
aI2
aI6
aI2
aI2
aI4
aI2
aI4
aI2
aI4
aI4
aI2
aI2
aI4
aI2
aI2
aI4
aI2
aI6
aI2
aI3
aI1
aI1
aI1
aI4
aI2
aI2
aI2
aI2
aI2
aI2
aI2
aI2
aI2
aI2
aI2
aI4
aI1
aI5
aI2
aI2
aI2
aI2
aI4
aI2
aI6
aI8
aI8
aI14
aI2
aI6
aI1
aI5
aI5
aI1
aI2
aI6
aI14
aI4
aI2
aI2
aI2
aI6
aI6
aI4
aI10
aI6
aI11
aI5
aa(lp41
I12
aI4
aI4
aI4
aI4
aI4
aI2
aI2
aI2
aI2
aI4
aI4
aI4
aI2
aI2
aI4
aI4
aI11
aI1
aI4
aI4
aI4
aI4
aI4
aI2
aI2
aI2
aI2
aI4
aI4
aI4
aI2
aI2
aI4
aI4
aI11
aI1
aI4
aI4
aI4
aI4
aI4
aI2
aI2
aI2
aI2
aI4
aI4
aI4
aI2
aI2
aI4
aI4
aI11
aI1
aI4
aI4
aI4
aI4
aI4
aI2
aI2
aI2
aI2
aI4
aI4
aI4
aI2
aI2
aI4
aI4
aI8
aI2
aI2
aI2
aI2
aI4
aI4
aI4
aI4
aI2
aI2
aI2
aI2
aI4
aI4
aI4
aI2
aI2
aI4
aI4
aI11
aI1
aI4
aI4
aI4
aI4
aI4
aI2
aI2
aI2
aI2
aI4
aI4
aI4
aI2
aI2
aI4
aI4
aI8
aI1
aI1
aI1
aI1
aI1
aI1
aI1
aI1
aI8
aI2
aI2
aI2
aI2
aI4
aI4
aI2
aI2
aI2
aI2
aI4
aI4
aI2
aI2
aI2
aI2
aI4
aI4
aI11
aI1
aa(lp42
I4
aI4
aI6
aI1
aI1
aI6
aI4
aI2
aI2
aI2
aI2
aI2
aI2
aI2
aI2
aI2
aI2
aI2
aI6
aI6
aI2
aI1
aI1
aI4
aI4
aI4
aI2
aI1
aI1
aI6
aI4
aI2
aI2
aI2
aI2
aI2
aI2
aI2
aI2
aI2
aI2
aI2
aI4
aI12
aI4
aI4
aI6
aI1
aI1
aI6
aI4
aI2
aI2
aI2
aI2
aI2
aI2
aI2
aI2
aI2
aI2
aI2
aI6
aI2
aI6
aI1
aI1
aI4
aI4
aI6
aI1
aI1
aI6
aI4
aI2
aI2
aI2
aI2
aI2
aI2
aI2
aI2
aI2
aI2
aI2
aI4
aI12
aI2
aI2
aI2
aI2
aI4
aI4
aI2
aI2
aI2
aI2
aI4
aI4
aI2
aI2
aI2
aI2
aI2
aI2
aI2
aI2
aI8
aI4
aI4
aI4
aI4
aI6
aI1
aI1
aI6
aI4
aI2
aI2
aI2
aI2
aI2
aI2
aI2
aI2
aI2
aI2
aI2
aI6
aI8
aI1
aI1
aI4
aI4
aI6
aI1
aI1
aI6
aI4
aI2
aI2
aI2
aI2
aI2
aI2
aI2
aI2
aI2
aI2
aI2
aI4
aI12
aI2
aI2
aI2
aI6
aI2
aI1
aI1
aI2
aI2
aI2
aI6
aI4
aI2
aI2
aI2
aI6
aI2
aI1
aI1
aI2
aI2
aI2
aI6
aI2
aI2
aI4
aI4
aI4
aI2
aI2
aI4
aI4
aI4
aI2
aI2
aI2
aI2
aI4
aI4
aI2
aI2
aI8
aI8
aI2
aI2
aI2
aI6
aI2
aI1
aI1
aI2
aI2
aI2
aI6
aI4
aI2
aI2
aI2
aI6
aI2
aI1
aI1
aI2
aI2
aI2
aI6
aI2
aI2
aI4
aI4
aI4
aI2
aI2
aI4
aI4
aI4
aI2
aI2
aI2
aI2
aI12
aI2
aI2
aI4
aI8
aI4
aI4
aI6
aI1
aI1
aI6
aI2
aI2
aI2
aI2
aI2
aI2
aI2
aI2
aI2
aI2
aI2
aI2
aI2
aI6
aI6
aI2
aI1
aI1
aI4
aI4
aI6
aI1
aI1
aI6
aI2
aI2
aI2
aI2
aI2
aI2
aI2
aI2
aI2
aI2
aI2
aI2
aI2
aI4
aI12
aI2
aI2
aI2
aI2
aI4
aI4
aI2
aI2
aI2
aI2
aI4
aI4
aI2
aI2
aI2
aI2
aI2
aI2
aI2
aI2
aI4
aI4
aI4
aI4
aI4
aI4
aI6
aI1
aI1
aI6
aI4
aI2
aI2
aI2
aI2
aI2
aI2
aI2
aI2
aI2
aI2
aI2
aI6
aI6
aI2
aI1
aI1
aI4
aI4
aI6
aI1
aI1
aI6
aI4
aI2
aI2
aI2
aI2
aI2
aI2
aI2
aI2
aI2
aI2
aI2
aI4
aI12
aI4
aI4
aI6
aI1
aI1
aI8
aI2
aI2
aI2
aI2
aI2
aI2
aI2
aI4
aI2
aI2
aI2
aI6
aI6
aI2
aI1
aI1
aI4
aI4
aI6
aI1
aI1
aI8
aI2
aI2
aI2
aI2
aI2
aI2
aI2
aI2
aI2
aI2
aI2
aI17
aI1
aa(lp43
I4
aI2
aI2
aI4
aI2
aI2
aI11
aI1
aI2
aI2
aI4
aI4
aI4
aI4
aI4
aI2
aI10
aI4
aI4
aI4
aI2
aI4
aI8
aI2
aI2
aI2
aI4
aI2
aI2
aI4
aI2
aI10
aI4
aI2
aI4
aI6
aI4
aI2
aI4
aI6
aI4
aI2
aI4
aI7
aI6
aI1
aI14
aI4
aI2
aI2
aI4
aI2
aI2
aI11
aI1
aI2
aI2
aI4
aI4
aI4
aI4
aI4
aI2
aI2
aI8
aI4
aI4
aI4
aI2
aI4
aI8
aI2
aI2
aI2
aI4
aI2
aI2
aI4
aI2
aI10
aI4
aI2
aI4
aI6
aI4
aI2
aI4
aI6
aI4
aI2
aI4
aI8
aI14
aI4
aI4
aI3
aI4
aI4
aI2
aI4
aI8
aI2
aI2
aI2
aI3
aI2
aI6
aI4
aI6
aI6
aI2
aI2
aI4
aI2
aI4
aI6
aI4
aI2
aI4
aI4
aI2
aI4
aI2
aI10
aI8
aI4
aI4
aI3
aI4
aI4
aI2
aI4
aI8
aI2
aI2
aI2
aI3
aI2
aI6
aI4
aI6
aI6
aI2
aI2
aI3
aI2
aI4
aI7
aI2
aI2
aI4
aI4
aI2
aI4
aI2
aI11
aI14
aa(lp44
I2
aI1
aI3
aI1
aI7
aI1
aI1
aI3
aI4
aI1
aI3
aI5
aI2
aI1
aI3
aI1
aI5
aI1
aI1
aI1
aI1
aI3
aI3
aI1
aI3
aI1
aI5
aI2
aI1
aI3
aI1
aI5
aI1
aI1
aI1
aI1
aI1
aI1
aI2
aI1
aI8
aI2
aI1
aI3
aI1
aI5
aI1
aI1
aI1
aI1
aI2
aI1
aI3
aI1
aI5
aI1
aI1
aI1
aI1
aI2
aI1
aI3
aI1
aI4
aI1
aI1
aI1
aI1
aI1
aI2
aI1
aI3
aI1
aI5
aI1
aI1
aI1
aI1
aI2
aI1
aI3
aI1
aI4
aI1
aI1
aI1
aI1
aI1
aI3
aI3
aI1
aI5
aI1
aI1
aI1
aI1
aI2
aI1
aI3
aI1
aI4
aI1
aI1
aI1
aI1
aI1
aI2
aI1
aI3
aI3
aI3
aI1
aI1
aI1
aI1
aI2
aI1
aI3
aI1
aI4
aI1
aI1
aI1
aI1
aI1
aI3
aI3
aI1
aI9
aI2
aI1
aI3
aI1
aI7
aI1
aI1
aI3
aI4
aI1
aI3
aI5
aI2
aI1
aI3
aI1
aI5
aI1
aI1
aI1
aI1
aI3
aI3
aI1
aI3
aI1
aI5
aI2
aI1
aI3
aI1
aI5
aI1
aI1
aI1
aI1
aI1
aI1
aI2
aI1
aI8
aI2
aI1
aI3
aI1
aI5
aI1
aI1
aI1
aI1
aI2
aI1
aI3
aI1
aI5
aI1
aI1
aI1
aI1
aI2
aI1
aI3
aI1
aI4
aI1
aI1
aI1
aI1
aI1
aI2
aI1
aI3
aI1
aI5
aI1
aI1
aI1
aI1
aI2
aI1
aI3
aI1
aI4
aI1
aI1
aI1
aI1
aI1
aI3
aI3
aI1
aI5
aI1
aI1
aI1
aI1
aI2
aI1
aI3
aI1
aI4
aI1
aI1
aI1
aI1
aI1
aI2
aI1
aI3
aI3
aI3
aI1
aI1
aI1
aI1
aI2
aI1
aI3
aI1
aI4
aI1
aI1
aI1
aI1
aI1
aI3
aI3
aI1
aI3
aI2
aI3
aa(lp45
I12
aI2
aI2
aI4
aI4
aI2
aI2
aI2
aI2
aI4
aI4
aI4
aI2
aI2
aI6
aI2
aI2
aI2
aI2
aI13
aI1
aI2
aI2
aI4
aI4
aI2
aI2
aI2
aI2
aI4
aI4
aI4
aI2
aI2
aI4
aI2
aI2
aI6
aI2
aI8
aI7
aI1
aI2
aI1
aI4
aI1
aI2
aI1
aI5
aI2
aI2
aI2
aI6
aI2
aI2
aI2
aI1
aI5
aI2
aI2
aI2
aI6
aI1
aI1
aI2
aI4
aI2
aI2
aI2
aI1
aI3
aI2
aI4
aI2
aI2
aI2
aI1
aI3
aI2
aI4
aI2
aI2
aI2
aI1
aI3
aI2
aI6
aI1
aI3
aI6
aI4
aI2
aI2
aI6
aI2
aI6
aI1
aI3
aI6
aI4
aI2
aI2
aI6
aI2
aI6
aI4
aI6
aI4
aI2
aI2
aI6
aI2
aI2
aI1
aI3
aI2
aI2
aI1
aI5
aI4
aI2
aI2
aI4
aI4
aI2
aI2
aI2
aI4
aI10
aI2
aI2
aI6
aI2
aI6
aI4
aI6
aI4
aI2
aI2
aI6
aI2
aI5
aI1
aI4
aI6
aI4
aI2
aI2
aI4
aI4
aI2
aI2
aI2
aI2
aI4
aI4
aI4
aI2
aI2
aI6
aI2
aI6
aI4
aI6
aI8
aI11
aI1
aI2
aI1
aI1
aI1
aI1
aI4
aI10
aI8
aI6
aI1
aI1
aI4
aI8
aI2
aI2
aI4
aI4
aI2
aI2
aI2
aI2
aI4
aI8
aI2
aI2
aI4
aI2
aI2
aI6
aI2
aI15
aI1
aI2
aI1
aI4
aI1
aI2
aI1
aI5
aI2
aI2
aI2
aI6
aI2
aI2
aI2
aI1
aI5
aI2
aI2
aI2
aI6
aI1
aI1
aI2
aI4
aI2
aI2
aI2
aI1
aI3
aI2
aI4
aI2
aI2
aI2
aI1
aI3
aI2
aI4
aI2
aI2
aI2
aI1
aI3
aI2
aI6
aI1
aI3
aI6
aI4
aI2
aI2
aI6
aI2
aI6
aI1
aI3
aI6
aI4
aI2
aI2
aI6
aI2
aI6
aI4
aI6
aI4
aI2
aI2
aI6
aI2
aI2
aI1
aI3
aI2
aI2
aI1
aI5
aI4
aI2
aI2
aI4
aI4
aI2
aI2
aI2
aI4
aI10
aI2
aI2
aI6
aI2
aI6
aI4
aI6
aI4
aI2
aI2
aI6
aI2
aI5
aI1
aI4
aI6
aI4
aI2
aI2
aI4
aI4
aI2
aI2
aI2
aI2
aI4
aI4
aI4
aI2
aI2
aI6
aI2
aI6
aI4
aI6
aI4
aI2
aI2
aI6
aI2
aI6
aI4
aI1
aI5
aI4
aI2
aI1
aI1
aI6
aI2
aI5
aI1
aI4
aI6
aI4
aI2
aI2
aI4
aI4
aI2
aI2
aI2
aI2
aI4
aI4
aI4
aI2
aI2
aI6
aI2
aI12
aI2
aI1
aI3
aI2
aI2
aI2
aI6
aI2
aI2
aI2
aI2
aI2
aI8
aI8
aa(lp46
I1
aI1
aI1
aI1
aI1
aI1
aI1
aI1
aI4
aI4
aI1
aI1
aI1
aI1
aI1
aI1
aI1
aI1
aI2
aI2
aI2
aI2
aI1
aI1
aI1
aI1
aI1
aI1
aI1
aI1
aI8
aI1
aI1
aI1
aI1
aI1
aI1
aI1
aI9
aI1
aI1
aI1
aI1
aI1
aI1
aI1
aI1
aI1
aI1
aI3
aI2
aI1
aI1
aI1
aI1
aI1
aI1
aI1
aI1
aI9
aI1
aI1
aI1
aI1
aI1
aI1
aI1
aI1
aI1
aI2
aI2
aI1
aI1
aI1
aI1
aI1
aI1
aI1
aI1
aI2
aI9
aI1
aI1
aI1
aI1
aI3
aI1
aI1
aI1
aI1
aI2
aI1
aI1
aI1
aI1
aI1
aI1
aI1
aI1
aI1
aI1
aI2
aI7
aI1
aI1
aI1
aI1
aI1
aI1
aI1
aI1
aI2
aI2
aI1
aI1
aI1
aI1
aI1
aI1
aI1
aI1
aI1
aI1
aI1
aI1
aI7
aI1
aI1
aI1
aI1
aI1
aI1
aI1
aI1
aI1
aI1
aI1
aI2
aI1
aI1
aI1
aI1
aI1
aI1
aI1
aI1
aI1
aI1
aI3
aI1
aI2
aI3
aI1
aI1
aI1
aI1
aI1
aI1
aI1
aI1
aI1
aI2
aI2
aI1
aI1
aI1
aI1
aI1
aI1
aI1
aI1
aI1
aI1
aI1
aI1
aI2
aI2
aI3
aI1
aI1
aI1
aI1
aI1
aI1
aI1
aI1
aI1
aI1
aI1
aI2
aI1
aI1
aI1
aI1
aI1
aI1
aI1
aI1
aI1
aI1
aI3
aI1
aI2
aI2
aI2
aI1
aI1
aI1
aI1
aI1
aI1
aI2
aI1
aI1
aI2
aI1
aI1
aI1
aI1
aI1
aI5
aI1
aI2
aI2
aI2
aI1
aI16
aI2
aI1
aI1
aI1
aI1
aI1
aI1
aI1
aI1
aI1
aI3
aI2
aI1
aI1
aI1
aI1
aI1
aI1
aI1
aI1
aI9
aI1
aI1
aI1
aI1
aI1
aI1
aI1
aI1
aI1
aI2
aI2
aI1
aI1
aI1
aI1
aI1
aI1
aI1
aI1
aI2
aI9
aI1
aI1
aI1
aI1
aI2
aI1
aI1
aI1
aI1
aI1
aI2
aI1
aI1
aI1
aI1
aI1
aI1
aI1
aI1
aI1
aI1
aI2
aI7
aI1
aI1
aI1
aI1
aI1
aI1
aI1
aI1
aI2
aI2
aI1
aI1
aI1
aI1
aI1
aI1
aI1
aI1
aI1
aI1
aI2
aI7
aI1
aI1
aI1
aI1
aI1
aI1
aI1
aI1
aI1
aI1
aI1
aI2
aI1
aI1
aI1
aI1
aI1
aI1
aI1
aI1
aI1
aI1
aI3
aI1
aI2
aI3
aI1
aI1
aI1
aI1
aI1
aI1
aI1
aI2
aI2
aI2
aI1
aI1
aI1
aI1
aI1
aI1
aI1
aI1
aI1
aI1
aI2
aI2
aI2
aI3
aI1
aI1
aI1
aI1
aI1
aI1
aI1
aI1
aI1
aI1
aI1
aI2
aI1
aI1
aI1
aI1
aI1
aI1
aI1
aI1
aI1
aI1
aI3
aI1
aI2
aI2
aI2
aI1
aI1
aI1
aI1
aI1
aI1
aI2
aI1
aI1
aI2
aI1
aI1
aI1
aI1
aI1
aI5
aI1
aI2
aI2
aI2
aI1
aI1
aI3
aI1
aI1
aI1
aI1
aI6
aI2
aI3
aI1
aI1
aI1
aI1
aI3
aI5
aI1
aI1
aI1
aI1
aI1
aI1
aI1
aI2
aI2
aI2
aI1
aI1
aI1
aI1
aI1
aI1
aI1
aI1
aI1
aI1
aI2
aI2
aI2
aI3
aI1
aI1
aI1
aI1
aI1
aI1
aI1
aI1
aI1
aI1
aI1
aI2
aI1
aI1
aI1
aI1
aI1
aI1
aI1
aI1
aI1
aI1
aI3
aI1
aI2
aI3
aI1
aI1
aI1
aI1
aI1
aI1
aI1
aI2
aI1
aI1
aI2
aI1
aI1
aI1
aI1
aI1
aI5
aI1
aI2
aI2
aI2
aI1
aI16
aI1
aI1
aI1
aI1
aI1
aI1
aI1
aI1
aI1
aI4
aI4
aI1
aI1
aI1
aI1
aI1
aI1
aI1
aI1
aI2
aI2
aI2
aI2
aI1
aI1
aI1
aI1
aI1
aI1
aI1
aI1
aI8
aI1
aI1
aI1
aI1
aI1
aI1
aI1
aI9
aa(lp47
I2
aI2
aI2
aI8
aI2
aI2
aI6
aI8
aI2
aI6
aI8
aI2
aI6
aI6
aI2
aI8
aI2
aI4
aI2
aI10
aI4
aI2
aI2
aI6
aI4
aI4
aI2
aI8
aI2
aI2
aI2
aI8
aI8
aI2
aI6
aI6
aI4
aI6
aI10
aI4
aI4
aI4
aI4
aI6
aI2
aI4
aI2
aI2
aI10
aI2
aI2
aI2
aI6
aI4
aI4
aI2
aI8
aI2
aI2
aI2
aI8
aI6
aI4
aI6
aI4
aI4
aI2
aI6
aI25
aI1
aI8
aI2
aI2
aI2
aI13
aI1
aI2
aI2
aI6
aI10
aI2
aI4
aI4
aI2
aI2
aI2
aI8
aI2
aI2
aI2
aI10
aI2
aI2
aI2
aI2
aI6
aI6
aI4
aI8
aI4
aI4
aI6
aI2
aI2
aI2
aI2
aI6
aI2
aI2
aI2
aI2
aI4
aI6
aI4
aI2
aI2
aI2
aI4
aI6
aI4
aI2
aI8
aI2
aI2
aI2
aI2
aI4
aI2
aI6
aI4
aI6
aI2
aI2
aI2
aI2
aI6
aI2
aI4
aI2
aI2
aI12
aI4
aI6
aI2
aI4
aI4
aI2
aI8
aI2
aI2
aI2
aI2
aI2
aI2
aI2
aI2
aI2
aI2
aI2
aI2
aI6
aI2
aI4
aI2
aI2
aI10
aI4
aI2
aI6
aI4
aI4
aI2
aI4
aI2
aI6
aI2
aI2
aI6
aI6
aI2
aI2
aI6
aI4
aI4
aI2
aI6
aI8
aI17
aI1
aI6
aI2
aI4
aI2
aI2
aI10
aI2
aI2
aI2
aI6
aI4
aI4
aI2
aI8
aI2
aI2
aI2
aI8
aI6
aI2
aI2
aI6
aI4
aI4
aI2
aI6
aI4
aI2
aI2
aI17
aI1
aI8
aI2
aI2
aI2
aI13
aI1
aI2
aI2
aI6
aI10
aI2
aI4
aI4
aI2
aI2
aI2
aI8
aI2
aI2
aI2
aI10
aI2
aI2
aI2
aI2
aI6
aI6
aI4
aI8
aI4
aI4
aI6
aI2
aI2
aI2
aI2
aI6
aI2
aI2
aI2
aI2
aI4
aI6
aI4
aI2
aI2
aI2
aI4
aI6
aI4
aI2
aI8
aI2
aI2
aI2
aI2
aI4
aI2
aI6
aI4
aI6
aI2
aI2
aI2
aI2
aI6
aI2
aI4
aI2
aI2
aI12
aI4
aI6
aI2
aI4
aI4
aI2
aI15
aI1
aI2
aI2
aI2
aI2
aI2
aI2
aI2
aI2
aI6
aI2
aI4
aI2
aI10
aI2
aI4
aI2
aI6
aI4
aI4
aI13
aI1
aI2
aI2
aI6
aI6
aI2
aI2
aI6
aI4
aI4
aI2
aI6
aI2
aI8
aatb.