cnumpy.core.multiarray
_reconstruct
p1
(cnumpy
ndarray
p2
(I0
tS'b'
tRp3
(I1
(L106L
tcnumpy
dtype
p4
(S'O8'
I0
I1
tRp5
(I3
S'|'
NNNI-1
I-1
I63
tbI00
(lp6
(lp7
I0
aI81
aI83
aI84
aI81
aI83
aI84
aI81
aI81
aI83
aI84
aI81
aI83
aI84
aI86
aI88
aI76
aI79
aI81
aI79
aI76
aI74
aI79
aI74
aI79
aI76
aI69
aI72
aI76
aI74
aI72
aI71
aI72
aI69
aI84
aI83
aI84
aI81
aI83
aI84
aI81
aI84
aI83
aI84
aI81
aI83
aI84
aI86
aI88
aI76
aI79
aI81
aI79
aI76
aI74
aI79
aI74
aI79
aI76
aI69
aI71
aI72
aI76
aI71
aI72
aI69
aI84
aI83
aI84
aI88
aI86
aI86
aI88
aI79
aI76
aI86
aI84
aI76
aI79
aI81
aI81
aI79
aI76
aI79
aI76
aI76
aI79
aI81
aI81
aI79
aI76
aI74
aI79
aI74
aI79
aI76
aI76
aI74
aI72
aI76
aI71
aI72
aI69
aI71
aI72
aI69
aI69
aI72
aI76
aI0
aa(lp8
I76
aI74
aI69
aI0
aI76
aI74
aI71
aI0
aI76
aI72
aI69
aI0
aI74
aI72
aI69
aI0
aI76
aI74
aI69
aI0
aI76
aI74
aI71
aI72
aI71
aI69
aI0
aI79
aI76
aI74
aI76
aI69
aI79
aI76
aI74
aI76
aI71
aI79
aI76
aI74
aI76
aI67
aI79
aI76
aI74
aI76
aI72
aI76
aI79
aI84
aI83
aI81
aI76
aI79
aI86
aI84
aI83
aI88
aI86
aI84
aI83
aI81
aI84
aI83
aI84
aI83
aI81
aI79
aI76
aI74
aI76
aI69
aI79
aI76
aI74
aI76
aI71
aI79
aI76
aI74
aI76
aI67
aI0
aI72
aI71
aI69
aI76
aI79
aI88
aI86
aI84
aI76
aI79
aI86
aI84
aI83
aI84
aI83
aI81
aI0
aI88
aI86
aI81
aI0
aI88
aI86
aI83
aI0
aI88
aI84
aI81
aI0
aI84
aI83
aI81
aI0
aI88
aI86
aI81
aI91
aI88
aI83
aI84
aI83
aI81
aI0
aI71
aI72
aI79
aI76
aI74
aI76
aI69
aI79
aI76
aI74
aI76
aI71
aI79
aI76
aI74
aI76
aI67
aI79
aI76
aI74
aI76
aI72
aI76
aI79
aI84
aI83
aI81
aI81
aI76
aI79
aI86
aI84
aI83
aI84
aI83
aI81
aI0
aI84
aI83
aI81
aI83
aI84
aI91
aI88
aI86
aI88
aI81
aI91
aI88
aI86
aI88
aI83
aI91
aI88
aI86
aI88
aI79
aI91
aI88
aI86
aI88
aI84
aI76
aI79
aI84
aI83
aI81
aI76
aI79
aI86
aI84
aI83
aI88
aI84
aI81
aI0
aI79
aI76
aI74
aI76
aI69
aI79
aI76
aI74
aI76
aI71
aI79
aI76
aI74
aI76
aI67
aI79
aI76
aI74
aI76
aI72
aI76
aI79
aI88
aI86
aI84
aI76
aI79
aI86
aI84
aI83
aI76
aI79
aI84
aI83
aI81
aI69
aI72
aI76
aI81
aI83
aI88
aI93
aa(lp9
I81
aI88
aI86
aI88
aI91
aI79
aI84
aI83
aI81
aI88
aI86
aI88
aI83
aI72
aI71
aI69
aI76
aI74
aI76
aI81
aI86
aI88
aI83
aI84
aI83
aI81
aI0
aI81
aI88
aI86
aI88
aI91
aI79
aI84
aI83
aI81
aI88
aI86
aI88
aI83
aI0
aI72
aI71
aI69
aI76
aI74
aI76
aI81
aI0
aI86
aI88
aI83
aI0
aI79
aI81
aI81
aI84
aI93
aI0
aI96
aI98
aI95
aI0
aI96
aI95
aI93
aI84
aI83
aI84
aI83
aI81
aI79
aI81
aI88
aI96
aI98
aI95
aI91
aI93
aI0
aI84
aI86
aI88
aI86
aI84
aI83
aI81
aI88
aI0
aI84
aI86
aI0
aI86
aI88
aI0
aI86
aI84
aI0
aI84
aI83
aI81
aI88
aI0
aI86
aI84
aI83
aI79
aI81
aI0
aI81
aI88
aI86
aI88
aI91
aI79
aI0
aI84
aI83
aI81
aI88
aI0
aI84
aI83
aI81
aI86
aI0
aI72
aI71
aI69
aI76
aI74
aI76
aI81
aI0
aI88
aI89
aI86
aI84
aI83
aI84
aI81
aI100
aI0
aa(lp10
I87
aI82
aI89
aI82
aI90
aI87
aI94
aI82
aI87
aI82
aI87
aI82
aI89
aI82
aI90
aI87
aI94
aI82
aI87
aI82
aI87
aI82
aI90
aI82
aI94
aI82
aI92
aI95
aI94
aI92
aI90
aI92
aI90
aI89
aI0
aI77
aI74
aI75
aI77
aI78
aI82
aI71
aI0
aI82
aI80
aI77
aI73
aI75
aI77
aI80
aI70
aI82
aI80
aI78
aI75
aI75
aI77
aI78
aI82
aI71
aI82
aI80
aI82
aI77
aI70
aI78
aI77
aI75
aI77
aI78
aI80
aI82
aI87
aI89
aI90
aI94
aI83
aI94
aI92
aI94
aI89
aI85
aI87
aI89
aI92
aI82
aI94
aI92
aI90
aI87
aI87
aI89
aI90
aI94
aI83
aI94
aI92
aI90
aI89
aI82
aI94
aI92
aI90
aI87
aI89
aI90
aI94
aI90
aI87
aI75
aI77
aI78
aI77
aI78
aI80
aI82
aI80
aI82
aI83
aI77
aI73
aI75
aI77
aI78
aI80
aI78
aI80
aI82
aI78
aI75
aI77
aI78
aI80
aI82
aI80
aI80
aI75
aI78
aI77
aI77
aI70
aI77
aI75
aI77
aI82
aI87
aI89
aI90
aI94
aI83
aI94
aI92
aI90
aI89
aI85
aI87
aI89
aI92
aI82
aI94
aI92
aI90
aI87
aI87
aI89
aI90
aI94
aI83
aI94
aI92
aI94
aI89
aI82
aI89
aI87
aI86
aI87
aI82
aI89
aI90
aI94
aI83
aI94
aI92
aI94
aI92
aI90
aI89
aI90
aI89
aI85
aI82
aI80
aI82
aI80
aI82
aI85
aI82
aI80
aI82
aI80
aI82
aI85
aI78
aI75
aI77
aI78
aI77
aI78
aI82
aI71
aI82
aI80
aI82
aI77
aI89
aI86
aI82
aI80
aI78
aI75
aI106
aa(lp11
I84
aI0
aI88
aI83
aI0
aI84
aI81
aI88
aI84
aI83
aI81
aI88
aI72
aI0
aI76
aI71
aI0
aI72
aI71
aI69
aI76
aI0
aI72
aI71
aI67
aI69
aI72
aI76
aI67
aI69
aI79
aI74
aI67
aI69
aI71
aI74
aI67
aI69
aI79
aI76
aI72
aI74
aI76
aI81
aI72
aI74
aI76
aI83
aI0
aI84
aI83
aI81
aI88
aI0
aI84
aI83
aI81
aI88
aI79
aI81
aI84
aI88
aI79
aI81
aI91
aI86
aI79
aI81
aI83
aI86
aI79
aI81
aI91
aI88
aI84
aI86
aI88
aI93
aI84
aI86
aI88
aI95
aI0
aI96
aI95
aI93
aI0
aI72
aI72
aI76
aI79
aI84
aI88
aI0
aI76
aI79
aI86
aI0
aI76
aI79
aI86
aI0
aI76
aI79
aI84
aI0
aI84
aI83
aI81
aI79
aI76
aI0
aI74
aI76
aI79
aI76
aI71
aI0
aI72
aI71
aI72
aI69
aI0
aI69
aI72
aI67
aI69
aI72
aI76
aI67
aI69
aI79
aI71
aI67
aI69
aI71
aI74
aI67
aI69
aI79
aI76
aI0
aI72
aI74
aI76
aI74
aI84
aI0
aI72
aI74
aI76
aI74
aI83
aI0
aI84
aI83
aI84
aI83
aI81
aI79
aI76
aI74
aI72
aI71
aI69
aI0
aI105
aI0
aa(lp12
I94
aI90
aI87
aI94
aI95
aI94
aI92
aI89
aI85
aI89
aI95
aI94
aI83
aI82
aI80
aI83
aI82
aI78
aI75
aI82
aI80
aI78
aI75
aI78
aI77
aI0
aI90
aI89
aI87
aI85
aI82
aI80
aI82
aI80
aI80
aI80
aI82
aI85
aI85
aI82
aI80
aI85
aI82
aI0
aI80
aI82
aI83
aI82
aI80
aI83
aI82
aI78
aI75
aI75
aI78
aI82
aI80
aI78
aI77
aI74
aI75
aI0
aI87
aI82
aI89
aI90
aI89
aI82
aI82
aI82
aI85
aI87
aI78
aI85
aI80
aI82
aI0
aI85
aI82
aI80
aI78
aI80
aI82
aI78
aI77
aI75
aI75
aI78
aI82
aI80
aI78
aI77
aI78
aI87
aI0
aa(lp13
I88
aI81
aI84
aI88
aI81
aI84
aI86
aI88
aI80
aI83
aI88
aI80
aI83
aI86
aI88
aI81
aI83
aI88
aI81
aI83
aI86
aI88
aI81
aI84
aI93
aI81
aI84
aI86
aI88
aI81
aI84
aI88
aI81
aI84
aI86
aI88
aI80
aI83
aI86
aI84
aI83
aI84
aI81
aI69
aI72
aI69
aI76
aI69
aI72
aI76
aI69
aI72
aI74
aI76
aI68
aI71
aI76
aI68
aI71
aI74
aI76
aI69
aI71
aI76
aI69
aI71
aI74
aI76
aI69
aI72
aI81
aI69
aI72
aI74
aI76
aI69
aI72
aI76
aI69
aI72
aI74
aI76
aI68
aI71
aI72
aI71
aI72
aI71
aI69
aI0
aI76
aI84
aI83
aI76
aI84
aI83
aI76
aI84
aI83
aI74
aI72
aI76
aI84
aI83
aI76
aI84
aI83
aI76
aI84
aI83
aI74
aI72
aI88
aI96
aI95
aI88
aI96
aI95
aI88
aI98
aI95
aI91
aI88
aI81
aI84
aI88
aI81
aI88
aI86
aI79
aI81
aI0
aI76
aI84
aI83
aI76
aI84
aI83
aI76
aI84
aI83
aI74
aI72
aI76
aI84
aI83
aI76
aI84
aI83
aI76
aI86
aI83
aI74
aI72
aI88
aI96
aI95
aI88
aI96
aI95
aI88
aI96
aI95
aI86
aI88
aI81
aI84
aI88
aI81
aI88
aI86
aI79
aI81
aI64
aI76
aI84
aI83
aI76
aI84
aI83
aI76
aI84
aI83
aI74
aI72
aI76
aI84
aI83
aI76
aI84
aI83
aI76
aI86
aI83
aI74
aI72
aI88
aI96
aI95
aI88
aI96
aI95
aI88
aI96
aI95
aI86
aI88
aI81
aI84
aI88
aI81
aI88
aI86
aI79
aI81
aI60
aa(lp14
I0
aI69
aI76
aI74
aI72
aI71
aI72
aI71
aI69
aI76
aI69
aI76
aI74
aI72
aI71
aI72
aI71
aI69
aI72
aI81
aI88
aI86
aI84
aI83
aI84
aI83
aI81
aI88
aI81
aI88
aI86
aI84
aI83
aI76
aI81
aI0
aI81
aI76
aI72
aI84
aI83
aI79
aI76
aI74
aI72
aI76
aI81
aI76
aI72
aI84
aI83
aI81
aI79
aI76
aI74
aI76
aI69
aI76
aI74
aI72
aI71
aI72
aI71
aI69
aI76
aI93
aI88
aI84
aI93
aI88
aI83
aI84
aI83
aI81
aI0
aI69
aI76
aI74
aI72
aI71
aI72
aI71
aI69
aI76
aI69
aI76
aI74
aI72
aI71
aI72
aI71
aI69
aI72
aI81
aI88
aI86
aI84
aI83
aI84
aI83
aI81
aI88
aI81
aI88
aI86
aI84
aI83
aI76
aI81
aI0
aI81
aI76
aI72
aI84
aI83
aI79
aI76
aI74
aI72
aI76
aI81
aI76
aI72
aI84
aI83
aI81
aI79
aI76
aI74
aI76
aI69
aI76
aI74
aI72
aI71
aI72
aI71
aI69
aI76
aI76
aI88
aI86
aI84
aI83
aI79
aI81
aI0
aI64
aI76
aI74
aI72
aI71
aI59
aI57
aI84
aI93
aI0
aa(lp15
I69
aI71
aI72
aI76
aI69
aI71
aI72
aI76
aI69
aI71
aI72
aI76
aI74
aI76
aI71
aI0
aI69
aI71
aI72
aI76
aI69
aI71
aI72
aI76
aI69
aI71
aI72
aI76
aI74
aI72
aI76
aI0
aI74
aI76
aI77
aI76
aI77
aI76
aI77
aI76
aI74
aI76
aI74
aI76
aI74
aI76
aI74
aI76
aI74
aI76
aI0
aI69
aI71
aI72
aI76
aI69
aI71
aI72
aI76
aI69
aI71
aI72
aI76
aI74
aI72
aI71
aI72
aI71
aI72
aI71
aI69
aI0
aI69
aI72
aI81
aI79
aI81
aI79
aI81
aI79
aI81
aI79
aI81
aI79
aI81
aI79
aI81
aI79
aI81
aI79
aI81
aI79
aI81
aI79
aI81
aI79
aI76
aI79
aI72
aI0
aI69
aI72
aI76
aI74
aI76
aI74
aI76
aI74
aI76
aI74
aI76
aI74
aI76
aI74
aI76
aI74
aI72
aI74
aI76
aI67
aI68
aI0
aI69
aI72
aI81
aI79
aI81
aI79
aI81
aI79
aI81
aI79
aI81
aI79
aI81
aI79
aI81
aI79
aI81
aI79
aI81
aI79
aI81
aI79
aI81
aI79
aI76
aI79
aI72
aI0
aI69
aI72
aI76
aI74
aI76
aI74
aI76
aI74
aI76
aI79
aI71
aI72
aI71
aI72
aI71
aI69
aI0
aI81
aI84
aI93
aI91
aI93
aI91
aI93
aI91
aI93
aI91
aI93
aI91
aI93
aI91
aI93
aI91
aI93
aI91
aI93
aI91
aI93
aI91
aI93
aI91
aI88
aI91
aI84
aI0
aI81
aI84
aI88
aI86
aI88
aI86
aI88
aI86
aI88
aI86
aI88
aI86
aI88
aI86
aI88
aI86
aI84
aI86
aI88
aI67
aI68
aI0
aI69
aI72
aI81
aI79
aI81
aI79
aI81
aI79
aI81
aI79
aI81
aI79
aI81
aI79
aI81
aI79
aI81
aI79
aI81
aI79
aI81
aI79
aI81
aI79
aI76
aI79
aI72
aI0
aI69
aI72
aI76
aI74
aI76
aI74
aI76
aI74
aI76
aI79
aI71
aI72
aI71
aI72
aI71
aI69
aI0
aI81
aI83
aI84
aI83
aI84
aI88
aI86
aI84
aI83
aI81
aI83
aI88
aI84
aI83
aI81
aI83
aI84
aI86
aI84
aI86
aI88
aI0
aI74
aI76
aI77
aI76
aI77
aI76
aI77
aI76
aI74
aI76
aI74
aI72
aI69
aI76
aI74
aI76
aI74
aI71
aI72
aI69
aI0
aI69
aI72
aI81
aI79
aI81
aI79
aI81
aI79
aI81
aI79
aI81
aI79
aI81
aI79
aI81
aI79
aI81
aI79
aI81
aI79
aI81
aI79
aI81
aI79
aI76
aI79
aI72
aI0
aI69
aI72
aI76
aI74
aI76
aI74
aI76
aI74
aI76
aI74
aI76
aI74
aI72
aI74
aI79
aI76
aI0
aI68
aI0
aI69
aI72
aI81
aI79
aI81
aI79
aI81
aI79
aI81
aI79
aI81
aI79
aI81
aI79
aI81
aI79
aI81
aI79
aI81
aI79
aI81
aI79
aI81
aI79
aI76
aI79
aI72
aI0
aI69
aI72
aI76
aI74
aI76
aI74
aI76
aI74
aI76
aI79
aI71
aI72
aI71
aI72
aI71
aI69
aI69
aI71
aI84
aI86
aI88
aI91
aI86
aI83
aI84
aI83
aI84
aI88
aI83
aI84
aI83
aI84
aI88
aI83
aI84
aI83
aI84
aI83
aI81
aI93
aa(lp16
I69
aI76
aI74
aI72
aI71
aI72
aI74
aI76
aI69
aI0
aI69
aI76
aI74
aI72
aI71
aI72
aI74
aI76
aI81
aI0
aI72
aI74
aI76
aI74
aI79
aI76
aI74
aI74
aI79
aI84
aI83
aI81
aI79
aI81
aI79
aI76
aI74
aI76
aI74
aI72
aI71
aI72
aI74
aI76
aI69
aI0
aI76
aI79
aI81
aI79
aI84
aI81
aI79
aI76
aI74
aI76
aI74
aI79
aI76
aI72
aI69
aI72
aI76
aI74
aI72
aI69
aI72
aI69
aI72
aI74
aI76
aI0
aI76
aI79
aI81
aI79
aI84
aI81
aI79
aI76
aI74
aI76
aI74
aI79
aI76
aI72
aI69
aI76
aI74
aI76
aI79
aI74
aI72
aI71
aI72
aI69
aI81
aI84
aI88
aI86
aI84
aI83
aI84
aI86
aI88
aI81
aI81
aI84
aI88
aI86
aI84
aI83
aI84
aI86
aI88
aI81
aI0
aI72
aI74
aI76
aI79
aI76
aI79
aI74
aI74
aI79
aI84
aI83
aI81
aI79
aI81
aI79
aI81
aI79
aI76
aI74
aI76
aI79
aI72
aI71
aI72
aI69
aI0
aI76
aI79
aI81
aI79
aI84
aI81
aI79
aI76
aI74
aI76
aI74
aI79
aI76
aI72
aI69
aI72
aI76
aI74
aI72
aI69
aI72
aI69
aI79
aI74
aI76
aI0
aI76
aI79
aI81
aI79
aI84
aI81
aI79
aI76
aI74
aI76
aI74
aI79
aI76
aI72
aI69
aI76
aI74
aI76
aI79
aI76
aI71
aI72
aI71
aI69
aI0
aI76
aI79
aI81
aI79
aI84
aI81
aI79
aI76
aI74
aI76
aI74
aI79
aI76
aI72
aI69
aI72
aI76
aI74
aI72
aI69
aI72
aI69
aI79
aI74
aI76
aI0
aI76
aI79
aI81
aI79
aI84
aI81
aI79
aI76
aI74
aI76
aI74
aI79
aI76
aI72
aI69
aI76
aI74
aI76
aI74
aI72
aI71
aI72
aI71
aI69
aI0
aI69
aI76
aI74
aI76
aI74
aI72
aI71
aI72
aI74
aI76
aI81
aI69
aI71
aI81
aa(lp17
I84
aI83
aI81
aI79
aI76
aI79
aI76
aI84
aI83
aI81
aI79
aI76
aI74
aI76
aI0
aI72
aI77
aI76
aI77
aI79
aI81
aI86
aI84
aI86
aI88
aI81
aI88
aI86
aI88
aI86
aI88
aI91
aI83
aI84
aI83
aI81
aI79
aI76
aI79
aI76
aI84
aI83
aI81
aI79
aI76
aI74
aI76
aI0
aI72
aI77
aI76
aI77
aI79
aI81
aI88
aI86
aI84
aI83
aI81
aI88
aI86
aI88
aI86
aI88
aI80
aI81
aI69
aI81
aI69
aI79
aI81
aI76
aI0
aI72
aI69
aI81
aI69
aI83
aI81
aI83
aI84
aI83
aI81
aI69
aI81
aI69
aI83
aI84
aI86
aI88
aI86
aI88
aI91
aI84
aI83
aI84
aI81
aI79
aI81
aI84
aI86
aI84
aI83
aI81
aI79
aI76
aI74
aI76
aI84
aI83
aI81
aI79
aI76
aI79
aI76
aI77
aI76
aI77
aI79
aI81
aI88
aI86
aI84
aI83
aI81
aI88
aI86
aI88
aI86
aI88
aI80
aI81
aI69
aI81
aI69
aI79
aI81
aI76
aI72
aI69
aI81
aI69
aI83
aI81
aI83
aI84
aI83
aI81
aI69
aI81
aI69
aI83
aI84
aI86
aI88
aI86
aI88
aI91
aI84
aI83
aI84
aI81
aI79
aI81
aI84
aI86
aI72
aI71
aI72
aI74
aI76
aI71
aI69
aI67
aI69
aI71
aI72
aI74
aI67
aI65
aI64
aI65
aI67
aI69
aI64
aI62
aI60
aI62
aI64
aI59
aI84
aI83
aI84
aI86
aI88
aI83
aI81
aI79
aI81
aI83
aI84
aI86
aI79
aI88
aI89
aI88
aI86
aI84
aI81
aI84
aI86
aI72
aI71
aI72
aI74
aI76
aI71
aI69
aI67
aI69
aI71
aI72
aI74
aI67
aI65
aI64
aI65
aI67
aI69
aI64
aI62
aI60
aI62
aI64
aI59
aI84
aI83
aI84
aI86
aI88
aI83
aI81
aI79
aI81
aI83
aI84
aI86
aI79
aI88
aI89
aI88
aI86
aI84
aI81
aI84
aI86
aI72
aI71
aI69
aI68
aI69
aI71
aI72
aI76
aI71
aI69
aI68
aI69
aI72
aI71
aI69
aI68
aI69
aI93
aI0
aa(lp18
I81
aI76
aI83
aI84
aI83
aI79
aI76
aI72
aI69
aI79
aI74
aI76
aI74
aI76
aI77
aI76
aI77
aI81
aI76
aI74
aI72
aI74
aI72
aI74
aI76
aI71
aI0
aI81
aI76
aI83
aI84
aI83
aI79
aI76
aI81
aI84
aI81
aI79
aI76
aI79
aI76
aI74
aI79
aI76
aI72
aI69
aI72
aI74
aI72
aI74
aI76
aI71
aI72
aI69
aI69
aI72
aI81
aI79
aI81
aI79
aI81
aI79
aI81
aI83
aI81
aI83
aI81
aI83
aI84
aI86
aI84
aI81
aI69
aI71
aI72
aI76
aI69
aI72
aI81
aI79
aI81
aI79
aI81
aI79
aI81
aI83
aI81
aI83
aI81
aI83
aI84
aI86
aI88
aI72
aI74
aI76
aI81
aI86
aI84
aI86
aI88
aI91
aI88
aI86
aI88
aI86
aI86
aI88
aI91
aI79
aI86
aI88
aI84
aI84
aI83
aI81
aI79
aI81
aI79
aI76
aI74
aI76
aI79
aI0
aI68
aI69
aI71
aI72
aI74
aI76
aI80
aI81
aI69
aI71
aI72
aI69
aI69
aI72
aI76
aI74
aI76
aI74
aI72
aI69
aI72
aI76
aI74
aI72
aI74
aI72
aI71
aI72
aI71
aI69
aI69
aI71
aI72
aI76
aI69
aI72
aI76
aI74
aI76
aI74
aI72
aI69
aI72
aI76
aI74
aI72
aI74
aI76
aI79
aI76
aI0
aI76
aI0
aI81
aI84
aI86
aI84
aI86
aI88
aI91
aI88
aI86
aI88
aI86
aI86
aI88
aI91
aI79
aI88
aI86
aI84
aI84
aI83
aI81
aI79
aI81
aI79
aI76
aI74
aI76
aI79
aI0
aI68
aI69
aI71
aI72
aI74
aI76
aI80
aI81
aI64
aI69
aI71
aI72
aI84
aI93
aI0
aa(lp19
I0
aI73
aI80
aI82
aI78
aI77
aI78
aI0
aI80
aI82
aI82
aI83
aI80
aI0
aI78
aI80
aI0
aI78
aI80
aI80
aI82
aI78
aI77
aI78
aI0
aI77
aI73
aI70
aI73
aI75
aI73
aI0
aI73
aI68
aI80
aI82
aI78
aI0
aI77
aI78
aI0
aI82
aI85
aI85
aI87
aI83
aI82
aI82
aI0
aI80
aI83
aI82
aI80
aI78
aI70
aI75
aI78
aI82
aI0
aI80
aI75
aI0
aI78
aI80
aI0
aI73
aI80
aI73
aI82
aI78
aI77
aI78
aI80
aI82
aI82
aI83
aI80
aI78
aI80
aI0
aI78
aI80
aI80
aI82
aI78
aI77
aI78
aI77
aI73
aI70
aI66
aI73
aI75
aI73
aI66
aI0
aI73
aI68
aI80
aI82
aI78
aI0
aI77
aI78
aI0
aI82
aI85
aI85
aI87
aI83
aI82
aI82
aI0
aI80
aI83
aI82
aI80
aI78
aI77
aI78
aI82
aI0
aI80
aI75
aI0
aI78
aI80
aI0
aI82
aI80
aI83
aI82
aI80
aI78
aI70
aI75
aI78
aI82
aI80
aI75
aI78
aI80
aI0
aI78
aI77
aI73
aI0
aI68
aI77
aI78
aI0
aI82
aI85
aI85
aI83
aI83
aI82
aI80
aI0
aI73
aI68
aI80
aI82
aI78
aI0
aI77
aI78
aI0
aI80
aI82
aI82
aI83
aI80
aI78
aI80
aI0
aI78
aI80
aI80
aI82
aI78
aI77
aI78
aI77
aI73
aI70
aI66
aI73
aI75
aI73
aI66
aI0
aI73
aI68
aI80
aI82
aI78
aI0
aI77
aI78
aI0
aI82
aI85
aI85
aI87
aI83
aI82
aI82
aI0
aI80
aI83
aI82
aI89
aI87
aI89
aI92
aI0
aI75
aI77
aI78
aI0
aI80
aI82
aI80
aI78
aI77
aI73
aI80
aI82
aI78
aI0
aI77
aI78
aI0
aI80
aI82
aI82
aI83
aI80
aI0
aI71
aI78
aI80
aI0
aI78
aI80
aI80
aI82
aI78
aI77
aI78
aI77
aI73
aI70
aI66
aI73
aI75
aI73
aI66
aI0
aI73
aI68
aI80
aI82
aI78
aI0
aI77
aI78
aI0
aI82
aI85
aI85
aI87
aI83
aI82
aI82
aI0
aI80
aI83
aI82
aI89
aI87
aI89
aI92
aI0
aI75
aI77
aI78
aI71
aI80
aI82
aI80
aI0
aI68
aI70
aI77
aI78
aI90
aI89
aI85
aI73
aI82
aI83
aI80
aI0
aI78
aI80
aI0
aI78
aI80
aI80
aI82
aI78
aI77
aI78
aI77
aI73
aI70
aI66
aI73
aI75
aI73
aI66
aI83
aI82
aI78
aI73
aI80
aI82
aI78
aI0
aI77
aI78
aI0
aI82
aI85
aI85
aI87
aI83
aI82
aI82
aI0
aI80
aI83
aI82
aI89
aI87
aI89
aI92
aI0
aI75
aI77
aI78
aI0
aI80
aI82
aI80
aI78
aI77
aI73
aI78
aI78
aI77
aI73
aI66
aI71
aI73
aI70
aI0
aa(lp20
I0
aI67
aI79
aI79
aI67
aI76
aI76
aI67
aI79
aI79
aI67
aI76
aI76
aI74
aI74
aI72
aI71
aI72
aI76
aI74
aI74
aI67
aI79
aI79
aI76
aI76
aI67
aI79
aI79
aI67
aI77
aI76
aI67
aI77
aI76
aI74
aI74
aI64
aI62
aI62
aI67
aI79
aI79
aI67
aI76
aI76
aI67
aI79
aI79
aI67
aI76
aI76
aI68
aI74
aI74
aI72
aI71
aI72
aI76
aI62
aI74
aI74
aI67
aI79
aI79
aI76
aI76
aI67
aI79
aI79
aI67
aI77
aI76
aI77
aI79
aI81
aI65
aI64
aI65
aI60
aI79
aI81
aI83
aI83
aI72
aI81
aI81
aI67
aI65
aI67
aI86
aI84
aI83
aI83
aI72
aI84
aI84
aI64
aI62
aI64
aI88
aI86
aI84
aI83
aI79
aI72
aI71
aI68
aI65
aI76
aI65
aI74
aI60
aI72
aI71
aI72
aI72
aI60
aI67
aI68
aI65
aI76
aI74
aI79
aI91
aI91
aI79
aI88
aI88
aI79
aI91
aI91
aI88
aI88
aI77
aI86
aI86
aI84
aI83
aI84
aI88
aI74
aI86
aI86
aI79
aI91
aI91
aI79
aI88
aI88
aI79
aI91
aI91
aI89
aI88
aI89
aI88
aI77
aI86
aI86
aI64
aI65
aI64
aI76
aI74
aI67
aI79
aI79
aI67
aI76
aI76
aI67
aI79
aI79
aI68
aI76
aI76
aI74
aI74
aI72
aI71
aI72
aI76
aI62
aI74
aI74
aI67
aI79
aI79
aI65
aI76
aI76
aI67
aI79
aI79
aI67
aI77
aI76
aI70
aI77
aI79
aI81
aI64
aI65
aI67
aI69
aI79
aI81
aI83
aI83
aI72
aI84
aI84
aI67
aI65
aI67
aI86
aI84
aI83
aI83
aI72
aI84
aI84
aI64
aI62
aI64
aI88
aI86
aI84
aI83
aI79
aI72
aI64
aI76
aI74
aI72
aI71
aI72
aI62
aI64
aI60
aI67
aI65
aI88
aI86
aI84
aI83
aI84
aI0
aI69
aI84
aI83
aI81
aI81
aI79
aI79
aI71
aI72
aI79
aI77
aI76
aI76
aI74
aI81
aI69
aI64
aI62
aI79
aI79
aI91
aI91
aI88
aI88
aI79
aI91
aI91
aI88
aI88
aI77
aI86
aI86
aI72
aI84
aI72
aI83
aI72
aI84
aI88
aI74
aI86
aI86
aI79
aI91
aI91
aI88
aI88
aI79
aI91
aI91
aI79
aI89
aI88
aI89
aI91
aI93
aI69
aI65
aI67
aI69
aI79
aI81
aI83
aI83
aI72
aI84
aI84
aI67
aI65
aI67
aI86
aI84
aI83
aI83
aI72
aI84
aI84
aI64
aI62
aI64
aI88
aI86
aI84
aI83
aI79
aI72
aI67
aI60
aI64
aI76
aI74
aI72
aI71
aI72
aI62
aI64
aI67
aI69
aI88
aI86
aI84
aI84
aI76
aI79
aI84
aI0
aa(lp21
I0
aI72
aI71
aI72
aI72
aI71
aI69
aI67
aI69
aI67
aI69
aI57
aI60
aI59
aI69
aI67
aI65
aI64
aI65
aI67
aI72
aI71
aI72
aI72
aI71
aI69
aI67
aI62
aI74
aI71
aI72
aI72
aI74
aI76
aI76
aI77
aI84
aI77
aI76
aI72
aI69
aI65
aI76
aI77
aI84
aI72
aI71
aI72
aI72
aI71
aI69
aI67
aI69
aI67
aI69
aI57
aI60
aI59
aI69
aI67
aI65
aI64
aI65
aI67
aI72
aI71
aI72
aI72
aI71
aI69
aI67
aI62
aI74
aI71
aI72
aI72
aI74
aI76
aI76
aI77
aI84
aI72
aI76
aI77
aI84
aI72
aI76
aI77
aI84
aI72
aI77
aI72
aI84
aI83
aI84
aI76
aI76
aI64
aI76
aI77
aI65
aI77
aI77
aI65
aI76
aI74
aI76
aI64
aI67
aI76
aI76
aI64
aI67
aI76
aI77
aI65
aI72
aI77
aI77
aI65
aI76
aI74
aI76
aI67
aI72
aI67
aI76
aI72
aI79
aI76
aI77
aI0
aI64
aI55
aI65
aI55
aI67
aI55
aI60
aI72
aI71
aI60
aI69
aI60
aI67
aI60
aI65
aI60
aI64
aI55
aI65
aI53
aI67
aI55
aI60
aI72
aI71
aI69
aI67
aI72
aI71
aI72
aI72
aI71
aI69
aI67
aI69
aI67
aI69
aI57
aI60
aI59
aI69
aI67
aI65
aI64
aI65
aI67
aI72
aI71
aI72
aI72
aI71
aI69
aI67
aI62
aI74
aI71
aI72
aI72
aI74
aI76
aI76
aI77
aI84
aI72
aI76
aI77
aI84
aI72
aI76
aI77
aI84
aI72
aI83
aI72
aI84
aI83
aI84
aI84
aI83
aI81
aI79
aI81
aI79
aI81
aI57
aI60
aI59
aI81
aI79
aI77
aI76
aI67
aI77
aI72
aI79
aI72
aI84
aI83
aI84
aI84
aI83
aI81
aI79
aI74
aI86
aI83
aI84
aI84
aI86
aI88
aI88
aI89
aI88
aI84
aI81
aI77
aI76
aI72
aI88
aI89
aI88
aI84
aI81
aI77
aI76
aI72
aI72
aI65
aI53
aI60
aI65
aI67
aI60
aI72
aI88
aI88
aI89
aI88
aI84
aI81
aI77
aI76
aI72
aI88
aI89
aI88
aI84
aI81
aI77
aI76
aI72
aI72
aI0
aI84
aI0
aa(lp22
I82
aI78
aI82
aI80
aI82
aI77
aI78
aI82
aI80
aI82
aI83
aI83
aI71
aI75
aI82
aI83
aI83
aI77
aI73
aI82
aI80
aI80
aI82
aI82
aI70
aI82
aI75
aI75
aI82
aI80
aI68
aI77
aI78
aI80
aI73
aI73
aI80
aI78
aI77
aI77
aI75
aI78
aI78
aI80
aI80
aI75
aI82
aI0
aI82
aI78
aI82
aI80
aI82
aI77
aI78
aI82
aI80
aI82
aI83
aI83
aI71
aI75
aI82
aI83
aI83
aI77
aI73
aI82
aI80
aI80
aI82
aI82
aI0
aI70
aI82
aI82
aI75
aI75
aI82
aI80
aI77
aI78
aI80
aI73
aI73
aI80
aI78
aI77
aI77
aI75
aI78
aI78
aI80
aI80
aI75
aI82
aI66
aI68
aI70
aI63
aI70
aI70
aI70
aI63
aI68
aI66
aI68
aI61
aI66
aI65
aI66
aI59
aI58
aI59
aI59
aI66
aI68
aI68
aI61
aI65
aI70
aI71
aI73
aI76
aI65
aI69
aI76
aI74
aI76
aI65
aI69
aI76
aI74
aI76
aI69
aI67
aI79
aI81
aI84
aI72
aI77
aI84
aI83
aI84
aI72
aI77
aI84
aI83
aI84
aI65
aI76
aI65
aI74
aI74
aI84
aI86
aI85
aI73
aI78
aI85
aI83
aI85
aI73
aI78
aI85
aI83
aI85
aI61
aI66
aI68
aI65
aI85
aI87
aI89
aI89
aI88
aI89
aI88
aI86
aI84
aI84
aI62
aI68
aI72
aI71
aI72
aI74
aI83
aI71
aI74
aI83
aI81
aI83
aI72
aI83
aI81
aI83
aI84
aI84
aI72
aI65
aI83
aI84
aI84
aI72
aI71
aI83
aI81
aI81
aI83
aI83
aI71
aI64
aI82
aI75
aI75
aI82
aI80
aI68
aI74
aI77
aI78
aI80
aI73
aI73
aI80
aI78
aI77
aI77
aI75
aI78
aI0
aI66
aI78
aI80
aI80
aI75
aI82
aI0
aI70
aI70
aI68
aI70
aI70
aI68
aI70
aI71
aI71
aI63
aI66
aI78
aI75
aI71
aI70
aI71
aI71
aI65
aI61
aI70
aI68
aI68
aI70
aI70
aI0
aI75
aI70
aI75
aI82
aI80
aI68
aI74
aI77
aI78
aI80
aI68
aI73
aI80
aI78
aI77
aI77
aI75
aI78
aI0
aI71
aI78
aI80
aI80
aI75
aI82
aI70
aI70
aI70
aI82
aI80
aI82
aI70
aI82
aI80
aI82
aI83
aI83
aI78
aI75
aI71
aI82
aI83
aI83
aI82
aI80
aI80
aI82
aI82
aI70
aI61
aI65
aI82
aI75
aI75
aI82
aI80
aI68
aI74
aI77
aI78
aI80
aI73
aI85
aI80
aI78
aI77
aI77
aI75
aI78
aI66
aI71
aI78
aI80
aI80
aI75
aI82
aI80
aI78
aI77
aI77
aI75
aI66
aI70
aI63
aI70
aI68
aI65
aI65
aI68
aI65
aI70
aI73
aI80
aI77
aI78
aI85
aI0
aa(lp23
I76
aI67
aI76
aI77
aI67
aI79
aI71
aI65
aI71
aI72
aI64
aI74
aI72
aI74
aI67
aI76
aI67
aI69
aI60
aI67
aI72
aI74
aI72
aI72
aI72
aI79
aI77
aI76
aI72
aI67
aI79
aI77
aI76
aI72
aI74
aI74
aI76
aI64
aI65
aI65
aI67
aI65
aI67
aI76
aI67
aI76
aI77
aI67
aI79
aI71
aI65
aI71
aI72
aI64
aI74
aI72
aI74
aI67
aI76
aI67
aI69
aI60
aI67
aI72
aI74
aI72
aI72
aI72
aI79
aI77
aI76
aI72
aI65
aI79
aI77
aI76
aI72
aI60
aI64
aI65
aI60
aI67
aI65
aI64
aI67
aI72
aI74
aI76
aI77
aI79
aI67
aI74
aI79
aI74
aI72
aI74
aI76
aI79
aI81
aI69
aI76
aI74
aI69
aI76
aI74
aI80
aI68
aI76
aI74
aI68
aI76
aI77
aI79
aI71
aI72
aI74
aI76
aI77
aI76
aI72
aI71
aI79
aI67
aI71
aI72
aI74
aI76
aI77
aI76
aI72
aI71
aI79
aI67
aI71
aI72
aI74
aI76
aI77
aI76
aI72
aI71
aI60
aI72
aI64
aI65
aI60
aI65
aI64
aI0
aI67
aI76
aI67
aI76
aI77
aI67
aI79
aI71
aI65
aI71
aI72
aI64
aI74
aI72
aI74
aI67
aI76
aI67
aI69
aI60
aI67
aI72
aI74
aI72
aI72
aI72
aI79
aI77
aI76
aI72
aI67
aI79
aI77
aI76
aI72
aI74
aI74
aI76
aI64
aI65
aI65
aI74
aI67
aI65
aI67
aI76
aI67
aI76
aI77
aI67
aI79
aI71
aI65
aI71
aI72
aI64
aI74
aI72
aI74
aI67
aI76
aI67
aI69
aI60
aI67
aI72
aI74
aI72
aI72
aI72
aI79
aI77
aI76
aI72
aI65
aI79
aI77
aI76
aI72
aI60
aI64
aI65
aI60
aI67
aI65
aI64
aI67
aI72
aI74
aI76
aI77
aI79
aI67
aI74
aI79
aI74
aI72
aI74
aI76
aI79
aI81
aI69
aI76
aI74
aI69
aI76
aI74
aI80
aI68
aI76
aI74
aI68
aI76
aI77
aI79
aI71
aI72
aI74
aI76
aI77
aI76
aI72
aI71
aI79
aI67
aI71
aI72
aI74
aI76
aI77
aI76
aI72
aI71
aI67
aI79
aI83
aI84
aI86
aI88
aI89
aI88
aI84
aI80
aI77
aI72
aI68
aI65
aI76
aI77
aI79
aI81
aI76
aI74
aI69
aI80
aI68
aI76
aI74
aI68
aI76
aI77
aI79
aI67
aI71
aI72
aI74
aI76
aI77
aI76
aI72
aI71
aI79
aI71
aI72
aI74
aI76
aI77
aI76
aI72
aI71
aI67
aI76
aI67
aI76
aI77
aI67
aI79
aI71
aI65
aI71
aI72
aI64
aI74
aI72
aI74
aI67
aI76
aI67
aI69
aI60
aI67
aI72
aI74
aI72
aI72
aI72
aI79
aI77
aI76
aI72
aI67
aI79
aI77
aI76
aI72
aI74
aI65
aI74
aI76
aI64
aI65
aI79
aI77
aI72
aI69
aI67
aI76
aI67
aI76
aI77
aI67
aI79
aI71
aI65
aI71
aI72
aI64
aI74
aI72
aI74
aI67
aI76
aI67
aI69
aI60
aI67
aI72
aI74
aI72
aI72
aI72
aI79
aI77
aI76
aI72
aI65
aI79
aI77
aI76
aI72
aI60
aI64
aI65
aI60
aI65
aI64
aI67
aI72
aI74
aI76
aI77
aI79
aI67
aI74
aI79
aI74
aI72
aI74
aI76
aI79
aI81
aI69
aI76
aI74
aI69
aI76
aI74
aI80
aI68
aI76
aI74
aI68
aI76
aI77
aI79
aI67
aI74
aI79
aI71
aI72
aI74
aI76
aI79
aI69
aI77
aI69
aI74
aI76
aI69
aI74
aI62
aI67
aI67
aI72
aI74
aI74
aI76
aI67
aI74
aI67
aI72
aI60
aI65
aI65
aI72
aI74
aI72
aI77
aI76
aI74
aI72
aI68
aI65
aI60
aI56
aI60
aI65
aI67
aI64
aI72
aI60
aI64
aI65
aI72
aI69
aI67
aI72
aI76
aI79
aI76
aI72
aI77
aI72
aI65
aI69
aI72
aI69
aI76
aI67
aI76
aI77
aI67
aI79
aI71
aI65
aI71
aI72
aI64
aI74
aI72
aI74
aI67
aI76
aI67
aI69
aI60
aI67
aI72
aI74
aI72
aI72
aI72
aI79
aI77
aI76
aI72
aI67
aI79
aI77
aI76
aI72
aI74
aI74
aI76
aI64
aI65
aI79
aI77
aI72
aI69
aI67
aI76
aI67
aI76
aI77
aI67
aI79
aI71
aI65
aI71
aI72
aI64
aI74
aI72
aI74
aI67
aI76
aI67
aI69
aI60
aI67
aI72
aI74
aI72
aI72
aI72
aI79
aI77
aI76
aI72
aI65
aI79
aI77
aI76
aI72
aI60
aI64
aI65
aI60
aI65
aI72
aI60
aI64
aI65
aI60
aI65
aI72
aI60
aI64
aI65
aI60
aI65
aI64
aI0
aa(lp24
I0
aI61
aI66
aI68
aI70
aI70
aI0
aI70
aI71
aI73
aI71
aI71
aI70
aI70
aI68
aI68
aI66
aI68
aI70
aI70
aI0
aI70
aI71
aI73
aI71
aI71
aI70
aI70
aI68
aI68
aI70
aI70
aI71
aI71
aI0
aI63
aI70
aI71
aI71
aI0
aI61
aI68
aI70
aI70
aI0
aI70
aI71
aI73
aI71
aI71
aI70
aI70
aI68
aI68
aI66
aI68
aI70
aI70
aI0
aI70
aI71
aI73
aI71
aI71
aI70
aI70
aI68
aI68
aI70
aI70
aI71
aI71
aI0
aI63
aI70
aI71
aI71
aI0
aI61
aI68
aI70
aI70
aI64
aI68
aI66
aI66
aI78
aI78
aI77
aI78
aI80
aI78
aI77
aI75
aI73
aI61
aI65
aI64
aI63
aI63
aI73
aI73
aI71
aI71
aI70
aI71
aI73
aI75
aI80
aI77
aI73
aI70
aI65
aI64
aI66
aI66
aI78
aI78
aI77
aI78
aI80
aI78
aI77
aI75
aI73
aI61
aI65
aI61
aI64
aI63
aI63
aI73
aI73
aI71
aI71
aI70
aI70
aI68
aI66
aI65
aI68
aI66
aI73
aI78
aI80
aI82
aI82
aI0
aI82
aI83
aI85
aI83
aI83
aI82
aI82
aI80
aI80
aI78
aI80
aI82
aI82
aI0
aI82
aI83
aI85
aI83
aI83
aI82
aI0
aI82
aI83
aI83
aI0
aI75
aI82
aI83
aI83
aI0
aI73
aI80
aI82
aI82
aI0
aI76
aI80
aI78
aI78
aI90
aI90
aI89
aI90
aI92
aI90
aI89
aI87
aI85
aI73
aI77
aI73
aI76
aI75
aI75
aI85
aI85
aI83
aI83
aI82
aI83
aI85
aI87
aI92
aI89
aI85
aI82
aI77
aI76
aI78
aI78
aI90
aI90
aI89
aI90
aI92
aI90
aI89
aI87
aI85
aI73
aI77
aI73
aI76
aI75
aI75
aI85
aI85
aI83
aI83
aI82
aI83
aI85
aI87
aI90
aI88
aI90
aI92
aI94
aI95
aI94
aI78
aI90
aI90
aI89
aI90
aI92
aI90
aI89
aI87
aI85
aI77
aI76
aI75
aI75
aI85
aI85
aI83
aI83
aI82
aI83
aI85
aI87
aI92
aI89
aI85
aI82
aI77
aI76
aI78
aI78
aI90
aI90
aI89
aI90
aI92
aI90
aI89
aI87
aI85
aI73
aI77
aI73
aI76
aI75
aI75
aI85
aI85
aI83
aI83
aI82
aI82
aI80
aI78
aI77
aI80
aI78
aI73
aI78
aI80
aI82
aI82
aI0
aI82
aI83
aI85
aI83
aI83
aI82
aI82
aI80
aI80
aI78
aI80
aI82
aI82
aI0
aI82
aI83
aI85
aI83
aI83
aI82
aI82
aI80
aI80
aI82
aI82
aI83
aI83
aI0
aI75
aI82
aI83
aI83
aI0
aI73
aI80
aI82
aI82
aI0
aI82
aI83
aI85
aI83
aI83
aI82
aI82
aI80
aI80
aI78
aI80
aI82
aI82
aI0
aI82
aI83
aI85
aI83
aI82
aI82
aI80
aI80
aI78
aI80
aI82
aI0
aa(lp25
I0
aI79
aI84
aI86
aI86
aI88
aI88
aI84
aI86
aI88
aI86
aI91
aI91
aI91
aI93
aI95
aI95
aI96
aI96
aI98
aI100
aI98
aI96
aI95
aI83
aI88
aI96
aI95
aI91
aI91
aI93
aI93
aI91
aI89
aI89
aI91
aI91
aI84
aI84
aI86
aI88
aI89
aI89
aI91
aI89
aI88
aI86
aI79
aI84
aI86
aI86
aI88
aI88
aI84
aI86
aI88
aI86
aI91
aI91
aI91
aI93
aI95
aI95
aI96
aI96
aI98
aI100
aI98
aI96
aI95
aI96
aI95
aI91
aI91
aI93
aI93
aI91
aI89
aI89
aI91
aI91
aI84
aI86
aI88
aI89
aI81
aI84
aI83
aI84
aI74
aI77
aI76
aI72
aI76
aI79
aI81
aI79
aI72
aI71
aI72
aI81
aI79
aI67
aI72
aI71
aI72
aI71
aI72
aI79
aI79
aI77
aI77
aI76
aI76
aI74
aI74
aI72
aI74
aI76
aI76
aI64
aI72
aI76
aI79
aI81
aI64
aI69
aI72
aI71
aI83
aI83
aI81
aI79
aI76
aI77
aI79
aI73
aI77
aI76
aI77
aI79
aI81
aI83
aI84
aI88
aI86
aI79
aI84
aI86
aI86
aI88
aI88
aI84
aI86
aI88
aI86
aI91
aI91
aI76
aI0
aI91
aI93
aI95
aI95
aI96
aI96
aI98
aI100
aI98
aI96
aI95
aI76
aI83
aI96
aI95
aI91
aI91
aI93
aI93
aI91
aI89
aI89
aI91
aI91
aI84
aI86
aI88
aI89
aI89
aI91
aI89
aI88
aI86
aI79
aI84
aI86
aI86
aI88
aI88
aI84
aI86
aI88
aI86
aI91
aI91
aI76
aI0
aI91
aI93
aI95
aI95
aI96
aI96
aI98
aI100
aI98
aI96
aI95
aI76
aI83
aI96
aI95
aI91
aI91
aI93
aI93
aI91
aI89
aI89
aI91
aI91
aI84
aI86
aI88
aI89
aI81
aI84
aI83
aI84
aI62
aI65
aI64
aI72
aI76
aI79
aI81
aI79
aI72
aI71
aI72
aI81
aI79
aI67
aI72
aI71
aI72
aI71
aI72
aI79
aI79
aI77
aI77
aI76
aI76
aI74
aI74
aI72
aI74
aI76
aI76
aI64
aI72
aI76
aI79
aI81
aI64
aI69
aI72
aI71
aI83
aI83
aI81
aI79
aI76
aI77
aI79
aI73
aI77
aI76
aI77
aI79
aI81
aI83
aI84
aI88
aI67
aI72
aI86
aI79
aI84
aI86
aI86
aI88
aI88
aI84
aI86
aI88
aI86
aI91
aI91
aI79
aI91
aI93
aI95
aI95
aI96
aI96
aI98
aI100
aI98
aI96
aI95
aI76
aI83
aI96
aI95
aI91
aI91
aI93
aI93
aI79
aI91
aI89
aI89
aI91
aI91
aI84
aI86
aI88
aI89
aI81
aI84
aI83
aI78
aI63
aI66
aI65
aI73
aI78
aI80
aI80
aI82
aI82
aI78
aI80
aI82
aI80
aI85
aI85
aI85
aI87
aI89
aI89
aI90
aI90
aI92
aI94
aI92
aI90
aI89
aI65
aI70
aI78
aI77
aI73
aI73
aI75
aI75
aI63
aI66
aI73
aI71
aI71
aI73
aI73
aI66
aI61
aI66
aI68
aI70
aI71
aI63
aI66
aI65
aI66
aI80
aI82
aI82
aI83
aI75
aI78
aI77
aI78
aI66
aI0
aa(lp26
I0
aI61
aI66
aI65
aI66
aI68
aI70
aI71
aI73
aI61
aI70
aI71
aI73
aI73
aI76
aI73
aI71
aI0
aI61
aI66
aI65
aI66
aI68
aI70
aI71
aI73
aI66
aI70
aI71
aI73
aI73
aI76
aI73
aI71
aI73
aI76
aI73
aI71
aI71
aI76
aI71
aI64
aI69
aI71
aI76
aI71
aI69
aI69
aI74
aI69
aI60
aI67
aI69
aI74
aI69
aI60
aI60
aI67
aI0
aI73
aI78
aI77
aI78
aI80
aI82
aI83
aI85
aI73
aI82
aI83
aI85
aI85
aI88
aI85
aI78
aI83
aI85
aI88
aI85
aI83
aI0
aI73
aI78
aI77
aI78
aI80
aI82
aI83
aI85
aI78
aI82
aI83
aI85
aI85
aI88
aI85
aI78
aI88
aI90
aI88
aI61
aI66
aI64
aI76
aI71
aI64
aI69
aI71
aI64
aI76
aI71
aI64
aI69
aI69
aI63
aI74
aI69
aI63
aI67
aI69
aI62
aI74
aI69
aI62
aI63
aI0
aI73
aI80
aI78
aI80
aI82
aI80
aI78
aI73
aI78
aI80
aI78
aI80
aI82
aI80
aI73
aI78
aI80
aI82
aI85
aI83
aI82
aI78
aI80
aI82
aI78
aI71
aI75
aI78
aI80
aI82
aI78
aI70
aI71
aI75
aI78
aI83
aI82
aI78
aI80
aI82
aI80
aI80
aI82
aI73
aI78
aI80
aI78
aI80
aI82
aI80
aI78
aI73
aI78
aI80
aI78
aI80
aI82
aI80
aI73
aI78
aI80
aI82
aI85
aI73
aI78
aI80
aI82
aI85
aI83
aI82
aI78
aI80
aI82
aI78
aI75
aI78
aI80
aI82
aI78
aI70
aI71
aI75
aI78
aI83
aI82
aI78
aI80
aI82
aI80
aI0
aI73
aI78
aI77
aI78
aI80
aI82
aI83
aI85
aI73
aI82
aI83
aI85
aI85
aI88
aI85
aI78
aI83
aI85
aI90
aI85
aI83
aI0
aI73
aI78
aI77
aI78
aI80
aI82
aI83
aI85
aI78
aI82
aI83
aI85
aI85
aI88
aI85
aI78
aI88
aI85
aI90
aI85
aI83
aI83
aI88
aI83
aI76
aI81
aI83
aI88
aI83
aI76
aI81
aI81
aI86
aI81
aI79
aI81
aI85
aI81
aI70
aI79
aI0
aI61
aI66
aI65
aI66
aI68
aI70
aI71
aI73
aI61
aI70
aI71
aI73
aI73
aI66
aI76
aI73
aI66
aI71
aI73
aI76
aI73
aI66
aI71
aI0
aI61
aI66
aI65
aI66
aI68
aI70
aI71
aI73
aI66
aI70
aI71
aI73
aI73
aI76
aI73
aI66
aI71
aI73
aI76
aI73
aI66
aI71
aI71
aI76
aI71
aI64
aI69
aI71
aI76
aI71
aI64
aI69
aI69
aI74
aI69
aI60
aI67
aI69
aI74
aI69
aI67
aI66
aI0
aI73
aI80
aI78
aI80
aI82
aI80
aI78
aI73
aI78
aI80
aI78
aI80
aI82
aI80
aI73
aI78
aI80
aI82
aI85
aI83
aI82
aI78
aI80
aI82
aI78
aI71
aI75
aI78
aI80
aI82
aI78
aI70
aI71
aI75
aI78
aI83
aI82
aI78
aI80
aI82
aI80
aI82
aI73
aI78
aI80
aI78
aI80
aI82
aI80
aI78
aI73
aI78
aI80
aI78
aI80
aI82
aI80
aI73
aI78
aI80
aI82
aI85
aI73
aI78
aI80
aI82
aI85
aI83
aI82
aI78
aI80
aI82
aI78
aI78
aI71
aI75
aI78
aI80
aI82
aI78
aI70
aI71
aI75
aI78
aI83
aI82
aI78
aI80
aI82
aI80
aI0
aI58
aI61
aI66
aI65
aI66
aI68
aI70
aI71
aI73
aI61
aI70
aI71
aI73
aI73
aI76
aI73
aI66
aI71
aI73
aI78
aI73
aI66
aI71
aI0
aI61
aI66
aI65
aI66
aI68
aI70
aI71
aI73
aI66
aI70
aI71
aI73
aI73
aI76
aI73
aI66
aI71
aI73
aI76
aI73
aI68
aI68
aI70
aI58
aI0
aa(lp27
I0
aI78
aI80
aI82
aI83
aI82
aI82
aI80
aI78
aI80
aI79
aI80
aI82
aI83
aI82
aI74
aI0
aI77
aI78
aI80
aI80
aI66
aI78
aI77
aI75
aI73
aI75
aI71
aI75
aI78
aI82
aI80
aI0
aI78
aI80
aI82
aI83
aI73
aI82
aI73
aI82
aI80
aI78
aI80
aI79
aI80
aI87
aI86
aI74
aI82
aI80
aI78
aI77
aI70
aI78
aI66
aI70
aI77
aI75
aI73
aI75
aI71
aI75
aI78
aI82
aI80
aI65
aI66
aI73
aI85
aI78
aI77
aI78
aI85
aI75
aI83
aI82
aI74
aI80
aI78
aI0
aI77
aI78
aI85
aI83
aI82
aI86
aI80
aI78
aI66
aI78
aI90
aI89
aI85
aI82
aI87
aI75
aI78
aI80
aI82
aI80
aI63
aI66
aI73
aI85
aI78
aI77
aI78
aI85
aI74
aI83
aI82
aI74
aI80
aI78
aI77
aI78
aI85
aI83
aI82
aI86
aI80
aI78
aI66
aI0
aI78
aI90
aI89
aI85
aI82
aI87
aI59
aI89
aI82
aI89
aI87
aI89
aI90
aI63
aI66
aI70
aI63
aI66
aI68
aI70
aI0
aI75
aI77
aI78
aI80
aI78
aI78
aI77
aI78
aI68
aI73
aI70
aI75
aI70
aI71
aI63
aI70
aI68
aI66
aI63
aI66
aI78
aI68
aI73
aI90
aI85
aI80
aI68
aI78
aI73
aI68
aI70
aI61
aI66
aI65
aI66
aI68
aI77
aI78
aI80
aI85
aI89
aI90
aI85
aI89
aI90
aI92
aI90
aI92
aI85
aI85
aI82
aI75
aI78
aI75
aI68
aI73
aI70
aI78
aI75
aI68
aI70
aI63
aI68
aI56
aI61
aI61
aI58
aI68
aI73
aI78
aI68
aI73
aI78
aI80
aI82
aI83
aI85
aI85
aI85
aI83
aI82
aI80
aI78
aI80
aI82
aI78
aI78
aI75
aI78
aI73
aI78
aI80
aI82
aI78
aI78
aI87
aI85
aI82
aI78
aI75
aI78
aI82
aI78
aI80
aI66
aI63
aI63
aI59
aI59
aI66
aI63
aI63
aI71
aI66
aI66
aI75
aI71
aI66
aI73
aI78
aI85
aI78
aI77
aI78
aI85
aI75
aI83
aI82
aI74
aI80
aI78
aI58
aI59
aI77
aI78
aI85
aI83
aI82
aI86
aI80
aI78
aI66
aI78
aI90
aI89
aI85
aI82
aI87
aI75
aI78
aI80
aI82
aI80
aI63
aI66
aI0
aI73
aI85
aI78
aI77
aI78
aI85
aI75
aI83
aI82
aI70
aI74
aI80
aI78
aI77
aI78
aI73
aI66
aI77
aI78
aI85
aI83
aI82
aI70
aI80
aI78
aI59
aI0
aI78
aI90
aI89
aI85
aI82
aI87
aI58
aI59
aI63
aI77
aI70
aI77
aI75
aI77
aI78
aI66
aI70
aI66
aI63
aI66
aI70
aI0
aI75
aI77
aI78
aI80
aI78
aI78
aI77
aI78
aI73
aI70
aI75
aI71
aI63
aI59
aI70
aI68
aI66
aI63
aI66
aI78
aI75
aI85
aI87
aI80
aI78
aI73
aI68
aI70
aI71
aI73
aI68
aI61
aI73
aI66
aI77
aI78
aI85
aI78
aI56
aI54
aI58
aI59
aI61
aI63
aI56
aI66
aI63
aI78
aI78
aI78
aI78
aI68
aI73
aI63
aI68
aI61
aI56
aI58
aI59
aI61
aI61
aI80
aI92
aI90
aI90
aI89
aI89
aI85
aI85
aI82
aI82
aI78
aI78
aI73
aI75
aI90
aI80
aI92
aI85
aI90
aI87
aI85
aI80
aI85
aI82
aI80
aI80
aI82
aI73
aI73
aI70
aI68
aI61
aI66
aI68
aI70
aI71
aI73
aI78
aI75
aI68
aI90
aI87
aI78
aI75
aI68
aI66
aI63
aI61
aI63
aI58
aI59
aI61
aI68
aI70
aI71
aI73
aI78
aI80
aI82
aI83
aI85
aI90
aI92
aI97
aI94
aI90
aI87
aI85
aI83
aI82
aI78
aI75
aI71
aI66
aI61
aI65
aI66
aI66
aI58
aI63
aI66
aI73
aI66
aI68
aI80
aI73
aI77
aI80
aI89
aI101
aI0
aa(lp28
I83
aI85
aI82
aI78
aI77
aI78
aI78
aI77
aI78
aI89
aI90
aI87
aI89
aI85
aI73
aI77
aI78
aI80
aI82
aI83
aI82
aI83
aI82
aI80
aI78
aI80
aI78
aI73
aI82
aI70
aI64
aI68
aI63
aI68
aI67
aI82
aI83
aI85
aI78
aI82
aI83
aI85
aI80
aI73
aI78
aI77
aI80
aI70
aI78
aI82
aI83
aI82
aI83
aI85
aI80
aI82
aI80
aI82
aI85
aI77
aI78
aI77
aI78
aI82
aI77
aI78
aI75
aI75
aI77
aI78
aI82
aI83
aI82
aI83
aI85
aI85
aI0
aI85
aI89
aI90
aI73
aI77
aI78
aI85
aI89
aI90
aI73
aI77
aI78
aI85
aI89
aI90
aI89
aI87
aI89
aI85
aI73
aI77
aI85
aI87
aI89
aI90
aI78
aI89
aI87
aI75
aI80
aI85
aI85
aI73
aI77
aI80
aI78
aI70
aI85
aI82
aI83
aI82
aI83
aI85
aI87
aI78
aI89
aI85
aI85
aI89
aI90
aI73
aI77
aI78
aI85
aI89
aI90
aI73
aI77
aI78
aI85
aI89
aI90
aI92
aI90
aI94
aI95
aI94
aI92
aI85
aI80
aI85
aI87
aI89
aI90
aI78
aI89
aI87
aI75
aI80
aI85
aI85
aI73
aI77
aI80
aI78
aI70
aI85
aI82
aI83
aI82
aI80
aI78
aI73
aI66
aI82
aI80
aI71
aI78
aI83
aI85
aI82
aI78
aI77
aI78
aI78
aI77
aI78
aI89
aI90
aI87
aI89
aI85
aI73
aI77
aI78
aI80
aI82
aI83
aI82
aI83
aI82
aI80
aI78
aI80
aI78
aI73
aI82
aI70
aI64
aI68
aI63
aI68
aI67
aI82
aI83
aI85
aI78
aI82
aI83
aI85
aI80
aI68
aI78
aI77
aI80
aI68
aI78
aI70
aI82
aI83
aI82
aI83
aI85
aI80
aI82
aI80
aI82
aI85
aI73
aI77
aI78
aI77
aI78
aI82
aI77
aI78
aI75
aI75
aI77
aI78
aI82
aI83
aI82
aI83
aI85
aI85
aI0
aI85
aI89
aI90
aI73
aI77
aI78
aI85
aI89
aI90
aI73
aI77
aI78
aI85
aI89
aI90
aI89
aI87
aI89
aI85
aI73
aI77
aI85
aI87
aI89
aI90
aI78
aI89
aI87
aI75
aI80
aI85
aI85
aI73
aI77
aI80
aI78
aI73
aI85
aI82
aI83
aI82
aI83
aI85
aI87
aI78
aI89
aI85
aI85
aI89
aI90
aI73
aI77
aI78
aI85
aI89
aI90
aI73
aI77
aI78
aI85
aI89
aI90
aI92
aI90
aI94
aI95
aI94
aI92
aI85
aI80
aI85
aI87
aI89
aI90
aI78
aI89
aI87
aI75
aI80
aI85
aI85
aI73
aI77
aI80
aI78
aI70
aI85
aI82
aI83
aI82
aI80
aI78
aI73
aI66
aI82
aI80
aI71
aI78
aI71
aI70
aI68
aI71
aI70
aI68
aI68
aI68
aI70
aI73
aI0
aa(lp29
I69
aI76
aI74
aI76
aI74
aI76
aI74
aI72
aI71
aI69
aI76
aI74
aI76
aI74
aI76
aI74
aI72
aI69
aI71
aI72
aI71
aI69
aI71
aI69
aI76
aI74
aI76
aI74
aI76
aI74
aI72
aI71
aI74
aI76
aI69
aI76
aI74
aI76
aI74
aI76
aI74
aI72
aI71
aI72
aI74
aI76
aI81
aI76
aI0
aI76
aI0
aI76
aI0
aI76
aI83
aI76
aI0
aI76
aI0
aI76
aI0
aI76
aI84
aI76
aI0
aI76
aI0
aI76
aI0
aI76
aI88
aI76
aI86
aI76
aI84
aI76
aI80
aI76
aI81
aI76
aI0
aI76
aI0
aI76
aI0
aI76
aI83
aI76
aI0
aI76
aI0
aI76
aI0
aI76
aI84
aI76
aI0
aI76
aI0
aI76
aI0
aI76
aI88
aI76
aI86
aI76
aI84
aI76
aI83
aI76
aI81
aI88
aI86
aI88
aI86
aI88
aI86
aI84
aI83
aI84
aI88
aI81
aI88
aI86
aI84
aI83
aI81
aI79
aI76
aI76
aI74
aI76
aI77
aI76
aI77
aI76
aI77
aI76
aI83
aI84
aI69
aI72
aI76
aI74
aI76
aI74
aI76
aI74
aI72
aI71
aI69
aI71
aI69
aI76
aI74
aI76
aI74
aI76
aI74
aI72
aI71
aI74
aI76
aI69
aI76
aI74
aI76
aI74
aI76
aI74
aI72
aI71
aI69
aI71
aI72
aI71
aI72
aI69
aI76
aI74
aI76
aI74
aI76
aI74
aI72
aI79
aI74
aI76
aI69
aI76
aI74
aI76
aI74
aI76
aI74
aI72
aI71
aI72
aI74
aI76
aI81
aI76
aI0
aI76
aI0
aI76
aI0
aI76
aI83
aI76
aI0
aI76
aI0
aI76
aI0
aI76
aI84
aI76
aI0
aI76
aI0
aI76
aI0
aI76
aI88
aI76
aI86
aI76
aI84
aI76
aI83
aI76
aI81
aI76
aI0
aI76
aI0
aI76
aI0
aI76
aI83
aI76
aI0
aI76
aI0
aI76
aI0
aI76
aI84
aI76
aI0
aI76
aI0
aI76
aI0
aI76
aI88
aI76
aI86
aI76
aI84
aI76
aI80
aI76
aI84
aI88
aI86
aI88
aI86
aI84
aI83
aI81
aI83
aI81
aI83
aI81
aI79
aI76
aI74
aI76
aI74
aI76
aI74
aI76
aI74
aI76
aI77
aI76
aI77
aI76
aI77
aI76
aI83
aI84
aI69
aI72
aI76
aI74
aI76
aI74
aI71
aI72
aI69
aI81
aI88
aI86
aI84
aI83
aI80
aI81
aI69
aI76
aI74
aI72
aI71
aI72
aI69
aI81
aI88
aI86
aI88
aI86
aI84
aI81
aI69
aI76
aI93
aI0
aa(lp30
I0
aI78
aI80
aI78
aI82
aI85
aI77
aI78
aI78
aI0
aI78
aI80
aI78
aI82
aI85
aI89
aI90
aI85
aI87
aI85
aI78
aI78
aI80
aI78
aI82
aI85
aI77
aI78
aI78
aI71
aI73
aI78
aI80
aI78
aI82
aI85
aI89
aI90
aI85
aI87
aI85
aI73
aI78
aI0
aI87
aI89
aI90
aI78
aI89
aI85
aI87
aI85
aI78
aI80
aI82
aI73
aI85
aI80
aI73
aI85
aI83
aI82
aI80
aI78
aI0
aI87
aI89
aI90
aI89
aI85
aI87
aI85
aI78
aI80
aI80
aI71
aI73
aI75
aI78
aI80
aI83
aI73
aI73
aI0
aI78
aI80
aI78
aI82
aI85
aI77
aI78
aI78
aI0
aI78
aI80
aI78
aI82
aI85
aI89
aI90
aI85
aI87
aI85
aI78
aI78
aI80
aI78
aI82
aI85
aI77
aI78
aI78
aI71
aI73
aI78
aI80
aI78
aI82
aI85
aI89
aI90
aI85
aI87
aI85
aI73
aI78
aI0
aI87
aI89
aI90
aI78
aI89
aI85
aI87
aI85
aI78
aI80
aI82
aI73
aI85
aI80
aI73
aI85
aI83
aI82
aI80
aI78
aI0
aI87
aI89
aI90
aI89
aI85
aI87
aI85
aI78
aI80
aI80
aI71
aI73
aI75
aI78
aI80
aI83
aI73
aI73
aI73
aI0
aI66
aI68
aI66
aI70
aI73
aI65
aI66
aI66
aI0
aI90
aI92
aI90
aI99
aI97
aI0
aI66
aI68
aI70
aI68
aI66
aI73
aI66
aI66
aI0
aI90
aI92
aI90
aI99
aI97
aI0
aI66
aI68
aI70
aI68
aI66
aI73
aI66
aI66
aI0
aI90
aI92
aI90
aI99
aI97
aI0
aI66
aI68
aI70
aI68
aI66
aI73
aI66
aI66
aI0
aI78
aI80
aI82
aI80
aI78
aI85
aI78
aI78
aI0
aI90
aI92
aI90
aI99
aI97
aI0
aI78
aI80
aI82
aI80
aI78
aI85
aI78
aI78
aI0
aI90
aI92
aI90
aI99
aI97
aI0
aI78
aI80
aI82
aI80
aI78
aI85
aI78
aI78
aI0
aI90
aI92
aI90
aI99
aI97
aI0
aI78
aI80
aI82
aI80
aI78
aI85
aI78
aI78
aI66
aI73
aI68
aI66
aI73
aI68
aI66
aI73
aI68
aI78
aI80
aI78
aI82
aI85
aI77
aI78
aI78
aI0
aI78
aI80
aI78
aI82
aI85
aI89
aI90
aI85
aI87
aI85
aI78
aI78
aI80
aI78
aI82
aI85
aI77
aI78
aI78
aI71
aI73
aI78
aI80
aI78
aI82
aI85
aI89
aI90
aI85
aI87
aI85
aI73
aI78
aI0
aI87
aI89
aI90
aI78
aI89
aI85
aI87
aI85
aI78
aI80
aI82
aI73
aI85
aI80
aI73
aI85
aI83
aI82
aI80
aI78
aI0
aI87
aI89
aI90
aI89
aI85
aI87
aI85
aI78
aI80
aI80
aI71
aI73
aI75
aI75
aI78
aI80
aI78
aI77
aI75
aI73
aI73
aI68
aI80
aI73
aI82
aI83
aI82
aI82
aI80
aI78
aI78
aI70
aI78
aI78
aI73
aI75
aI70
aI68
aI0
aI75
aI77
aI73
aI65
aI68
aI66
aI66
aI78
aI77
aI73
aI71
aI70
aI66
aI66
aI63
aI70
aI71
aI75
aI73
aI78
aI80
aI78
aI82
aI85
aI77
aI78
aI78
aI0
aI90
aI92
aI90
aI99
aI97
aI0
aI78
aI80
aI82
aI80
aI78
aI85
aI78
aI78
aI0
aI90
aI92
aI90
aI99
aI97
aI0
aI78
aI80
aI82
aI80
aI78
aI85
aI78
aI78
aI0
aI90
aI92
aI90
aI99
aI97
aI0
aI78
aI80
aI82
aI80
aI78
aI85
aI78
aI78
aI0
aI90
aI92
aI90
aI99
aI97
aI0
aI78
aI80
aI82
aI80
aI78
aI85
aI78
aI78
aI0
aI90
aI92
aI90
aI99
aI97
aI0
aI78
aI80
aI82
aI80
aI78
aI85
aI78
aI78
aI0
aI90
aI92
aI90
aI99
aI97
aI0
aI78
aI80
aI82
aI80
aI78
aI85
aI78
aI78
aI0
aI90
aI92
aI90
aI99
aI97
aI0
aI78
aI80
aI82
aI80
aI78
aI85
aI78
aI78
aI71
aI73
aI78
aI85
aI90
aI94
aI102
aI0
aa(lp31
I82
aI68
aI70
aI73
aI82
aI80
aI82
aI83
aI75
aI82
aI80
aI68
aI72
aI80
aI78
aI80
aI82
aI77
aI71
aI80
aI78
aI65
aI66
aI70
aI65
aI66
aI78
aI77
aI77
aI75
aI75
aI73
aI73
aI72
aI77
aI60
aI61
aI63
aI65
aI66
aI70
aI68
aI66
aI65
aI82
aI68
aI66
aI66
aI73
aI82
aI80
aI82
aI83
aI75
aI82
aI80
aI68
aI63
aI72
aI68
aI80
aI78
aI80
aI82
aI89
aI83
aI82
aI80
aI78
aI65
aI66
aI70
aI65
aI66
aI78
aI77
aI77
aI75
aI75
aI80
aI80
aI78
aI77
aI60
aI61
aI63
aI65
aI66
aI70
aI68
aI66
aI65
aI73
aI85
aI68
aI66
aI65
aI85
aI82
aI83
aI85
aI83
aI90
aI83
aI82
aI75
aI70
aI75
aI82
aI79
aI80
aI82
aI80
aI89
aI86
aI83
aI82
aI80
aI78
aI66
aI78
aI70
aI77
aI77
aI75
aI75
aI80
aI80
aI78
aI77
aI60
aI61
aI65
aI60
aI61
aI66
aI68
aI70
aI71
aI73
aI85
aI68
aI66
aI65
aI85
aI75
aI83
aI82
aI71
aI80
aI73
aI66
aI65
aI66
aI85
aI75
aI78
aI83
aI82
aI83
aI87
aI73
aI85
aI73
aI85
aI88
aI87
aI85
aI82
aI83
aI85
aI75
aI83
aI75
aI82
aI83
aI85
aI75
aI83
aI75
aI77
aI73
aI82
aI68
aI66
aI66
aI68
aI82
aI80
aI82
aI83
aI75
aI71
aI82
aI80
aI63
aI68
aI72
aI80
aI78
aI80
aI82
aI77
aI71
aI80
aI78
aI65
aI66
aI70
aI65
aI66
aI78
aI77
aI77
aI75
aI75
aI73
aI73
aI72
aI77
aI60
aI61
aI65
aI77
aI89
aI87
aI87
aI85
aI85
aI96
aI96
aI94
aI97
aI68
aI66
aI65
aI85
aI75
aI84
aI85
aI65
aI68
aI73
aI0
aa(lp32
I0
aI60
aI62
aI64
aI62
aI60
aI72
aI62
aI59
aI62
aI62
aI64
aI65
aI60
aI72
aI62
aI64
aI62
aI64
aI62
aI69
aI71
aI72
aI60
aI71
aI69
aI67
aI62
aI60
aI69
aI67
aI67
aI65
aI67
aI62
aI55
aI60
aI59
aI60
aI62
aI64
aI62
aI60
aI72
aI62
aI59
aI62
aI62
aI64
aI65
aI60
aI72
aI62
aI64
aI62
aI64
aI62
aI69
aI71
aI72
aI64
aI76
aI72
aI71
aI62
aI71
aI72
aI67
aI69
aI55
aI60
aI57
aI60
aI57
aI60
aI59
aI69
aI71
aI72
aI64
aI76
aI72
aI71
aI67
aI62
aI60
aI67
aI69
aI67
aI67
aI65
aI67
aI64
aI64
aI62
aI69
aI71
aI72
aI64
aI76
aI72
aI71
aI62
aI71
aI72
aI67
aI69
aI55
aI60
aI55
aI57
aI60
aI57
aI60
aI59
aI69
aI71
aI72
aI64
aI76
aI77
aI79
aI74
aI74
aI67
aI72
aI67
aI69
aI67
aI67
aI65
aI67
aI64
aI62
aI64
aI62
aI69
aI71
aI72
aI64
aI76
aI72
aI71
aI62
aI71
aI72
aI67
aI69
aI55
aI60
aI55
aI57
aI60
aI57
aI60
aI59
aI60
aI62
aI64
aI62
aI60
aI72
aI62
aI59
aI59
aI62
aI64
aI65
aI60
aI72
aI62
aI64
aI62
aI64
aI62
aI69
aI71
aI72
aI64
aI71
aI69
aI67
aI62
aI60
aI64
aI65
aI62
aI60
aI60
aI52
aI55
aI60
aI64
aI67
aI72
aI76
aI0
aa(lp33
I73
aI70
aI63
aI73
aI73
aI68
aI65
aI73
aI73
aI71
aI63
aI71
aI70
aI68
aI63
aI71
aI70
aI68
aI62
aI70
aI68
aI63
aI0
aI70
aI70
aI68
aI68
aI66
aI66
aI65
aI68
aI65
aI61
aI0
aI68
aI68
aI66
aI66
aI65
aI66
aI68
aI70
aI68
aI63
aI0
aI70
aI70
aI68
aI68
aI66
aI66
aI65
aI68
aI65
aI61
aI0
aI68
aI68
aI66
aI66
aI65
aI78
aI80
aI89
aI75
aI87
aI82
aI77
aI75
aI77
aI89
aI89
aI87
aI87
aI85
aI85
aI84
aI87
aI75
aI84
aI80
aI75
aI0
aI87
aI87
aI85
aI85
aI84
aI85
aI87
aI89
aI87
aI82
aI77
aI75
aI77
aI89
aI89
aI87
aI87
aI85
aI85
aI84
aI87
aI75
aI84
aI80
aI75
aI73
aI75
aI87
aI87
aI85
aI85
aI84
aI85
aI87
aI89
aI65
aI77
aI63
aI75
aI75
aI63
aI75
aI65
aI75
aI75
aI63
aI68
aI75
aI63
aI75
aI75
aI61
aI73
aI61
aI71
aI73
aI61
aI66
aI73
aI61
aI66
aI73
aI73
aI72
aI73
aI75
aI75
aI63
aI68
aI75
aI72
aI73
aI85
aI87
aI89
aI89
aI65
aI77
aI77
aI77
aI63
aI75
aI63
aI75
aI75
aI63
aI68
aI75
aI75
aI61
aI73
aI61
aI73
aI73
aI61
aI73
aI66
aI73
aI72
aI73
aI75
aI75
aI0
aI68
aI72
aI75
aI72
aI70
aI0
aI82
aI80
aI82
aI80
aI82
aI83
aI85
aI83
aI82
aI74
aI80
aI74
aI82
aI80
aI82
aI80
aI82
aI83
aI85
aI83
aI82
aI74
aI80
aI74
aI82
aI80
aI82
aI80
aI82
aI83
aI85
aI83
aI82
aI74
aI80
aI74
aI82
aI80
aI82
aI80
aI82
aI83
aI85
aI83
aI82
aI74
aI80
aI74
aI70
aI68
aI63
aI0
aI70
aI70
aI68
aI68
aI66
aI66
aI65
aI68
aI65
aI61
aI0
aI68
aI68
aI66
aI66
aI65
aI66
aI68
aI70
aI68
aI63
aI0
aI70
aI70
aI68
aI68
aI66
aI66
aI65
aI68
aI65
aI61
aI0
aI68
aI68
aI66
aI66
aI65
aI78
aI80
aI85
aI75
aI87
aI82
aI77
aI75
aI77
aI89
aI89
aI87
aI87
aI85
aI85
aI84
aI87
aI75
aI84
aI80
aI75
aI73
aI75
aI87
aI87
aI85
aI85
aI84
aI85
aI87
aI85
aI77
aI87
aI82
aI77
aI75
aI77
aI89
aI89
aI87
aI87
aI85
aI85
aI84
aI87
aI75
aI84
aI80
aI75
aI73
aI75
aI87
aI87
aI85
aI85
aI84
aI85
aI87
aI85
aI77
aI87
aI85
aI77
aI87
aI89
aI90
aI92
aI90
aI89
aI75
aI87
aI87
aI76
aI85
aI87
aI75
aI85
aI87
aI88
aI90
aI88
aI87
aI80
aI85
aI85
aI61
aI66
aI73
aI66
aI68
aI66
aI73
aI84
aI85
aI87
aI87
aI63
aI68
aI72
aI75
aI72
aI73
aI73
aI75
aI77
aI77
aI75
aI77
aI70
aI75
aI77
aI78
aI80
aI78
aI77
aI66
aI75
aI75
aI73
aI75
aI68
aI73
aI75
aI76
aI78
aI76
aI75
aI63
aI68
aI73
aI73
aI61
aI66
aI73
aI66
aI68
aI66
aI73
aI63
aI72
aI73
aI75
aI75
aI0
aI68
aI72
aI75
aI72
aI74
aI0
aI70
aI68
aI63
aI0
aI70
aI70
aI68
aI68
aI66
aI66
aI65
aI68
aI65
aI61
aI0
aI68
aI68
aI66
aI66
aI65
aI66
aI68
aI70
aI68
aI63
aI0
aI70
aI70
aI68
aI68
aI66
aI66
aI65
aI68
aI65
aI61
aI0
aI68
aI68
aI66
aI66
aI65
aI66
aI68
aI70
aI63
aI87
aI0
aa(lp34
I78
aI77
aI78
aI77
aI78
aI73
aI78
aI71
aI66
aI70
aI78
aI77
aI78
aI77
aI78
aI73
aI78
aI71
aI66
aI70
aI78
aI77
aI78
aI66
aI77
aI78
aI66
aI73
aI78
aI66
aI71
aI66
aI70
aI71
aI73
aI70
aI68
aI66
aI65
aI66
aI61
aI66
aI68
aI70
aI70
aI71
aI73
aI61
aI71
aI70
aI68
aI78
aI77
aI78
aI66
aI77
aI78
aI66
aI73
aI78
aI66
aI71
aI66
aI70
aI71
aI73
aI82
aI80
aI73
aI80
aI78
aI77
aI78
aI66
aI68
aI70
aI61
aI66
aI70
aI71
aI73
aI61
aI70
aI61
aI71
aI70
aI68
aI78
aI78
aI77
aI78
aI66
aI73
aI66
aI78
aI80
aI78
aI77
aI78
aI66
aI73
aI66
aI78
aI80
aI78
aI77
aI78
aI80
aI82
aI83
aI85
aI82
aI80
aI78
aI77
aI68
aI78
aI80
aI78
aI77
aI78
aI66
aI73
aI66
aI78
aI80
aI78
aI77
aI78
aI66
aI73
aI66
aI78
aI80
aI78
aI77
aI78
aI80
aI82
aI83
aI85
aI82
aI80
aI78
aI77
aI68
aI78
aI78
aI77
aI78
aI66
aI73
aI66
aI78
aI78
aI77
aI78
aI66
aI73
aI66
aI78
aI78
aI77
aI78
aI80
aI82
aI83
aI85
aI82
aI80
aI78
aI77
aI68
aI78
aI78
aI77
aI78
aI66
aI73
aI66
aI78
aI78
aI77
aI78
aI66
aI73
aI66
aI78
aI80
aI78
aI77
aI78
aI80
aI82
aI83
aI85
aI82
aI80
aI78
aI77
aI68
aI65
aI61
aI66
aI70
aI78
aI77
aI78
aI66
aI77
aI78
aI66
aI73
aI78
aI66
aI71
aI66
aI70
aI71
aI73
aI70
aI68
aI66
aI65
aI66
aI61
aI66
aI68
aI70
aI61
aI66
aI68
aI70
aI61
aI70
aI71
aI73
aI61
aI70
aI71
aI73
aI61
aI71
aI70
aI68
aI61
aI71
aI70
aI68
aI65
aI78
aI77
aI78
aI66
aI77
aI78
aI66
aI73
aI78
aI66
aI71
aI66
aI70
aI71
aI73
aI82
aI80
aI73
aI80
aI78
aI77
aI78
aI66
aI68
aI70
aI61
aI66
aI68
aI70
aI61
aI70
aI71
aI73
aI61
aI70
aI71
aI73
aI61
aI71
aI70
aI68
aI61
aI65
aI68
aI78
aI80
aI78
aI77
aI78
aI66
aI73
aI66
aI78
aI78
aI77
aI78
aI66
aI73
aI66
aI78
aI78
aI77
aI78
aI80
aI82
aI83
aI85
aI80
aI78
aI77
aI68
aI73
aI68
aI78
aI78
aI77
aI78
aI66
aI73
aI66
aI78
aI78
aI77
aI78
aI66
aI73
aI66
aI78
aI78
aI77
aI78
aI80
aI82
aI83
aI85
aI80
aI78
aI77
aI68
aI73
aI68
aI78
aI78
aI77
aI78
aI66
aI73
aI66
aI78
aI78
aI77
aI78
aI66
aI73
aI66
aI78
aI78
aI77
aI78
aI80
aI82
aI83
aI85
aI80
aI78
aI77
aI68
aI73
aI68
aI78
aI78
aI77
aI78
aI66
aI73
aI66
aI78
aI78
aI77
aI78
aI66
aI73
aI66
aI78
aI78
aI77
aI78
aI80
aI82
aI83
aI85
aI82
aI80
aI78
aI77
aI68
aI65
aI78
aI77
aI78
aI77
aI78
aI73
aI78
aI71
aI70
aI71
aI73
aI70
aI68
aI66
aI65
aI66
aI61
aI66
aI68
aI70
aI61
aI66
aI70
aI71
aI73
aI61
aI70
aI71
aI70
aI68
aI66
aI70
aI78
aI77
aI78
aI77
aI78
aI73
aI78
aI71
aI70
aI71
aI73
aI82
aI80
aI66
aI65
aI66
aI66
aI68
aI70
aI61
aI66
aI70
aI71
aI73
aI61
aI66
aI71
aI70
aI68
aI61
aI66
aI54
aI58
aI63
aI66
aa(lp35
I0
aI70
aI73
aI82
aI66
aI83
aI80
aI73
aI70
aI73
aI82
aI66
aI83
aI85
aI73
aI73
aI78
aI85
aI73
aI87
aI83
aI78
aI82
aI80
aI71
aI78
aI73
aI0
aI73
aI80
aI77
aI78
aI73
aI77
aI78
aI82
aI80
aI82
aI83
aI82
aI80
aI78
aI77
aI80
aI77
aI78
aI77
aI78
aI82
aI89
aI87
aI89
aI90
aI89
aI87
aI82
aI78
aI82
aI80
aI77
aI78
aI80
aI80
aI77
aI78
aI77
aI78
aI70
aI73
aI71
aI82
aI80
aI82
aI83
aI82
aI80
aI83
aI73
aI80
aI77
aI78
aI73
aI77
aI78
aI82
aI80
aI82
aI83
aI82
aI80
aI78
aI77
aI80
aI77
aI78
aI77
aI78
aI82
aI89
aI87
aI89
aI90
aI89
aI87
aI82
aI78
aI82
aI80
aI77
aI78
aI80
aI80
aI77
aI78
aI66
aI77
aI78
aI73
aI73
aI71
aI82
aI73
aI80
aI82
aI83
aI82
aI80
aI83
aI70
aI73
aI82
aI66
aI83
aI80
aI73
aI70
aI73
aI82
aI66
aI83
aI85
aI73
aI73
aI78
aI85
aI73
aI87
aI83
aI78
aI82
aI80
aI71
aI78
aI73
aI0
aI73
aI80
aI77
aI78
aI68
aI73
aI77
aI78
aI82
aI80
aI82
aI83
aI82
aI80
aI78
aI77
aI80
aI77
aI78
aI77
aI78
aI82
aI89
aI87
aI89
aI90
aI89
aI87
aI82
aI78
aI82
aI68
aI80
aI75
aI77
aI78
aI80
aI80
aI77
aI78
aI66
aI77
aI78
aI73
aI73
aI71
aI82
aI73
aI80
aI82
aI83
aI82
aI80
aI83
aI73
aI80
aI77
aI78
aI68
aI73
aI77
aI78
aI82
aI80
aI82
aI83
aI82
aI80
aI78
aI77
aI80
aI77
aI78
aI77
aI78
aI82
aI89
aI86
aI87
aI89
aI89
aI87
aI85
aI84
aI87
aI84
aI85
aI67
aI82
aI83
aI85
aI85
aI82
aI83
aI66
aI78
aI80
aI83
aI83
aI82
aI73
aI73
aI78
aI82
aI82
aI83
aI80
aI71
aI66
aI59
aI61
aI66
aI68
aI70
aI68
aI73
aI68
aI80
aI77
aI78
aI59
aI63
aI66
aI70
aI71
aI73
aI66
aI73
aI80
aI73
aI78
aI85
aI66
aI73
aI78
aI87
aI83
aI66
aI71
aI78
aI82
aI80
aI66
aI71
aI78
aI71
aI78
aI71
aI73
aI63
aI66
aI65
aI61
aI68
aI65
aI66
aI65
aI66
aI68
aI70
aI68
aI70
aI71
aI70
aI68
aI66
aI65
aI68
aI65
aI66
aI65
aI66
aI70
aI77
aI74
aI75
aI77
aI77
aI75
aI73
aI72
aI75
aI72
aI73
aI67
aI70
aI71
aI73
aI73
aI70
aI71
aI66
aI68
aI71
aI71
aI70
aI61
aI61
aI73
aI78
aI82
aI82
aI83
aI80
aI63
aI66
aI65
aI73
aI80
aI77
aI78
aI68
aI73
aI77
aI78
aI82
aI80
aI82
aI83
aI82
aI80
aI78
aI77
aI80
aI77
aI78
aI77
aI78
aI82
aI89
aI86
aI87
aI89
aI89
aI87
aI85
aI84
aI87
aI84
aI85
aI67
aI82
aI83
aI85
aI85
aI82
aI83
aI66
aI78
aI80
aI83
aI83
aI82
aI73
aI73
aI78
aI82
aI82
aI83
aI80
aI71
aI78
aI78
aI59
aI61
aI66
aI71
aI73
aI78
aI83
aI85
aI92
aI92
aI94
aI94
aI0
aa(lp36
I0
aI76
aI71
aI72
aI0
aI69
aI67
aI65
aI64
aI62
aI74
aI71
aI72
aI67
aI60
aI59
aI65
aI64
aI76
aI71
aI72
aI69
aI67
aI65
aI64
aI74
aI71
aI72
aI81
aI67
aI79
aI79
aI67
aI72
aI70
aI70
aI76
aI77
aI79
aI76
aI65
aI74
aI74
aI65
aI72
aI72
aI71
aI64
aI71
aI72
aI74
aI72
aI64
aI71
aI71
aI69
aI69
aI76
aI71
aI72
aI69
aI64
aI67
aI65
aI64
aI62
aI74
aI71
aI72
aI72
aI55
aI59
aI55
aI60
aI59
aI62
aI55
aI64
aI59
aI67
aI76
aI71
aI72
aI69
aI67
aI57
aI60
aI57
aI65
aI64
aI56
aI62
aI74
aI71
aI72
aI67
aI59
aI60
aI62
aI65
aI67
aI64
aI76
aI71
aI72
aI69
aI57
aI64
aI57
aI65
aI67
aI68
aI74
aI71
aI72
aI81
aI67
aI79
aI79
aI67
aI72
aI70
aI70
aI76
aI77
aI79
aI76
aI65
aI74
aI65
aI72
aI72
aI71
aI64
aI71
aI72
aI74
aI72
aI71
aI83
aI81
aI76
aI71
aI72
aI69
aI67
aI65
aI64
aI62
aI74
aI71
aI72
aI72
aI76
aI79
aI76
aI81
aI69
aI67
aI76
aI77
aI72
aI77
aI65
aI68
aI76
aI74
aI81
aI79
aI71
aI74
aI81
aI79
aI73
aI76
aI77
aI79
aI76
aI77
aI65
aI76
aI77
aI79
aI77
aI76
aI77
aI79
aI81
aI67
aI79
aI79
aI81
aI83
aI84
aI82
aI82
aI76
aI77
aI79
aI76
aI65
aI74
aI74
aI65
aI72
aI72
aI71
aI64
aI71
aI72
aI74
aI72
aI72
aI76
aI83
aI80
aI81
aI88
aI83
aI84
aI81
aI64
aI67
aI65
aI64
aI0
aI59
aI62
aI86
aI83
aI84
aI83
aI81
aI79
aI76
aI74
aI71
aI69
aI67
aI95
aI93
aI91
aI88
aI86
aI83
aI81
aI76
aI81
aI79
aI71
aI72
aI72
aI84
aI82
aI81
aI79
aI76
aI65
aI74
aI65
aI72
aI72
aI71
aI64
aI71
aI72
aI74
aI72
aI71
aI72
aI76
aI83
aI80
aI81
aI88
aI83
aI84
aI81
aI67
aI76
aI77
aI76
aI74
aI71
aI72
aI84
aI83
aI95
aI93
aI91
aI88
aI86
aI83
aI83
aI81
aI79
aI76
aI74
aI71
aI69
aI67
aI74
aI81
aI79
aI71
aI84
aI82
aI81
aI79
aI88
aI77
aI86
aI74
aI77
aI84
aI84
aI83
aI74
aI84
aI86
aI86
aI83
aI74
aI79
aI81
aI82
aI81
aI81
aI76
aI77
aI79
aI76
aI65
aI74
aI65
aI72
aI72
aI71
aI64
aI71
aI72
aI74
aI72
aI67
aI72
aI76
aI83
aI80
aI81
aI88
aI83
aI84
aI81
aI64
aI67
aI65
aI64
aI86
aI83
aI84
aI84
aI74
aI72
aI71
aI72
aI71
aI67
aI71
aI69
aI64
aI60
aI62
aI64
aI69
aI67
aI71
aI64
aI69
aI81
aI79
aI86
aI83
aI93
aI91
aI98
aI95
aI105
aa(lp37
I72
aI83
aI0
aI76
aI81
aI76
aI72
aI83
aI76
aI81
aI76
aI72
aI74
aI76
aI69
aI77
aI74
aI72
aI74
aI76
aI0
aI72
aI83
aI76
aI81
aI76
aI0
aI72
aI83
aI76
aI81
aI76
aI72
aI76
aI74
aI69
aI72
aI74
aI74
aI69
aI65
aI72
aI64
aI65
aI67
aI0
aI64
aI67
aI74
aI72
aI71
aI72
aI67
aI69
aI71
aI69
aI67
aI69
aI71
aI64
aI65
aI67
aI0
aI64
aI67
aI74
aI72
aI74
aI76
aI65
aI72
aI64
aI65
aI60
aI0
aI72
aI71
aI72
aI0
aI72
aI74
aI76
aI72
aI77
aI76
aI74
aI72
aI76
aI67
aI77
aI74
aI67
aI72
aI72
aI67
aI72
aI71
aI72
aI72
aI72
aI74
aI76
aI77
aI76
aI74
aI72
aI76
aI69
aI74
aI74
aI72
aI74
aI69
aI72
aI76
aI77
aI79
aI67
aI60
aI67
aI79
aI77
aI76
aI74
aI67
aI67
aI72
aI74
aI76
aI72
aI77
aI74
aI72
aI74
aI76
aI0
aI72
aI79
aI79
aI67
aI72
aI79
aI77
aI76
aI74
aI67
aI67
aI72
aI74
aI76
aI72
aI77
aI74
aI72
aI72
aI0
aI72
aI83
aI76
aI81
aI76
aI72
aI83
aI76
aI81
aI76
aI72
aI74
aI76
aI69
aI77
aI74
aI72
aI74
aI76
aI0
aI72
aI83
aI76
aI81
aI76
aI0
aI72
aI83
aI76
aI81
aI76
aI72
aI76
aI74
aI69
aI72
aI74
aI74
aI69
aI65
aI72
aI64
aI65
aI67
aI62
aI0
aI67
aI74
aI72
aI71
aI72
aI67
aI69
aI71
aI69
aI67
aI69
aI71
aI64
aI65
aI67
aI62
aI64
aI0
aI64
aI67
aI74
aI72
aI74
aI76
aI65
aI72
aI64
aI65
aI60
aI0
aI72
aI71
aI72
aI0
aI72
aI74
aI76
aI72
aI77
aI76
aI74
aI72
aI76
aI67
aI77
aI74
aI67
aI72
aI72
aI67
aI72
aI71
aI72
aI72
aI72
aI74
aI76
aI77
aI76
aI74
aI72
aI76
aI69
aI74
aI74
aI72
aI74
aI69
aI72
aI76
aI77
aI79
aI67
aI60
aI67
aI79
aI77
aI76
aI74
aI67
aI67
aI72
aI74
aI76
aI72
aI77
aI74
aI72
aI74
aI76
aI0
aI72
aI79
aI79
aI67
aI72
aI79
aI77
aI76
aI74
aI67
aI67
aI72
aI74
aI76
aI72
aI77
aI74
aI72
aI72
aI62
aI64
aI67
aI62
aI64
aI72
aI79
aI72
aI79
aI72
aI79
aI77
aI76
aI74
aI67
aI67
aI72
aI74
aI76
aI72
aI77
aI74
aI72
aI74
aI76
aI77
aI76
aI74
aI72
aI72
aI79
aI79
aI67
aI72
aI79
aI77
aI76
aI74
aI67
aI67
aI72
aI74
aI76
aI72
aI77
aI74
aI72
aI72
aI0
aI72
aI83
aI76
aI81
aI76
aI72
aI83
aI76
aI81
aI76
aI72
aI74
aI76
aI69
aI77
aI74
aI72
aI74
aI76
aI0
aI72
aI83
aI76
aI81
aI76
aI0
aI72
aI83
aI76
aI81
aI76
aI72
aI76
aI74
aI69
aI72
aI74
aI74
aI69
aI72
aI76
aI77
aI79
aI79
aI72
aI74
aI76
aI79
aI84
aI0
aa(lp38
I0
aI73
aI85
aI85
aI83
aI82
aI83
aI85
aI80
aI73
aI85
aI85
aI83
aI82
aI83
aI85
aI83
aI78
aI71
aI83
aI83
aI82
aI80
aI82
aI83
aI82
aI78
aI80
aI82
aI78
aI80
aI75
aI75
aI77
aI78
aI80
aI78
aI66
aI71
aI68
aI73
aI85
aI85
aI83
aI82
aI83
aI85
aI80
aI73
aI85
aI85
aI83
aI82
aI83
aI85
aI83
aI78
aI71
aI83
aI83
aI82
aI80
aI82
aI83
aI82
aI78
aI80
aI82
aI78
aI80
aI75
aI75
aI77
aI78
aI80
aI78
aI66
aI71
aI68
aI0
aI73
aI73
aI73
aI80
aI77
aI78
aI75
aI73
aI73
aI80
aI77
aI78
aI75
aI73
aI73
aI66
aI68
aI70
aI71
aI71
aI65
aI66
aI68
aI73
aI73
aI80
aI77
aI78
aI75
aI73
aI73
aI80
aI77
aI78
aI75
aI73
aI73
aI66
aI68
aI70
aI71
aI71
aI65
aI66
aI68
aI66
aI78
aI70
aI68
aI80
aI73
aI71
aI71
aI70
aI61
aI68
aI66
aI78
aI70
aI68
aI80
aI73
aI71
aI71
aI70
aI61
aI68
aI78
aI64
aI65
aI70
aI77
aI75
aI67
aI70
aI75
aI73
aI71
aI62
aI63
aI70
aI68
aI66
aI54
aI59
aI65
aI73
aI85
aI85
aI83
aI82
aI83
aI85
aI80
aI73
aI85
aI85
aI83
aI82
aI83
aI85
aI83
aI78
aI71
aI83
aI83
aI82
aI80
aI82
aI83
aI82
aI78
aI80
aI82
aI78
aI80
aI75
aI75
aI77
aI78
aI80
aI78
aI66
aI71
aI68
aI73
aI85
aI85
aI83
aI82
aI83
aI85
aI87
aI85
aI80
aI73
aI85
aI85
aI83
aI82
aI83
aI85
aI83
aI78
aI71
aI83
aI83
aI82
aI80
aI82
aI83
aI82
aI78
aI80
aI82
aI78
aI80
aI75
aI75
aI77
aI78
aI80
aI78
aI66
aI71
aI68
aI0
aI73
aI73
aI73
aI80
aI77
aI78
aI75
aI73
aI73
aI80
aI77
aI78
aI75
aI73
aI73
aI66
aI68
aI70
aI71
aI71
aI65
aI66
aI68
aI73
aI73
aI80
aI77
aI78
aI75
aI73
aI73
aI80
aI77
aI78
aI75
aI73
aI73
aI66
aI68
aI70
aI71
aI71
aI65
aI66
aI68
aI66
aI78
aI70
aI68
aI80
aI73
aI71
aI71
aI70
aI61
aI68
aI66
aI78
aI70
aI68
aI80
aI73
aI71
aI71
aI70
aI61
aI68
aI78
aI64
aI65
aI70
aI77
aI75
aI67
aI70
aI75
aI73
aI71
aI62
aI63
aI70
aI68
aI66
aI54
aI59
aI65
aI73
aI85
aI85
aI83
aI82
aI83
aI85
aI80
aI73
aI85
aI85
aI83
aI82
aI83
aI85
aI83
aI78
aI71
aI83
aI83
aI82
aI80
aI82
aI83
aI82
aI78
aI80
aI82
aI78
aI80
aI75
aI75
aI77
aI78
aI80
aI78
aI66
aI71
aI68
aI73
aI85
aI85
aI0
aI58
aI56
aI58
aI56
aI61
aI68
aI56
aI58
aI55
aI64
aI58
aI59
aI54
aI66
aI54
aI59
aI53
aI65
aI53
aI58
aI54
aI66
aI58
aI56
aI51
aI63
aI56
aI54
aI53
aI73
aI85
aI85
aI0
aI58
aI56
aI58
aI56
aI61
aI68
aI56
aI58
aI55
aI64
aI58
aI59
aI54
aI66
aI54
aI59
aI53
aI65
aI53
aI58
aI54
aI66
aI58
aI56
aI51
aI63
aI56
aI54
aI53
aI58
aI58
aI56
aI58
aI56
aI61
aI68
aI56
aI58
aI55
aI64
aI58
aI59
aI54
aI66
aI54
aI59
aI53
aI65
aI53
aI58
aI54
aI66
aI58
aI56
aI51
aI63
aI56
aI54
aI53
aa(lp39
I75
aI75
aI77
aI68
aI70
aI74
aI78
aI70
aI75
aI82
aI82
aI73
aI75
aI73
aI83
aI71
aI82
aI80
aI78
aI66
aI70
aI75
aI75
aI68
aI71
aI75
aI75
aI63
aI68
aI74
aI75
aI70
aI82
aI80
aI82
aI68
aI70
aI70
aI75
aI66
aI82
aI80
aI82
aI70
aI71
aI82
aI83
aI71
aI82
aI80
aI78
aI66
aI70
aI75
aI78
aI66
aI80
aI77
aI68
aI75
aI74
aI75
aI70
aI82
aI80
aI82
aI0
aI75
aI75
aI82
aI80
aI82
aI73
aI82
aI83
aI82
aI80
aI78
aI66
aI70
aI75
aI78
aI75
aI80
aI82
aI0
aI87
aI87
aI78
aI86
aI87
aI89
aI90
aI89
aI87
aI83
aI85
aI87
aI82
aI80
aI78
aI77
aI82
aI74
aI78
aI77
aI75
aI70
aI73
aI70
aI87
aI75
aI87
aI75
aI86
aI87
aI89
aI90
aI89
aI87
aI83
aI85
aI87
aI82
aI80
aI78
aI82
aI77
aI87
aI86
aI87
aI0
aI70
aI75
aI70
aI82
aI80
aI82
aI70
aI75
aI75
aI82
aI80
aI82
aI73
aI82
aI83
aI82
aI80
aI78
aI66
aI70
aI75
aI78
aI80
aI77
aI74
aI70
aI75
aI75
aI70
aI82
aI80
aI82
aI70
aI75
aI70
aI82
aI80
aI82
aI73
aI82
aI83
aI82
aI80
aI78
aI66
aI70
aI75
aI78
aI75
aI80
aI82
aI62
aI65
aI87
aI87
aI86
aI87
aI89
aI90
aI89
aI87
aI83
aI85
aI87
aI82
aI80
aI78
aI77
aI82
aI74
aI78
aI77
aI75
aI87
aI87
aI86
aI87
aI89
aI90
aI89
aI87
aI83
aI85
aI87
aI82
aI80
aI78
aI82
aI77
aI87
aI86
aI87
aI78
aI70
aI75
aI78
aI87
aI78
aI87
aI78
aI86
aI87
aI89
aI90
aI89
aI87
aI83
aI85
aI87
aI82
aI80
aI78
aI77
aI82
aI74
aI78
aI77
aI75
aI70
aI73
aI70
aI87
aI75
aI87
aI75
aI86
aI87
aI89
aI90
aI89
aI87
aI83
aI85
aI87
aI82
aI80
aI78
aI82
aI77
aI87
aI86
aI87
aI77
aI78
aI73
aI78
aI87
aI78
aI87
aI78
aI86
aI87
aI89
aI90
aI89
aI87
aI83
aI85
aI87
aI82
aI80
aI78
aI77
aI82
aI74
aI78
aI77
aI75
aI70
aI73
aI70
aI87
aI87
aI78
aI86
aI87
aI89
aI90
aI89
aI87
aI83
aI85
aI87
aI82
aI80
aI78
aI82
aI87
aI86
aI87
aI0
aa(lp40
I77
aI78
aI77
aI78
aI77
aI73
aI70
aI0
aI77
aI78
aI77
aI78
aI77
aI73
aI70
aI0
aI77
aI78
aI77
aI78
aI80
aI82
aI85
aI85
aI82
aI80
aI82
aI80
aI82
aI80
aI78
aI80
aI0
aI89
aI90
aI89
aI90
aI89
aI85
aI82
aI0
aI92
aI90
aI89
aI90
aI89
aI90
aI89
aI85
aI82
aI0
aI94
aI92
aI94
aI92
aI90
aI87
aI85
aI87
aI90
aI87
aI90
aI87
aI90
aI92
aI92
aI0
aI77
aI78
aI80
aI82
aI85
aI90
aI92
aI94
aI97
aI94
aI0
aI78
aI78
aI82
aI87
aI89
aI90
aI94
aI90
aI0
aI75
aI75
aI78
aI83
aI85
aI87
aI89
aI90
aI0
aI77
aI80
aI85
aI87
aI89
aI90
aI92
aI0
aI73
aI82
aI85
aI90
aI92
aI94
aI97
aI94
aI0
aI78
aI78
aI82
aI87
aI89
aI90
aI94
aI90
aI0
aI75
aI78
aI83
aI85
aI87
aI77
aI80
aI85
aI87
aI89
aI90
aI90
aI0
aI70
aI0
aI78
aI78
aI80
aI82
aI83
aI85
aI82
aI80
aI82
aI94
aI92
aI90
aI89
aI90
aI89
aI87
aI85
aI87
aI85
aI82
aI80
aI82
aI85
aI82
aI80
aI82
aI80
aI78
aI75
aI73
aI75
aI73
aI75
aI82
aI80
aI0
aI73
aI75
aI77
aI77
aI78
aI80
aI85
aI90
aI85
aI90
aI85
aI92
aI85
aI94
aI97
aI94
aI92
aI94
aI92
aI90
aI89
aI90
aI89
aI87
aI87
aI85
aI87
aI85
aI82
aI80
aI78
aI75
aI73
aI75
aI73
aI75
aI82
aI78
aI73
aI78
aI80
aI82
aI82
aI0
aI78
aI82
aI85
aI90
aI92
aI94
aI97
aI94
aI0
aI78
aI78
aI82
aI87
aI89
aI90
aI94
aI90
aI0
aI75
aI75
aI78
aI83
aI85
aI87
aI89
aI90
aI0
aI83
aI77
aI80
aI85
aI87
aI89
aI90
aI92
aI0
aI73
aI82
aI85
aI90
aI92
aI94
aI97
aI94
aI0
aI78
aI78
aI82
aI87
aI89
aI90
aI94
aI90
aI0
aI75
aI78
aI83
aI85
aI87
aI77
aI80
aI85
aI87
aI89
aI90
aI90
aI0
aI97
aI94
aI0
aI78
aI75
aI77
aI78
aI80
aI85
aI82
aI0
aI94
aI90
aI0
aI78
aI75
aI0
aI87
aI85
aI82
aI80
aI78
aI75
aI78
aI0
aI85
aI0
aa(lp41
I73
aI82
aI85
aI80
aI83
aI82
aI80
aI78
aI82
aI77
aI70
aI80
aI79
aI77
aI75
aI80
aI68
aI75
aI80
aI78
aI77
aI75
aI77
aI75
aI74
aI82
aI73
aI85
aI80
aI80
aI85
aI83
aI82
aI80
aI78
aI82
aI77
aI70
aI80
aI79
aI77
aI75
aI82
aI80
aI79
aI80
aI68
aI75
aI80
aI68
aI78
aI77
aI75
aI77
aI75
aI74
aI73
aI73
aI75
aI73
aI71
aI71
aI70
aI73
aI71
aI63
aI63
aI63
aI62
aI71
aI73
aI71
aI70
aI70
aI68
aI71
aI70
aI61
aI0
aI64
aI73
aI75
aI73
aI71
aI71
aI70
aI0
aI73
aI71
aI63
aI63
aI63
aI63
aI0
aI66
aI71
aI73
aI71
aI70
aI70
aI73
aI82
aI70
aI73
aI85
aI80
aI68
aI73
aI83
aI82
aI80
aI78
aI82
aI77
aI70
aI82
aI80
aI79
aI77
aI75
aI80
aI68
aI75
aI80
aI78
aI77
aI75
aI77
aI75
aI74
aI82
aI70
aI73
aI85
aI80
aI73
aI80
aI83
aI82
aI80
aI78
aI82
aI77
aI70
aI80
aI79
aI77
aI75
aI82
aI80
aI79
aI80
aI68
aI75
aI80
aI68
aI78
aI77
aI75
aI77
aI75
aI74
aI85
aI73
aI85
aI87
aI85
aI83
aI83
aI82
aI85
aI83
aI75
aI75
aI75
aI74
aI83
aI85
aI83
aI82
aI82
aI80
aI83
aI82
aI73
aI0
aI64
aI73
aI75
aI73
aI71
aI71
aI70
aI73
aI71
aI63
aI85
aI83
aI75
aI66
aI71
aI73
aI71
aI70
aI70
aI73
aI82
aI70
aI73
aI85
aI80
aI73
aI80
aI83
aI82
aI80
aI78
aI82
aI77
aI70
aI80
aI79
aI77
aI75
aI80
aI68
aI75
aI80
aI78
aI77
aI75
aI77
aI75
aI74
aI82
aI73
aI70
aI85
aI80
aI68
aI73
aI83
aI82
aI80
aI78
aI82
aI77
aI70
aI80
aI79
aI77
aI75
aI82
aI80
aI79
aI80
aI68
aI75
aI80
aI75
aI78
aI77
aI75
aI77
aI75
aI74
aI85
aI73
aI85
aI87
aI85
aI83
aI83
aI82
aI85
aI83
aI75
aI75
aI75
aI0
aI74
aI83
aI85
aI83
aI82
aI82
aI80
aI83
aI82
aI73
aI0
aI73
aI73
aI75
aI73
aI71
aI71
aI70
aI73
aI71
aI75
aI0
aI66
aI71
aI73
aI71
aI70
aI70
aI73
aI82
aI85
aI80
aI83
aI82
aI80
aI78
aI82
aI77
aI70
aI80
aI79
aI77
aI75
aI80
aI68
aI75
aI80
aI78
aI77
aI75
aI77
aI75
aI74
aI73
aI76
aI85
aI87
aI85
aI83
aI83
aI82
aI85
aI83
aI75
aI75
aI75
aI74
aI83
aI85
aI83
aI82
aI82
aI80
aI83
aI82
aI73
aI0
aI76
aI85
aI87
aI85
aI83
aI83
aI82
aI85
aI83
aI87
aI75
aI75
aI0
aI78
aI83
aI85
aI83
aI82
aI82
aI80
aI78
aI0
aI70
aI0
aa(lp42
I69
aI71
aI72
aI71
aI69
aI67
aI64
aI60
aI62
aI74
aI0
aI69
aI71
aI72
aI71
aI69
aI67
aI64
aI60
aI62
aI64
aI72
aI71
aI72
aI76
aI71
aI69
aI67
aI69
aI72
aI67
aI65
aI64
aI65
aI72
aI71
aI67
aI69
aI71
aI72
aI76
aI74
aI72
aI71
aI72
aI76
aI71
aI67
aI69
aI71
aI72
aI74
aI76
aI76
aI77
aI76
aI74
aI72
aI71
aI76
aI68
aI71
aI69
aI0
aI72
aI71
aI72
aI76
aI71
aI69
aI67
aI69
aI72
aI67
aI65
aI64
aI65
aI72
aI71
aI67
aI69
aI71
aI72
aI76
aI74
aI72
aI71
aI72
aI76
aI71
aI67
aI67
aI69
aI71
aI72
aI74
aI76
aI76
aI77
aI76
aI74
aI72
aI71
aI76
aI68
aI71
aI69
aI0
aI76
aI74
aI79
aI77
aI76
aI74
aI71
aI71
aI72
aI69
aI76
aI74
aI72
aI67
aI77
aI79
aI81
aI84
aI83
aI84
aI86
aI89
aI76
aI0
aI83
aI82
aI74
aI73
aI74
aI78
aI73
aI71
aI69
aI71
aI74
aI69
aI67
aI66
aI67
aI74
aI73
aI69
aI71
aI73
aI74
aI78
aI76
aI74
aI73
aI74
aI76
aI78
aI78
aI81
aI79
aI78
aI76
aI74
aI78
aI78
aI79
aI78
aI76
aI74
aI78
aI76
aI74
aI73
aI73
aI71
aI71
aI62
aI78
aI66
aI71
aI78
aI76
aI74
aI66
aI71
aI74
aI73
aI71
aI66
aI71
aI73
aI74
aI76
aI78
aI66
aI71
aI78
aI76
aI74
aI66
aI71
aI74
aI69
aI71
aI59
aI62
aI66
aI71
aI74
aI78
aI83
aI85
aI74
aI81
aI85
aI0
aI86
aI85
aI83
aI81
aI78
aI76
aI74
aI73
aI71
aI69
aI71
aI66
aI78
aI71
aI78
aI76
aI74
aI73
aI69
aI71
aI71
aI73
aI90
aI0
aI74
aI73
aI74
aI78
aI73
aI71
aI69
aI71
aI74
aI69
aI67
aI66
aI67
aI74
aI73
aI69
aI71
aI73
aI74
aI78
aI76
aI74
aI73
aI74
aI76
aI78
aI78
aI81
aI79
aI78
aI76
aI74
aI78
aI78
aI79
aI78
aI76
aI74
aI78
aI76
aI74
aI73
aI73
aI71
aI71
aI62
aI74
aI73
aI74
aI76
aI78
aI78
aI81
aI79
aI78
aI76
aI74
aI78
aI78
aI79
aI78
aI76
aI74
aI78
aI76
aI74
aI73
aI73
aI71
aI71
aI0
aa(lp43
I71
aI72
aI74
aI76
aI67
aI69
aI71
aI72
aI74
aI79
aI0
aI74
aI76
aI74
aI72
aI69
aI79
aI76
aI77
aI79
aI71
aI72
aI74
aI76
aI71
aI72
aI74
aI76
aI71
aI72
aI74
aI79
aI71
aI72
aI74
aI79
aI71
aI72
aI74
aI76
aI71
aI72
aI74
aI79
aI76
aI0
aI67
aI67
aI67
aI69
aI72
aI74
aI76
aI74
aI72
aI69
aI0
aI76
aI74
aI76
aI0
aI76
aI74
aI72
aI69
aI79
aI76
aI0
aI67
aI67
aI67
aI69
aI72
aI74
aI76
aI74
aI72
aI69
aI0
aI76
aI74
aI76
aI0
aI76
aI76
aI74
aI72
aI69
aI72
aI72
aI65
aI66
aI74
aI76
aI74
aI72
aI76
aI74
aI76
aI74
aI72
aI69
aI76
aI74
aI76
aI74
aI72
aI74
aI76
aI74
aI0
aI74
aI76
aI74
aI72
aI76
aI74
aI76
aI74
aI72
aI69
aI76
aI74
aI76
aI74
aI72
aI74
aI76
aI79
aI0
aI76
aI79
aI81
aI84
aI81
aI81
aI76
aI79
aI79
aI79
aI81
aI79
aI76
aI76
aI79
aI81
aI81
aI81
aI84
aI81
aI79
aI76
aI74
aI79
aI76
aI0
aI76
aI74
aI76
aI80
aI0
aI80
aI81
aI83
aI0
aI84
aI83
aI81
aI0
aI81
aI84
aI81
aI0
aI84
aI81
aI81
aI76
aI76
aI74
aI0
aI72
aI72
aI81
aI84
aI81
aI81
aI76
aI79
aI79
aI79
aI81
aI79
aI76
aI76
aI79
aI81
aI81
aI81
aI84
aI81
aI79
aI76
aI74
aI79
aI76
aI0
aI76
aI74
aI76
aI80
aI0
aI80
aI81
aI83
aI0
aI84
aI83
aI81
aI0
aI81
aI84
aI81
aI0
aI81
aI76
aI74
aI0
aI76
aI74
aI69
aI72
aI0
aI83
aI81
aI81
aI79
aI72
aI74
aI76
aI76
aI74
aI72
aI0
aa(lp44
I81
aI84
aI84
aI81
aI76
aI79
aI81
aI79
aI76
aI74
aI76
aI79
aI72
aI71
aI69
aI69
aI69
aI69
aI69
aI69
aI69
aI69
aI81
aI86
aI86
aI84
aI83
aI79
aI79
aI76
aI72
aI74
aI76
aI79
aI72
aI71
aI69
aI69
aI69
aI69
aI69
aI69
aI69
aI69
aI81
aI0
aI79
aI76
aI79
aI81
aI81
aI79
aI76
aI69
aI72
aI74
aI79
aI76
aI74
aI0
aI81
aI86
aI86
aI84
aI83
aI81
aI79
aI76
aI74
aI79
aI79
aI76
aI74
aI76
aI72
aI71
aI69
aI72
aI69
aI69
aI72
aI74
aI79
aI76
aI74
aI79
aI76
aI76
aI79
aI81
aI0
aI86
aI86
aI84
aI84
aI86
aI81
aI84
aI79
aI81
aI76
aI74
aI79
aI79
aI76
aI74
aI76
aI72
aI71
aI72
aI69
aI69
aI72
aI74
aI79
aI76
aI74
aI79
aI76
aI76
aI79
aI81
aI0
aI86
aI86
aI84
aI84
aI86
aI81
aI84
aI79
aI81
aI76
aI74
aI79
aI79
aI76
aI74
aI76
aI72
aI71
aI69
aI84
aI84
aI84
aI83
aI81
aI79
aI81
aI79
aI76
aI84
aI84
aI84
aI83
aI81
aI83
aI0
aI76
aI88
aI0
aI91
aI88
aI86
aI88
aI86
aI79
aI81
aI84
aI86
aI88
aI86
aI79
aI81
aI0
aI81
aI0
aI79
aI76
aI79
aI81
aI81
aI79
aI76
aI69
aI72
aI74
aI79
aI76
aI74
aI0
aI81
aI86
aI86
aI84
aI83
aI81
aI79
aI76
aI74
aI79
aI79
aI76
aI74
aI76
aI72
aI71
aI69
aI72
aI69
aI69
aI72
aI74
aI79
aI76
aI74
aI79
aI76
aI76
aI79
aI81
aI0
aI86
aI86
aI84
aI84
aI86
aI81
aI84
aI79
aI81
aI76
aI74
aI79
aI79
aI76
aI74
aI76
aI72
aI71
aI69
aI72
aI69
aI69
aI72
aI74
aI79
aI76
aI74
aI79
aI76
aI76
aI79
aI81
aI0
aI86
aI86
aI84
aI84
aI86
aI81
aI84
aI79
aI81
aI76
aI74
aI79
aI79
aI76
aI74
aI76
aI72
aI71
aI69
aI86
aI86
aI84
aI84
aI86
aI81
aI84
aI79
aI81
aI76
aI74
aI79
aI79
aI76
aI74
aI76
aI72
aI71
aI69
aI69
aI67
aI69
aI81
aI84
aI81
aI79
aI81
aI74
aI79
aI79
aI76
aI74
aI76
aI72
aI71
aI69
aI69
aI67
aI69
aI74
aI79
aI79
aI76
aI74
aI76
aI72
aI71
aI69
aI0
aI81
aI84
aI84
aI81
aI79
aI79
aI81
aI79
aI76
aI74
aI76
aI79
aI72
aI71
aI69
aI0
aI81
aI86
aI86
aI84
aI83
aI81
aI79
aI76
aI72
aI74
aI76
aI79
aI72
aI71
aI69
aa(lp45
I76
aI74
aI76
aI79
aI76
aI74
aI76
aI79
aI76
aI74
aI76
aI79
aI76
aI84
aI83
aI81
aI79
aI76
aI74
aI76
aI81
aI76
aI74
aI76
aI79
aI76
aI62
aI67
aI64
aI72
aI74
aI76
aI74
aI76
aI81
aI76
aI79
aI76
aI84
aI83
aI81
aI79
aI81
aI72
aI69
aI84
aI81
aI84
aI81
aI0
aI76
aI76
aI74
aI71
aI72
aI0
aI84
aI83
aI81
aI79
aI76
aI76
aI76
aI74
aI72
aI74
aI79
aI76
aI0
aI81
aI81
aI79
aI76
aI74
aI76
aI74
aI72
aI76
aI74
aI72
aI74
aI71
aI69
aI62
aI69
aI61
aI62
aI64
aI0
aI76
aI76
aI74
aI71
aI72
aI0
aI84
aI83
aI81
aI79
aI76
aI76
aI76
aI74
aI72
aI74
aI79
aI76
aI0
aI81
aI81
aI79
aI76
aI74
aI76
aI74
aI72
aI76
aI74
aI72
aI74
aI72
aI72
aI65
aI67
aI74
aI72
aI74
aI79
aI76
aI72
aI74
aI76
aI67
aI0
aI76
aI79
aI81
aI84
aI83
aI79
aI76
aI72
aI72
aI81
aI79
aI76
aI74
aI76
aI62
aI64
aI69
aI67
aI0
aI76
aI79
aI81
aI84
aI83
aI76
aI84
aI76
aI74
aI81
aI81
aI79
aI76
aI74
aI72
aI0
aI72
aI74
aI79
aI81
aI84
aI89
aI76
aI74
aI76
aI79
aI76
aI74
aI76
aI81
aI76
aI0
aI71
aI72
aI79
aI76
aI74
aI72
aI74
aI76
aI69
aI76
aI69
aI74
aI72
aI72
aI72
aI71
aI62
aI0
aI76
aI76
aI74
aI71
aI72
aI0
aI84
aI83
aI81
aI79
aI76
aI76
aI76
aI74
aI72
aI74
aI79
aI76
aI0
aI81
aI81
aI79
aI76
aI74
aI76
aI74
aI72
aI76
aI74
aI72
aI74
aI71
aI69
aI62
aI69
aI61
aI62
aI64
aI0
aI76
aI76
aI74
aI71
aI72
aI0
aI84
aI83
aI81
aI79
aI76
aI76
aI76
aI74
aI72
aI74
aI79
aI76
aI0
aI81
aI81
aI79
aI76
aI74
aI76
aI74
aI72
aI76
aI74
aI72
aI74
aI72
aI72
aI65
aI67
aI74
aI72
aI74
aI79
aI76
aI72
aI74
aI76
aI67
aI0
aI76
aI79
aI81
aI84
aI83
aI79
aI76
aI72
aI72
aI81
aI79
aI76
aI74
aI76
aI62
aI64
aI69
aI67
aI0
aI76
aI79
aI81
aI84
aI83
aI76
aI84
aI76
aI74
aI81
aI81
aI79
aI76
aI74
aI72
aI0
aI72
aI74
aI79
aI81
aI84
aI89
aI76
aI74
aI76
aI79
aI76
aI74
aI76
aI81
aI76
aI0
aI71
aI72
aI79
aI76
aI74
aI72
aI74
aI76
aI69
aI76
aI69
aI74
aI72
aI72
aI72
aI71
aI62
aI72
aI74
aI76
aI77
aI76
aI79
aI74
aI0
aI79
aI76
aI81
aI84
aI83
aI0
aI72
aI71
aI69
aI72
aI72
aI81
aI79
aI76
aI74
aI74
aI76
aI74
aI74
aI76
aI81
aI79
aI76
aI74
aI0
aI76
aI79
aI81
aI84
aI83
aI76
aI84
aI76
aI74
aI81
aI81
aI79
aI76
aI74
aI65
aI72
aI0
aI72
aI74
aI79
aI81
aI84
aI86
aI0
aI76
aI79
aI81
aI84
aI83
aI76
aI84
aI86
aI84
aI76
aI74
aI81
aI81
aI79
aI76
aI74
aI72
aI72
aI0
aI76
aI74
aI71
aI72
aI0
aI84
aI83
aI81
aI76
aI0
aI76
aI74
aI79
aI76
aI0
aI81
aI79
aI76
aI74
aI76
aI74
aI72
aI76
aI74
aI72
aI74
aI72
aI69
aI60
aI64
aI67
aI69
aI76
aI74
aI79
aI76
aI81
aI79
aI86
aI84
aI91
aa(lp46
I82
aI78
aI75
aI82
aI78
aI75
aI83
aI78
aI75
aI83
aI78
aI75
aI82
aI77
aI74
aI82
aI77
aI74
aI82
aI78
aI75
aI82
aI78
aI75
aI78
aI75
aI71
aI78
aI75
aI71
aI77
aI74
aI70
aI77
aI74
aI70
aI75
aI78
aI82
aI87
aI90
aI0
aI70
aI70
aI70
aI70
aI70
aI68
aI66
aI71
aI68
aI68
aI68
aI68
aI68
aI68
aI66
aI65
aI66
aI66
aI68
aI70
aI73
aI71
aI70
aI68
aI66
aI71
aI70
aI68
aI71
aI70
aI70
aI70
aI70
aI70
aI70
aI68
aI66
aI71
aI68
aI68
aI68
aI68
aI68
aI68
aI70
aI71
aI66
aI66
aI68
aI70
aI73
aI71
aI70
aI68
aI66
aI71
aI71
aI73
aI73
aI68
aI70
aI0
aI70
aI75
aI77
aI78
aI78
aI70
aI75
aI77
aI78
aI78
aI77
aI77
aI77
aI77
aI77
aI77
aI80
aI80
aI78
aI78
aI78
aI82
aI82
aI78
aI78
aI75
aI75
aI80
aI80
aI78
aI78
aI73
aI70
aI71
aI71
aI71
aI71
aI71
aI75
aI74
aI75
aI77
aI77
aI70
aI75
aI77
aI78
aI78
aI70
aI75
aI77
aI78
aI78
aI77
aI77
aI77
aI77
aI77
aI77
aI80
aI80
aI78
aI78
aI78
aI82
aI82
aI78
aI78
aI75
aI75
aI80
aI80
aI78
aI78
aI73
aI70
aI71
aI71
aI75
aI78
aI77
aI70
aI82
aI78
aI75
aI82
aI78
aI75
aI83
aI78
aI75
aI83
aI78
aI75
aI82
aI77
aI74
aI82
aI77
aI74
aI82
aI78
aI75
aI82
aI78
aI75
aI78
aI75
aI71
aI78
aI75
aI71
aI77
aI74
aI70
aI77
aI74
aI70
aI75
aI78
aI82
aI87
aI90
aI0
aa(lp47
I0
aI86
aI72
aI69
aI72
aI0
aI84
aI81
aI81
aI79
aI76
aI83
aI81
aI0
aI67
aI67
aI69
aI72
aI74
aI76
aI74
aI76
aI74
aI72
aI69
aI67
aI69
aI72
aI69
aI67
aI67
aI69
aI72
aI69
aI67
aI69
aI67
aI76
aI76
aI0
aI67
aI67
aI69
aI72
aI76
aI76
aI76
aI74
aI72
aI69
aI67
aI69
aI72
aI69
aI67
aI67
aI72
aI72
aI69
aI72
aI74
aI74
aI74
aI72
aI72
aI60
aI0
aI60
aI0
aI67
aI67
aI69
aI72
aI74
aI76
aI74
aI76
aI74
aI72
aI69
aI67
aI69
aI72
aI69
aI67
aI67
aI69
aI72
aI69
aI67
aI69
aI67
aI76
aI76
aI0
aI67
aI67
aI69
aI72
aI76
aI76
aI76
aI74
aI72
aI69
aI67
aI69
aI72
aI69
aI67
aI69
aI72
aI81
aI79
aI79
aI74
aI67
aI69
aI84
aI84
aI88
aI86
aI88
aI81
aI84
aI60
aI0
aI67
aI67
aI69
aI72
aI74
aI76
aI74
aI76
aI74
aI72
aI69
aI67
aI69
aI72
aI69
aI67
aI67
aI69
aI72
aI69
aI67
aI69
aI67
aI76
aI76
aI0
aI67
aI67
aI69
aI72
aI76
aI76
aI76
aI74
aI72
aI69
aI67
aI69
aI72
aI69
aI67
aI67
aI72
aI72
aI69
aI72
aI74
aI74
aI74
aI72
aI72
aI60
aI0
aI60
aI0
aI67
aI67
aI69
aI72
aI74
aI76
aI74
aI76
aI74
aI72
aI69
aI67
aI69
aI72
aI69
aI67
aI67
aI69
aI72
aI69
aI67
aI69
aI67
aI76
aI76
aI0
aI67
aI67
aI69
aI72
aI76
aI76
aI76
aI74
aI72
aI69
aI67
aI69
aI72
aI69
aI67
aI69
aI72
aI81
aI79
aI79
aI74
aI67
aI69
aI84
aI84
aI88
aI88
aI86
aI88
aI81
aI84
aI60
aI0
aI72
aI67
aI74
aI74
aI67
aI72
aI74
aI79
aI76
aI67
aI69
aI0
aI84
aI67
aI72
aI69
aI69
aI74
aI79
aI79
aI74
aI86
aI76
aI88
aI76
aI88
aI74
aI88
aI72
aI76
aI88
aI76
aI88
aI74
aI88
aI72
aI88
aI76
aI88
aI76
aI88
aI74
aI88
aI72
aI86
aI69
aI86
aI69
aI86
aI69
aI86
aI69
aI67
aI67
aI86
aI67
aI86
aI72
aI88
aI72
aI88
aI74
aI88
aI86
aI84
aI81
aI79
aI72
aI88
aI74
aI88
aI79
aI88
aI76
aI88
aI76
aI88
aI69
aI88
aI72
aI88
aI86
aI84
aI81
aI79
aI76
aI69
aI69
aI74
aI88
aI79
aI88
aI79
aI88
aI74
aI86
aI76
aI88
aI76
aI81
aI74
aI67
aI74
aI64
aI64
aI64
aI64
aI76
aI64
aI69
aI64
aI64
aI64
aI64
aI69
aI69
aI69
aI0
aI84
aa(lp48
I76
aI76
aI76
aI74
aI74
aI76
aI74
aI72
aI72
aI74
aI76
aI79
aI81
aI81
aI81
aI79
aI79
aI81
aI79
aI76
aI72
aI74
aI76
aI79
aI81
aI81
aI81
aI79
aI81
aI79
aI76
aI74
aI72
aI69
aI71
aI72
aI74
aI76
aI74
aI74
aI72
aI74
aI72
aI76
aI74
aI72
aI74
aI72
aI72
aI60
aI0
aI62
aI0
aI64
aI0
aI60
aI0
aI64
aI0
aI67
aI67
aI64
aI69
aI72
aI72
aI74
aI72
aI65
aI69
aI67
aI65
aI67
aI67
aI64
aI69
aI72
aI72
aI74
aI72
aI65
aI74
aI76
aI81
aI79
aI76
aI79
aI79
aI76
aI74
aI72
aI74
aI74
aI74
aI76
aI74
aI69
aI72
aI60
aI0
aI62
aI0
aI64
aI0
aI67
aI69
aI72
aI74
aI76
aI76
aI64
aI76
aI76
aI74
aI76
aI74
aI72
aI60
aI72
aI74
aI76
aI79
aI81
aI81
aI81
aI81
aI79
aI79
aI81
aI79
aI76
aI76
aI72
aI74
aI76
aI79
aI81
aI81
aI81
aI81
aI79
aI79
aI81
aI79
aI76
aI74
aI72
aI72
aI69
aI71
aI72
aI74
aI76
aI74
aI74
aI72
aI74
aI69
aI71
aI72
aI74
aI76
aI74
aI74
aI72
aI74
aI72
aI79
aI0
aI67
aI69
aI72
aI74
aI76
aI76
aI64
aI76
aI76
aI74
aI76
aI74
aI72
aI60
aI72
aI74
aI76
aI79
aI81
aI81
aI81
aI81
aI79
aI79
aI81
aI79
aI76
aI64
aI72
aI74
aI76
aI79
aI81
aI81
aI81
aI81
aI79
aI79
aI81
aI79
aI76
aI74
aI72
aI72
aI69
aI71
aI72
aI74
aI76
aI74
aI74
aI72
aI74
aI74
aI76
aI77
aI79
aI81
aI79
aI79
aI76
aI79
aI76
aI74
aI74
aI72
aI74
aI69
aI72
aI60
aI0
aI62
aI0
aI64
aI0
aI67
aI67
aI64
aI69
aI72
aI72
aI74
aI72
aI65
aI69
aI67
aI65
aI67
aI67
aI64
aI69
aI72
aI72
aI74
aI72
aI65
aI74
aI76
aI81
aI79
aI76
aI79
aI79
aI76
aI74
aI72
aI74
aI74
aI74
aI76
aI74
aI69
aI72
aI60
aI0
aI62
aI0
aI64
aI0
aI67
aI69
aI72
aI74
aI76
aI76
aI64
aI76
aI76
aI74
aI76
aI74
aI72
aI60
aI72
aI74
aI76
aI79
aI81
aI81
aI81
aI81
aI79
aI79
aI81
aI79
aI76
aI76
aI72
aI74
aI76
aI79
aI81
aI81
aI81
aI81
aI79
aI79
aI81
aI79
aI76
aI74
aI72
aI72
aI69
aI71
aI72
aI74
aI76
aI74
aI74
aI72
aI74
aI69
aI71
aI72
aI74
aI76
aI74
aI74
aI72
aI74
aI72
aI79
aI0
aI67
aI69
aI72
aI74
aI76
aI76
aI64
aI76
aI76
aI74
aI76
aI74
aI72
aI60
aI72
aI74
aI76
aI79
aI81
aI81
aI81
aI81
aI79
aI79
aI81
aI79
aI76
aI64
aI72
aI74
aI76
aI79
aI81
aI81
aI81
aI81
aI79
aI79
aI81
aI79
aI76
aI74
aI72
aI72
aI69
aI71
aI72
aI74
aI76
aI74
aI74
aI72
aI74
aI74
aI76
aI77
aI79
aI81
aI79
aI79
aI76
aI79
aI76
aI74
aI74
aI72
aI74
aI69
aI72
aI60
aI0
aI62
aI0
aI64
aI0
aI76
aI74
aI74
aI72
aI74
aI74
aI76
aI77
aI79
aI81
aI79
aI79
aI76
aI79
aI76
aI74
aI74
aI72
aI74
aI69
aI72
aI60
aI72
aa(lp49
I0
aI74
aI76
aI78
aI74
aI78
aI69
aI76
aI73
aI79
aI73
aI78
aI66
aI74
aI69
aI72
aI69
aI76
aI69
aI74
aI67
aI71
aI74
aI73
aI69
aI74
aI69
aI67
aI64
aI66
aI67
aI74
aI66
aI67
aI74
aI66
aI67
aI74
aI76
aI0
aI74
aI74
aI76
aI78
aI78
aI79
aI78
aI78
aI76
aI74
aI76
aI76
aI79
aI78
aI76
aI74
aI73
aI74
aI73
aI74
aI73
aI71
aI69
aI69
aI74
aI76
aI78
aI79
aI71
aI74
aI73
aI69
aI78
aI79
aI78
aI76
aI74
aI74
aI73
aI74
aI79
aI78
aI76
aI74
aI79
aI78
aI76
aI74
aI76
aI0
aI74
aI74
aI76
aI78
aI78
aI79
aI78
aI78
aI76
aI74
aI76
aI76
aI79
aI78
aI76
aI74
aI73
aI74
aI73
aI74
aI73
aI74
aI83
aI81
aI81
aI79
aI78
aI81
aI81
aI83
aI79
aI78
aI76
aI76
aI78
aI79
aI79
aI81
aI78
aI76
aI74
aI74
aI73
aI74
aI79
aI78
aI79
aI71
aI74
aI73
aI74
aI74
aI67
aI66
aI79
aI79
aI79
aI79
aI78
aI73
aI78
aI76
aI76
aI74
aI78
aI79
aI78
aI76
aI78
aI79
aI78
aI79
aI83
aI83
aI85
aI81
aI79
aI79
aI81
aI78
aI83
aI83
aI83
aI83
aI82
aI83
aI85
aI78
aI85
aI86
aI85
aI81
aI74
aI79
aI78
aI76
aI74
aI79
aI78
aI79
aI80
aI81
aI0
aI62
aI66
aI67
aI69
aI64
aI0
aI81
aI81
aI86
aI86
aI86
aI81
aI81
aI0
aI69
aI66
aI0
aI86
aI88
aI88
aI88
aI81
aI82
aI78
aI88
aI90
aI88
aI86
aI86
aI85
aI86
aI85
aI81
aI81
aI83
aI90
aI0
aI66
aI76
aI76
aI78
aI79
aI78
aI79
aI83
aI82
aI81
aI79
aI78
aI79
aI81
aI81
aI88
aI85
aI86
aI86
aI85
aI81
aI79
aI78
aI79
aI81
aI83
aI90
aI88
aI86
aI88
aI0
aI62
aI67
aI69
aI81
aI81
aI86
aI86
aI86
aI81
aI81
aI0
aI69
aI66
aI0
aI86
aI88
aI88
aI88
aI81
aI82
aI78
aI88
aI90
aI88
aI86
aI86
aI85
aI86
aI85
aI81
aI81
aI83
aI90
aI0
aI66
aI76
aI76
aI78
aI79
aI78
aI79
aI83
aI82
aI81
aI79
aI78
aI79
aI81
aI81
aI88
aI85
aI86
aI86
aI85
aI81
aI79
aI78
aI79
aI81
aI83
aI90
aI88
aI86
aI88
aI86
aI86
aI85
aI84
aI85
aI86
aI0
aI86
aI88
aI90
aI91
aI90
aI88
aI86
aI88
aI90
aI88
aI86
aI85
aI86
aI85
aI86
aI93
aI90
aI91
aI93
aI86
aI0
aI86
aI85
aI84
aI85
aI93
aI85
aI86
aI85
aI86
aI91
aI90
aI91
aI83
aI86
aI85
aI86
aI81
aI84
aI81
aI79
aI79
aI79
aI79
aI78
aI73
aI78
aI76
aI76
aI74
aI78
aI79
aI78
aI76
aI78
aI79
aI78
aI79
aI83
aI83
aI85
aI81
aI79
aI79
aI81
aI78
aI83
aI83
aI83
aI83
aI82
aI83
aI85
aI78
aI85
aI86
aI85
aI81
aI78
aI76
aI74
aI79
aI78
aI74
aI71
aI78
aI79
aI78
aI79
aI80
aI81
aI0
aI62
aI66
aI67
aI69
aI0
aI0
aI81
aI81
aI81
aI85
aI86
aI86
aI86
aI81
aI81
aI0
aI69
aI66
aI0
aI86
aI88
aI88
aI88
aI81
aI82
aI78
aI88
aI90
aI88
aI86
aI86
aI85
aI86
aI85
aI81
aI81
aI83
aI90
aI0
aI66
aI76
aI76
aI78
aI79
aI78
aI79
aI83
aI82
aI81
aI79
aI78
aI79
aI81
aI81
aI88
aI85
aI86
aI86
aI85
aI81
aI79
aI78
aI79
aI81
aI83
aI90
aI88
aI88
aI0
aI62
aI69
aI81
aI81
aI86
aI86
aI86
aI81
aI81
aI0
aI69
aI66
aI0
aI86
aI88
aI88
aI88
aI81
aI82
aI78
aI88
aI90
aI88
aI86
aI86
aI85
aI86
aI85
aI81
aI81
aI83
aI90
aI0
aI66
aI76
aI76
aI78
aI79
aI78
aI79
aI83
aI82
aI81
aI79
aI78
aI79
aI81
aI81
aI88
aI85
aI86
aI86
aI85
aI81
aI79
aI78
aI79
aI81
aI83
aI90
aI88
aI86
aI88
aI86
aI86
aI85
aI84
aI85
aI86
aI74
aI76
aI78
aI74
aI78
aI69
aI76
aI73
aI79
aI73
aI78
aI69
aI74
aI69
aI72
aI69
aI76
aI69
aI74
aI67
aI71
aI74
aI73
aI69
aI74
aI69
aI67
aI0
aI64
aI66
aI67
aI74
aI66
aI67
aI74
aI66
aI67
aI73
aI81
aI0
aa(lp50
I0
aI67
aI69
aI76
aI67
aI69
aI76
aI72
aI74
aI76
aI74
aI72
aI67
aI74
aI67
aI74
aI67
aI72
aI67
aI72
aI74
aI76
aI79
aI81
aI76
aI74
aI74
aI72
aI74
aI76
aI74
aI72
aI72
aI60
aI0
aI67
aI0
aI76
aI79
aI76
aI81
aI79
aI76
aI0
aI0
aI72
aI69
aI71
aI69
aI67
aI81
aI84
aI81
aI81
aI79
aI79
aI76
aI79
aI0
aI81
aI79
aI81
aI84
aI86
aI88
aI83
aI81
aI79
aI0
aI76
aI74
aI72
aI0
aI74
aI76
aI79
aI81
aI79
aI76
aI74
aI0
aI76
aI79
aI76
aI81
aI79
aI76
aI0
aI0
aI72
aI69
aI71
aI69
aI67
aI81
aI84
aI81
aI81
aI79
aI79
aI76
aI79
aI0
aI64
aI81
aI79
aI81
aI84
aI86
aI88
aI83
aI81
aI79
aI76
aI79
aI86
aI84
aI0
aI74
aI76
aI79
aI81
aI79
aI76
aI74
aI72
aI67
aI69
aI72
aI69
aI74
aI76
aI79
aI79
aI81
aI0
aI88
aI79
aI81
aI0
aI88
aI84
aI86
aI0
aI84
aI83
aI81
aI79
aI0
aI86
aI76
aI79
aI0
aI86
aI79
aI84
aI0
aI84
aI86
aI88
aI91
aI93
aI88
aI86
aI0
aI86
aI84
aI86
aI88
aI0
aI91
aI0
aI88
aI67
aI0
aI86
aI86
aI88
aI86
aI84
aI81
aI84
aI86
aI0
aI88
aI0
aI81
aI86
aI0
aI88
aI0
aI84
aI86
aI0
aI88
aI86
aI84
aI79
aI0
aI86
aI76
aI79
aI0
aI86
aI88
aI88
aI0
aI84
aI81
aI84
aI86
aI88
aI86
aI84
aI81
aI84
aI86
aI88
aI91
aI88
aI86
aI84
aa(lp51
I0
aI78
aI77
aI75
aI0
aI82
aI77
aI0
aI78
aI77
aI75
aI0
aI78
aI82
aI0
aI90
aI89
aI87
aI0
aI94
aI89
aI0
aI90
aI89
aI87
aI0
aI90
aI94
aI78
aI77
aI75
aI0
aI85
aI80
aI0
aI80
aI82
aI85
aI0
aI82
aI90
aI90
aI89
aI87
aI0
aI94
aI89
aI92
aI90
aI87
aI0
aI75
aI77
aI78
aI78
aI77
aI75
aI0
aI82
aI77
aI0
aI78
aI77
aI75
aI0
aI77
aI78
aI82
aI90
aI89
aI87
aI0
aI94
aI89
aI0
aI90
aI89
aI87
aI0
aI89
aI90
aI94
aI78
aI77
aI75
aI87
aI85
aI80
aI78
aI80
aI82
aI85
aI82
aI90
aI90
aI89
aI87
aI94
aI92
aI90
aI89
aI0
aI85
aI87
aI0
aI70
aI75
aI77
aI78
aI80
aI82
aI0
aI85
aI80
aI0
aI82
aI0
aI85
aI78
aI78
aI77
aI75
aI0
aI82
aI77
aI78
aI77
aI75
aI77
aI78
aI80
aI82
aI94
aI92
aI94
aI92
aI90
aI0
aI87
aI89
aI0
aI92
aI0
aI82
aI90
aI90
aI89
aI90
aI89
aI87
aI0
aI94
aI89
aI0
aI90
aI87
aI0
aI70
aI75
aI77
aI78
aI75
aI0
aI80
aI77
aI0
aI73
aI75
aI70
aI89
aI87
aI0
aI94
aI89
aI0
aI90
aI87
aI99
aI0
aa(lp52
I0
aI70
aI70
aI73
aI70
aI75
aI75
aI77
aI75
aI75
aI75
aI75
aI73
aI78
aI78
aI78
aI78
aI75
aI78
aI75
aI73
aI0
aI70
aI73
aI73
aI73
aI70
aI75
aI75
aI77
aI75
aI75
aI75
aI75
aI73
aI78
aI78
aI78
aI78
aI75
aI75
aI78
aI80
aI85
aI85
aI85
aI85
aI82
aI80
aI78
aI78
aI75
aI75
aI78
aI75
aI78
aI80
aI80
aI80
aI80
aI78
aI82
aI80
aI80
aI82
aI82
aI82
aI82
aI80
aI80
aI78
aI78
aI78
aI80
aI78
aI75
aI73
aI73
aI73
aI73
aI75
aI73
aI80
aI82
aI78
aI82
aI82
aI82
aI82
aI80
aI80
aI78
aI78
aI78
aI80
aI78
aI75
aI73
aI73
aI73
aI73
aI75
aI73
aI80
aI82
aI78
aI0
aI70
aI70
aI73
aI70
aI0
aI77
aI75
aI75
aI75
aI73
aI78
aI78
aI78
aI78
aI75
aI78
aI75
aI73
aI0
aI70
aI73
aI70
aI0
aI77
aI75
aI75
aI73
aI78
aI78
aI78
aI78
aI75
aI78
aI80
aI85
aI85
aI85
aI85
aI85
aI0
aI80
aI78
aI78
aI75
aI78
aI75
aI78
aI80
aI78
aI0
aI80
aI82
aI82
aI80
aI78
aI78
aI78
aI80
aI78
aI75
aI73
aI75
aI0
aI80
aI0
aI78
aI0
aI82
aI80
aI78
aI78
aI78
aI80
aI78
aI75
aI73
aI75
aI0
aI80
aI82
aI78
aI89
aI0
aI73
aI70
aI75
aI75
aI77
aI75
aI75
aI75
aI75
aI0
aI78
aI78
aI78
aI0
aI94
aI94
aI0
aI94
aI73
aI0
aI70
aI0
aI73
aI0
aI89
aI0
aI94
aI77
aI94
aI75
aI75
aI75
aI73
aI78
aI78
aI0
aI78
aI75
aI94
aI97
aI80
aI80
aI80
aI80
aI80
aI80
aI80
aI0
aI85
aI85
aI85
aI85
aI82
aI0
aI78
aI78
aI78
aI75
aI75
aI0
aI94
aI78
aI80
aI80
aI0
aI80
aI78
aI78
aI0
aI80
aI80
aI80
aI80
aI80
aI80
aI80
aI80
aI0
aI82
aI0
aI82
aI0
aI80
aI80
aI80
aI78
aI78
aI0
aI97
aI80
aI97
aI94
aI73
aI92
aI73
aI73
aI75
aI73
aI80
aI82
aI0
aI78
aI78
aI78
aI78
aI78
aI78
aI82
aI82
aI0
aI82
aI82
aI0
aI82
aI80
aI80
aI0
aI97
aI78
aI78
aI78
aI78
aI0
aI78
aI75
aI92
aI73
aI73
aI75
aI73
aI80
aI82
aI78
aI78
aI78
aI78
aI78
aI78
aI78
aI0
aa(lp53
I76
aI79
aI76
aI74
aI79
aI72
aI67
aI72
aI81
aI76
aI79
aI76
aI74
aI79
aI72
aI67
aI72
aI69
aI76
aI74
aI76
aI79
aI79
aI74
aI72
aI71
aI72
aI76
aI76
aI71
aI69
aI67
aI0
aI81
aI79
aI72
aI69
aI71
aI72
aI76
aI74
aI0
aI76
aI74
aI76
aI79
aI79
aI74
aI84
aI83
aI81
aI76
aI79
aI74
aI84
aI83
aI81
aI76
aI79
aI72
aI77
aI76
aI74
aI72
aI72
aI79
aI72
aI67
aI72
aI84
aI84
aI84
aI76
aI83
aI81
aI81
aI81
aI72
aI79
aI74
aI81
aI83
aI84
aI84
aI76
aI84
aI76
aI81
aI79
aI67
aI72
aI71
aI0
aI84
aI86
aI88
aI88
aI88
aI79
aI86
aI86
aI86
aI79
aI84
aI83
aI81
aI76
aI71
aI0
aI86
aI88
aI89
aI89
aI89
aI81
aI79
aI86
aI79
aI78
aI78
aI81
aI84
aI88
aI86
aI83
aI84
aI88
aI88
aI88
aI79
aI80
aI83
aI89
aI88
aI86
aI84
aI0
aI84
aI81
aI82
aI82
aI86
aI88
aI91
aI89
aI89
aI81
aI88
aI86
aI84
aI78
aI78
aI81
aI84
aI88
aI86
aI79
aI84
aI84
aI76
aI76
aI72
aI72
aI71
aI69
aI81
aI79
aI74
aI74
aI71
aI71
aI67
aI67
aI75
aI79
aI77
aI77
aI75
aI75
aI74
aI74
aI72
aI74
aI67
aI67
aI69
aI72
aI74
aI76
aI76
aI76
aI67
aI74
aI74
aI74
aI67
aI72
aI71
aI69
aI64
aI67
aI0
aI74
aI76
aI77
aI77
aI77
aI69
aI76
aI74
aI72
aI66
aI66
aI60
aI72
aI76
aI74
aI71
aI72
aI74
aI76
aI76
aI76
aI67
aI68
aI71
aI77
aI74
aI67
aI72
aI69
aI70
aI70
aI74
aI76
aI79
aI77
aI77
aI69
aI76
aI74
aI72
aI67
aI66
aI69
aI72
aI76
aI74
aI71
aI72
aI72
aI79
aI76
aI74
aI79
aI72
aI0
aI72
aI81
aI76
aI79
aI76
aI74
aI79
aI72
aI0
aI72
aI81
aI0
aa(lp54
I84
aI83
aI81
aI83
aI76
aI81
aI0
aI76
aI0
aI74
aI72
aI74
aI76
aI71
aI76
aI69
aI0
aI71
aI0
aI69
aI76
aI71
aI69
aI69
aI71
aI72
aI74
aI76
aI69
aI81
aI79
aI81
aI79
aI74
aI76
aI69
aI69
aI81
aI79
aI74
aI76
aI77
aI76
aI72
aI69
aI76
aI74
aI71
aI69
aI0
aI69
aI76
aI71
aI69
aI69
aI71
aI72
aI74
aI76
aI69
aI81
aI79
aI81
aI79
aI74
aI76
aI69
aI69
aI81
aI79
aI74
aI76
aI77
aI76
aI72
aI69
aI76
aI74
aI71
aI69
aI0
aI81
aI83
aI84
aI86
aI88
aI84
aI83
aI79
aI81
aI84
aI86
aI88
aI88
aI81
aI83
aI84
aI86
aI88
aI84
aI83
aI79
aI81
aI84
aI86
aI84
aI84
aI81
aI83
aI84
aI86
aI88
aI84
aI83
aI79
aI81
aI84
aI86
aI88
aI88
aI81
aI83
aI84
aI86
aI88
aI84
aI83
aI79
aI81
aI84
aI86
aI84
aI84
aI76
aI81
aI83
aI84
aI86
aI84
aI83
aI79
aI81
aI76
aI74
aI74
aI0
aI71
aI72
aI69
aI0
aI79
aI86
aI84
aI83
aI81
aI76
aI0
aI81
aI69
aI76
aI71
aI69
aI69
aI71
aI72
aI74
aI76
aI69
aI81
aI79
aI81
aI79
aI74
aI76
aI69
aI69
aI81
aI79
aI74
aI76
aI77
aI76
aI72
aI69
aI76
aI74
aI71
aI69
aI0
aI69
aI76
aI71
aI69
aI69
aI71
aI72
aI74
aI76
aI69
aI81
aI79
aI81
aI79
aI74
aI76
aI69
aI69
aI81
aI79
aI74
aI76
aI77
aI76
aI72
aI69
aI76
aI74
aI71
aI69
aI0
aI81
aI83
aI84
aI86
aI88
aI84
aI83
aI79
aI81
aI84
aI86
aI88
aI88
aI81
aI83
aI84
aI86
aI88
aI84
aI83
aI79
aI81
aI84
aI86
aI84
aI84
aI81
aI83
aI84
aI86
aI88
aI84
aI83
aI79
aI81
aI84
aI86
aI88
aI88
aI81
aI83
aI84
aI86
aI88
aI84
aI83
aI79
aI81
aI84
aI86
aI84
aI84
aI81
aI83
aI84
aI86
aI88
aI84
aI83
aI79
aI88
aI86
aI84
aI86
aI84
aI86
aI88
aI81
aI83
aI84
aI86
aI88
aI84
aI83
aI79
aI88
aI86
aI84
aI86
aI84
aI84
aI81
aI83
aI84
aI86
aI88
aI84
aI83
aI79
aI81
aI84
aI86
aI88
aI88
aI81
aI83
aI84
aI86
aI88
aI84
aI83
aI79
aI81
aI84
aI86
aI84
aI84
aI81
aI83
aI84
aI86
aI88
aI84
aI83
aI79
aI88
aI86
aI84
aI86
aI84
aI86
aI88
aI81
aI83
aI84
aI86
aI88
aI84
aI83
aI79
aI88
aI86
aI84
aI86
aI84
aI84
aI81
aI83
aI84
aI86
aI88
aI84
aI83
aI79
aI79
aI81
aI84
aI86
aI88
aI88
aI81
aI83
aI84
aI86
aI88
aI84
aI83
aI79
aI81
aI84
aI86
aI84
aI84
aI0
aI84
aI86
aI88
aI84
aI83
aI81
aI79
aI79
aI81
aI84
aI83
aI81
aI79
aI0
aI81
aI0
aa(lp55
I0
aI71
aI69
aI66
aI69
aI69
aI66
aI69
aI69
aI66
aI69
aI66
aI64
aI0
aI71
aI69
aI66
aI69
aI69
aI66
aI69
aI69
aI73
aI71
aI69
aI69
aI0
aI64
aI66
aI73
aI73
aI73
aI71
aI73
aI73
aI71
aI73
aI76
aI73
aI0
aI73
aI73
aI73
aI71
aI71
aI71
aI71
aI71
aI69
aI73
aI0
aI71
aI69
aI66
aI69
aI69
aI66
aI69
aI69
aI66
aI69
aI66
aI64
aI0
aI64
aI64
aI73
aI76
aI76
aI73
aI76
aI76
aI73
aI71
aI69
aI69
aI0
aI71
aI69
aI71
aI73
aI71
aI71
aI71
aI69
aI66
aI71
aI69
aI69
aI66
aI69
aI69
aI71
aI76
aI76
aI73
aI71
aI73
aI66
aI71
aI73
aI76
aI73
aI71
aI0
aI76
aI76
aI73
aI71
aI73
aI64
aI71
aI73
aI76
aI71
aI69
aI0
aI69
aI71
aI73
aI76
aI66
aI76
aI73
aI76
aI73
aI73
aI71
aI71
aI0
aI69
aI71
aI69
aI71
aI69
aI71
aI73
aI76
aI73
aI0
aI76
aI76
aI73
aI71
aI73
aI66
aI71
aI73
aI76
aI73
aI71
aI0
aI76
aI76
aI73
aI71
aI73
aI64
aI71
aI73
aI76
aI71
aI69
aI0
aI69
aI71
aI73
aI76
aI66
aI76
aI73
aI76
aI73
aI73
aI71
aI71
aI64
aI73
aI71
aI71
aI69
aI0
aI71
aI69
aI66
aI69
aI69
aI66
aI69
aI69
aI66
aI69
aI66
aI64
aI0
aI71
aI69
aI66
aI69
aI69
aI66
aI69
aI69
aI73
aI71
aI69
aI69
aI0
aI64
aI64
aI73
aI73
aI73
aI71
aI73
aI73
aI71
aI73
aI76
aI73
aI0
aI73
aI73
aI73
aI71
aI71
aI71
aI71
aI71
aI69
aI73
aI0
aI71
aI69
aI66
aI69
aI69
aI66
aI69
aI69
aI66
aI69
aI66
aI64
aI0
aI64
aI64
aI73
aI76
aI76
aI73
aI76
aI76
aI73
aI71
aI69
aI69
aI0
aI71
aI69
aI71
aI73
aI71
aI71
aI71
aI69
aI66
aI71
aI69
aI69
aI66
aI69
aI69
aI71
aI76
aI76
aI73
aI71
aI73
aI66
aI71
aI73
aI76
aI73
aI71
aI0
aI76
aI76
aI73
aI71
aI73
aI64
aI71
aI73
aI76
aI71
aI69
aI0
aI69
aI71
aI73
aI76
aI78
aI76
aI73
aI76
aI73
aI73
aI71
aI71
aI0
aI69
aI71
aI69
aI71
aI69
aI71
aI73
aI76
aI73
aI0
aI76
aI76
aI73
aI71
aI73
aI66
aI71
aI73
aI76
aI73
aI71
aI0
aI76
aI76
aI73
aI71
aI73
aI64
aI71
aI73
aI76
aI69
aI69
aI0
aI69
aI71
aI73
aI76
aI78
aI76
aI73
aI76
aI73
aI73
aI71
aI71
aI64
aI73
aI71
aI71
aI69
aI0
aI77
aI77
aI74
aI72
aI74
aI67
aI72
aI74
aI77
aI74
aI72
aI0
aI77
aI77
aI74
aI72
aI74
aI65
aI72
aI74
aI77
aI74
aI70
aI0
aI70
aI72
aI74
aI77
aI79
aI77
aI74
aI77
aI74
aI74
aI72
aI72
aI0
aI70
aI72
aI70
aI72
aI70
aI72
aI74
aI77
aI74
aI0
aI77
aI77
aI74
aI72
aI74
aI67
aI72
aI74
aI77
aI74
aI72
aI0
aI77
aI77
aI74
aI72
aI74
aI65
aI72
aI74
aI77
aI72
aI70
aI0
aI70
aI72
aI74
aI77
aI79
aI77
aI74
aI77
aI74
aI74
aI72
aI72
aI65
aI74
aI72
aI72
aI70
aa(lp56
I84
aI83
aI84
aI83
aI84
aI83
aI84
aI83
aI84
aI83
aI84
aI83
aI84
aI83
aI84
aI83
aI84
aI83
aI84
aI83
aI84
aI83
aI76
aI79
aI0
aI64
aI72
aI71
aI72
aI71
aI72
aI71
aI72
aI71
aI72
aI71
aI72
aI71
aI72
aI71
aI72
aI74
aI71
aI0
aI67
aI64
aI76
aI71
aI79
aI91
aI0
aI60
aI64
aI62
aI60
aI62
aI64
aI62
aI60
aI62
aI62
aI60
aI60
aI0
aI88
aI64
aI62
aI60
aI62
aI64
aI62
aI60
aI62
aI64
aI62
aI60
aI62
aI0
aI88
aI0
aI60
aI64
aI62
aI60
aI0
aI64
aI62
aI60
aI0
aI64
aI69
aI71
aI72
aI71
aI64
aI0
aI72
aI72
aI72
aI71
aI69
aI71
aI69
aI64
aI60
aI0
aI62
aI62
aI62
aI60
aI0
aI71
aI72
aI71
aI72
aI71
aI0
aI77
aI77
aI77
aI77
aI81
aI77
aI77
aI77
aI77
aI81
aI76
aI76
aI76
aI81
aI76
aI74
aI72
aI69
aI77
aI77
aI77
aI77
aI81
aI83
aI83
aI84
aI83
aI76
aI84
aI81
aI84
aI81
aI88
aI83
aI0
aI81
aI83
aI84
aI84
aI84
aI84
aI84
aI84
aI84
aI88
aI88
aI0
aI86
aI85
aI86
aI0
aI83
aI83
aI83
aI84
aI86
aI86
aI84
aI83
aI84
aI83
aI84
aI83
aI76
aI0
aI81
aI83
aI84
aI84
aI84
aI84
aI84
aI84
aI84
aI88
aI88
aI0
aI86
aI86
aI86
aI76
aI83
aI83
aI84
aI86
aI84
aI83
aI76
aI86
aI84
aI83
aI84
aI81
aI76
aI88
aI83
aI84
aI74
aI76
aI83
aI83
aI83
aI84
aI83
aI0
aI81
aI88
aI83
aI0
aI91
aI86
aI88
aI79
aI83
aI88
aI91
aI95
aI98
aI0
aI60
aI64
aI62
aI60
aI62
aI64
aI62
aI60
aI62
aI62
aI60
aI60
aI0
aI60
aI64
aI62
aI60
aI62
aI64
aI62
aI60
aI62
aI64
aI62
aI60
aI62
aI64
aI0
aI60
aI64
aI62
aI60
aI0
aI64
aI62
aI60
aI62
aI64
aI69
aI71
aI72
aI71
aI64
aI0
aI72
aI72
aI72
aI71
aI69
aI71
aI69
aI64
aI60
aI0
aI62
aI62
aI62
aI60
aI0
aI77
aI77
aI77
aI77
aI81
aI77
aI77
aI77
aI77
aI81
aI76
aI76
aI76
aI81
aI76
aI74
aI72
aI69
aI77
aI77
aI77
aI77
aI81
aI83
aI83
aI84
aI83
aI76
aI84
aI81
aI84
aI81
aI88
aI83
aI0
aI81
aI83
aI84
aI84
aI84
aI84
aI84
aI84
aI84
aI88
aI88
aI0
aI86
aI84
aI86
aI0
aI83
aI83
aI83
aI84
aI86
aI86
aI84
aI83
aI84
aI83
aI84
aI83
aI76
aI0
aI81
aI83
aI84
aI84
aI84
aI84
aI84
aI84
aI84
aI88
aI88
aI0
aI86
aI86
aI86
aI76
aI83
aI83
aI84
aI86
aI84
aI83
aI76
aI86
aI84
aI83
aI84
aI81
aI69
aI71
aI72
aI74
aI76
aI79
aI83
aI86
aI0
aI82
aI84
aI90
aI89
aI90
aI90
aI90
aI90
aI90
aI94
aI94
aI0
aI92
aI90
aI92
aI0
aI89
aI89
aI89
aI90
aI92
aI92
aI90
aI89
aI90
aI89
aI90
aI92
aI94
aI0
aI87
aI89
aI90
aI90
aI90
aI90
aI90
aI90
aI90
aI94
aI94
aI0
aI92
aI92
aI92
aI82
aI89
aI89
aI90
aI92
aI90
aI89
aI82
aI92
aI90
aI89
aI90
aI87
aI82
aI89
aI89
aI90
aI92
aI90
aI89
aI82
aI92
aI90
aI89
aI90
aI87
aI87
aI89
aI90
aI87
aa(lp57
I0
aI70
aI73
aI82
aI73
aI83
aI82
aI80
aI83
aI82
aI80
aI78
aI73
aI80
aI78
aI77
aI80
aI78
aI77
aI75
aI0
aI77
aI75
aI73
aI80
aI78
aI70
aI71
aI71
aI73
aI85
aI83
aI82
aI80
aI82
aI80
aI0
aI75
aI77
aI77
aI77
aI77
aI73
aI73
aI73
aI73
aI73
aI78
aI78
aI78
aI78
aI78
aI78
aI77
aI77
aI77
aI78
aI80
aI78
aI77
aI0
aI75
aI77
aI77
aI77
aI77
aI73
aI73
aI73
aI73
aI73
aI78
aI78
aI78
aI78
aI80
aI78
aI82
aI82
aI80
aI78
aI82
aI77
aI78
aI85
aI85
aI82
aI82
aI77
aI85
aI85
aI80
aI80
aI78
aI85
aI85
aI82
aI82
aI80
aI80
aI80
aI82
aI80
aI78
aI77
aI78
aI85
aI85
aI82
aI82
aI77
aI85
aI85
aI80
aI80
aI78
aI78
aI78
aI75
aI80
aI75
aI78
aI0
aI78
aI78
aI78
aI78
aI75
aI82
aI78
aI80
aI0
aI82
aI73
aI82
aI82
aI82
aI80
aI80
aI78
aI78
aI78
aI80
aI82
aI80
aI73
aI82
aI82
aI82
aI80
aI80
aI78
aI78
aI78
aI75
aI78
aI80
aI78
aI82
aI82
aI83
aI82
aI80
aI78
aI78
aI75
aI78
aI75
aI82
aI73
aI73
aI73
aI75
aI80
aI78
aI78
aI78
aI78
aI78
aI78
aI78
aI80
aI80
aI73
aI82
aI82
aI82
aI80
aI80
aI78
aI78
aI78
aI80
aI82
aI80
aI73
aI82
aI82
aI82
aI80
aI80
aI78
aI78
aI78
aI75
aI78
aI80
aI78
aI82
aI82
aI83
aI82
aI80
aI78
aI78
aI75
aI78
aI75
aI82
aI73
aI73
aI73
aI75
aI80
aI78
aI78
aI78
aI78
aI78
aI78
aI78
aI80
aI80
aI73
aI82
aI80
aI78
aI80
aI78
aI78
aI0
aI77
aI0
aI75
aI77
aI77
aI77
aI77
aI73
aI73
aI73
aI73
aI73
aI78
aI78
aI78
aI78
aI78
aI78
aI77
aI77
aI77
aI78
aI80
aI78
aI77
aI0
aI75
aI77
aI77
aI77
aI77
aI73
aI73
aI73
aI73
aI73
aI78
aI78
aI78
aI78
aI80
aI78
aI82
aI82
aI80
aI78
aI82
aI77
aI78
aI85
aI85
aI82
aI82
aI77
aI85
aI85
aI80
aI80
aI78
aI85
aI85
aI82
aI82
aI80
aI80
aI80
aI82
aI80
aI78
aI77
aI78
aI85
aI85
aI82
aI82
aI77
aI85
aI85
aI80
aI80
aI78
aI78
aI78
aI75
aI80
aI75
aI78
aI0
aI78
aI78
aI78
aI78
aI75
aI82
aI78
aI80
aI0
aI82
aI73
aI82
aI82
aI82
aI80
aI80
aI78
aI78
aI78
aI80
aI82
aI80
aI73
aI82
aI82
aI82
aI80
aI80
aI78
aI78
aI78
aI75
aI78
aI80
aI78
aI82
aI82
aI83
aI82
aI80
aI78
aI78
aI75
aI78
aI75
aI82
aI73
aI73
aI73
aI75
aI80
aI78
aI78
aI78
aI78
aI78
aI78
aI78
aI80
aI80
aI73
aI82
aI82
aI82
aI80
aI80
aI78
aI78
aI78
aI80
aI82
aI80
aI73
aI82
aI82
aI82
aI80
aI80
aI78
aI78
aI78
aI75
aI78
aI80
aI78
aI82
aI82
aI83
aI82
aI80
aI78
aI78
aI75
aI78
aI75
aI82
aI73
aI73
aI73
aI75
aI80
aI78
aI78
aI78
aI78
aI78
aI78
aI78
aI80
aI80
aI73
aI82
aI80
aI78
aI80
aI78
aI78
aI0
aI78
aI80
aI82
aI83
aI85
aI85
aI85
aI85
aI85
aI87
aI82
aI83
aI85
aI85
aI83
aI83
aI82
aI83
aI83
aI0
aI83
aI83
aI83
aI83
aI85
aI80
aI82
aI83
aI83
aI82
aI82
aI80
aI78
aI80
aI78
aI78
aI80
aI78
aI89
aI87
aI89
aI87
aI87
aI92
aI89
aI85
aI85
aI80
aI80
aI78
aI73
aI82
aI83
aI83
aI75
aI82
aI83
aI85
aI82
aI82
aI80
aI0
aI74
aI67
aI76
aI76
aI76
aI74
aI74
aI72
aI72
aI72
aI74
aI76
aI74
aI67
aI76
aI76
aI76
aI74
aI74
aI72
aI72
aI72
aI69
aI72
aI74
aI72
aI76
aI76
aI77
aI76
aI74
aI72
aI72
aI69
aI72
aI69
aI76
aI67
aI67
aI67
aI69
aI74
aI72
aI72
aI72
aI72
aI72
aI72
aI72
aI74
aI74
aI67
aI76
aI76
aI76
aI74
aI74
aI72
aI72
aI72
aI74
aI76
aI74
aI67
aI76
aI79
aI76
aI74
aI76
aI74
aI74
aI72
aI74
aI72
aI72
aI69
aI72
aI74
aI72
aI67
aI67
aI69
aI72
aI69
aI72
aI72
aI69
aI72
aI69
aI74
aI76
aI76
aI67
aI76
aI74
aI72
aI74
aI72
aI72
aI72
aI72
aI72
aI72
aI74
aI74
aI67
aI76
aI74
aI72
aI76
aI67
aI77
aI76
aI74
aI77
aI76
aI74
aI72
aI67
aI74
aI72
aI71
aI74
aI72
aI71
aI69
aI0
aI71
aI69
aI67
aI74
aI72
aI64
aI65
aI65
aI67
aI79
aI77
aI76
aI74
aI76
aI74
aI72
aI0
aa(lp58
I70
aI73
aI80
aI78
aI77
aI78
aI77
aI73
aI66
aI75
aI78
aI63
aI66
aI74
aI0
aI70
aI73
aI80
aI78
aI77
aI78
aI82
aI75
aI82
aI0
aI75
aI83
aI82
aI80
aI0
aI78
aI77
aI78
aI77
aI78
aI77
aI78
aI80
aI82
aI80
aI78
aI73
aI70
aI73
aI70
aI66
aI73
aI73
aI71
aI71
aI70
aI71
aI71
aI66
aI70
aI63
aI70
aI65
aI58
aI70
aI58
aI62
aI65
aI70
aI58
aI70
aI68
aI66
aI0
aI66
aI66
aI65
aI65
aI66
aI66
aI65
aI65
aI66
aI62
aI61
aI62
aI61
aI59
aI61
aI62
aI66
aI65
aI73
aI73
aI70
aI68
aI78
aI78
aI80
aI82
aI82
aI83
aI82
aI80
aI73
aI68
aI66
aI65
aI66
aI65
aI66
aI65
aI66
aI65
aI66
aI73
aI71
aI70
aI73
aI70
aI78
aI80
aI82
aI82
aI78
aI73
aI70
aI0
aI90
aI89
aI90
aI89
aI90
aI89
aI87
aI89
aI90
aI0
aI61
aI73
aI70
aI66
aI73
aI77
aI76
aI72
aI69
aI65
aI64
aI60
aI62
aI79
aI86
aI84
aI79
aI86
aI84
aI79
aI86
aI84
aI88
aI91
aI0
aI79
aI86
aI84
aI83
aI79
aI72
aI71
aI67
aI62
aI67
aI74
aI72
aI67
aI74
aI72
aI67
aI74
aI72
aI76
aI79
aI0
aI62
aI67
aI70
aI76
aI72
aI81
aI81
aI76
aI76
aI72
aI76
aI74
aI0
aI71
aI72
aI74
aI74
aI77
aI76
aI68
aI74
aI71
aI74
aI62
aI64
aI0
aI60
aI65
aI60
aI0
aI60
aI65
aI64
aI64
aI64
aI0
aI64
aI64
aI61
aI64
aI64
aI71
aI69
aI68
aI68
aI69
aI68
aI68
aI66
aI68
aI69
aI71
aI69
aI71
aI76
aI76
aI78
aI80
aI80
aI81
aI83
aI85
aI85
aI74
aI85
aI86
aI85
aI83
aI68
aI69
aI71
aI69
aI68
aI63
aI66
aI71
aI0
aI63
aI66
aI71
aI0
aI63
aI66
aI71
aI73
aI61
aI71
aI71
aI69
aI71
aI73
aI76
aI76
aI81
aI83
aI85
aI88
aI88
aI81
aI78
aI80
aI81
aI93
aI69
aI73
aI73
aI71
aI71
aI61
aI71
aI71
aI61
aI73
aI61
aI69
aI85
aI85
aI0
aI85
aI85
aI69
aI0
aI71
aI69
aI71
aI76
aI76
aI71
aI69
aI69
aI71
aI73
aI61
aI73
aI73
aI74
aI73
aI71
aI68
aI69
aI71
aI69
aI68
aI71
aI71
aI69
aI68
aI63
aI73
aI61
aI71
aI71
aI69
aI71
aI73
aI0
aI78
aI80
aI81
aI80
aI81
aI78
aI80
aI81
aI85
aI78
aI80
aI81
aI77
aI81
aI88
aI88
aI0
aI88
aI76
aI88
aI83
aI83
aI0
aI69
aI0
aI0
aI69
aI69
aI0
aa(lp59
I84
aI0
aI89
aI91
aI89
aI88
aI86
aI0
aI86
aI0
aI86
aI91
aI0
aI91
aI93
aI91
aI89
aI88
aI84
aI0
aI84
aI93
aI0
aI93
aI94
aI93
aI91
aI89
aI86
aI0
aI84
aI84
aI86
aI0
aI91
aI0
aI88
aI0
aI89
aI0
aI96
aI101
aI0
aI101
aI103
aI101
aI100
aI98
aI0
aI98
aI0
aI98
aI103
aI0
aI103
aI105
aI103
aI101
aI100
aI96
aI0
aI96
aI105
aI0
aI105
aI106
aI105
aI103
aI101
aI98
aI0
aI96
aI96
aI98
aI0
aI103
aI0
aI100
aI0
aI101
aI0
aI84
aI89
aI89
aI89
aI0
aI88
aI0
aI88
aI89
aI88
aI86
aI84
aI0
aI91
aI93
aI91
aI89
aI0
aI96
aI0
aI84
aI84
aI86
aI0
aI91
aI0
aI88
aI0
aI89
aI0
aI84
aI89
aI0
aI89
aI91
aI89
aI88
aI86
aI0
aI86
aI0
aI86
aI0
aI91
aI0
aI91
aI93
aI91
aI89
aI88
aI84
aI0
aI84
aI70
aI93
aI0
aI93
aI94
aI93
aI91
aI89
aI86
aI0
aI84
aI84
aI86
aI0
aI91
aI0
aI88
aI0
aI89
aI0
aI96
aI101
aI101
aI101
aI0
aI100
aI0
aI100
aI101
aI100
aI89
aI0
aI96
aI0
aI103
aI105
aI96
aI0
aI0
aI0
aI0
aI108
aI0
aI96
aI96
aI96
aI0
aI103
aI0
aI100
aI0
aI101
aI0
aI96
aI101
aI0
aI93
aI103
aI101
aI100
aI98
aI0
aI94
aI0
aI98
aI0
aI95
aI0
aI95
aI105
aI103
aI0
aI100
aI96
aI0
aI96
aI0
aI105
aI0
aI97
aI106
aI105
aI103
aI101
aI98
aI0
aI96
aI96
aI0
aI103
aI0
aI100
aI0
aI101
aI0
aI96
aI101
aI0
aI101
aI103
aI101
aI100
aI0
aI98
aI0
aI98
aI103
aI0
aI103
aI105
aI103
aI101
aI88
aI96
aI0
aI96
aI105
aI0
aI105
aI106
aI105
aI103
aI89
aI98
aI0
aI96
aI96
aI0
aI103
aI0
aI91
aI0
aI93
aa(lp60
I78
aI78
aI77
aI70
aI71
aI73
aI0
aI73
aI73
aI73
aI75
aI77
aI78
aI0
aI78
aI78
aI77
aI75
aI73
aI73
aI73
aI78
aI73
aI70
aI71
aI73
aI68
aI0
aI73
aI73
aI75
aI70
aI71
aI73
aI0
aI73
aI73
aI73
aI75
aI77
aI78
aI0
aI73
aI78
aI80
aI82
aI80
aI78
aI80
aI82
aI80
aI78
aI82
aI80
aI0
aI73
aI83
aI82
aI73
aI83
aI82
aI70
aI80
aI80
aI70
aI78
aI78
aI0
aI78
aI78
aI85
aI83
aI83
aI82
aI83
aI82
aI80
aI78
aI75
aI80
aI80
aI82
aI80
aI73
aI83
aI82
aI73
aI83
aI82
aI70
aI80
aI80
aI70
aI78
aI78
aI0
aI78
aI77
aI75
aI83
aI83
aI85
aI82
aI80
aI77
aI75
aI73
aI80
aI80
aI82
aI80
aI78
aI0
aI73
aI75
aI78
aI78
aI78
aI78
aI77
aI78
aI90
aI90
aI85
aI82
aI85
aI90
aI90
aI85
aI82
aI85
aI90
aI90
aI85
aI82
aI85
aI90
aI92
aI90
aI92
aI92
aI87
aI83
aI87
aI92
aI92
aI87
aI83
aI87
aI92
aI92
aI87
aI83
aI92
aI92
aI89
aI87
aI90
aI90
aI85
aI82
aI85
aI90
aI90
aI85
aI82
aI85
aI90
aI90
aI85
aI82
aI92
aI90
aI77
aI75
aI73
aI80
aI73
aI77
aI78
aI80
aI82
aI83
aI80
aI82
aI83
aI85
aI87
aI83
aI85
aI87
aI89
aI90
aI92
aI94
aI95
aI97
aI85
aI97
aI78
aI78
aI77
aI70
aI71
aI73
aI0
aI73
aI73
aI73
aI75
aI77
aI78
aI0
aI78
aI78
aI77
aI75
aI73
aI73
aI73
aI78
aI73
aI70
aI71
aI73
aI68
aI0
aI73
aI73
aI75
aI70
aI71
aI73
aI0
aI73
aI73
aI73
aI75
aI77
aI78
aI0
aI73
aI78
aI80
aI82
aI80
aI78
aI80
aI82
aI80
aI78
aI82
aI80
aI0
aI73
aI83
aI82
aI73
aI83
aI82
aI70
aI80
aI80
aI70
aI78
aI78
aI0
aI78
aI78
aI85
aI83
aI83
aI82
aI83
aI82
aI80
aI78
aI75
aI80
aI80
aI82
aI80
aI73
aI83
aI82
aI73
aI83
aI82
aI70
aI80
aI80
aI70
aI78
aI78
aI0
aI78
aI77
aI75
aI83
aI83
aI85
aI82
aI80
aI77
aI75
aI73
aI80
aI80
aI82
aI80
aI78
aI0
aI73
aI75
aI78
aI78
aI78
aI78
aI77
aI78
aI0
aI66
aI68
aI70
aI68
aI73
aI78
aI0
aI77
aI78
aI77
aI75
aI73
aI73
aI0
aI70
aI71
aI73
aI68
aI70
aI71
aI73
aI83
aI82
aI73
aI83
aI82
aI70
aI80
aI80
aI70
aI78
aI78
aI0
aI78
aI78
aI85
aI83
aI83
aI82
aI83
aI82
aI80
aI78
aI75
aI80
aI80
aI82
aI80
aI73
aI83
aI82
aI73
aI83
aI82
aI70
aI80
aI80
aI70
aI78
aI78
aI0
aI78
aI77
aI75
aI83
aI83
aI85
aI82
aI80
aI77
aI75
aI73
aI80
aI80
aI82
aI80
aI78
aI0
aI73
aI75
aI78
aI78
aI78
aI78
aI77
aI85
aI0
aI87
aI85
aI83
aI82
aI80
aI82
aI82
aI83
aI85
aI83
aI80
aI82
aI80
aI75
aI78
aI77
aI78
aI0
aI83
aI82
aI80
aI78
aI77
aI78
aI78
aI80
aI82
aI78
aI80
aI82
aI80
aI77
aI73
aI0
aI85
aI0
aI87
aI85
aI83
aI82
aI80
aI82
aI0
aI83
aI82
aI80
aI78
aI77
aI78
aI0
aI83
aI82
aI80
aI78
aI77
aI78
aa(lp61
I0
aI64
aI72
aI69
aI69
aI66
aI74
aI69
aI62
aI64
aI64
aI72
aI69
aI66
aI74
aI62
aI76
aI0
aI72
aI0
aI71
aI62
aI67
aI67
aI0
aI64
aI0
aI69
aI64
aI0
aI0
aI72
aI0
aI69
aI67
aI0
aI67
aI0
aI64
aI0
aI60
aI0
aI72
aI0
aI66
aI0
aI72
aI62
aI0
aI69
aI0
aI67
aI64
aI0
aI69
aI72
aI71
aI69
aI0
aI69
aI64
aI0
aI68
aI0
aI69
aI0
aI76
aI76
aI84
aI81
aI81
aI86
aI78
aI74
aI84
aI81
aI81
aI78
aI0
aI78
aI74
aI88
aI0
aI84
aI0
aI0
aI81
aI0
aI79
aI0
aI76
aI81
aI0
aI76
aI83
aI84
aI0
aI79
aI0
aI81
aI79
aI0
aI76
aI76
aI0
aI64
aI72
aI0
aI88
aI76
aI69
aI0
aI86
aI0
aI84
aI0
aI83
aI81
aI79
aI79
aI0
aI72
aI0
aI76
aI84
aI83
aI0
aI72
aI0
aI81
aI0
aI80
aI0
aI80
aI0
aI81
aa(lp62
I0
aI85
aI83
aI82
aI80
aI82
aI85
aI78
aI0
aI80
aI82
aI83
aI82
aI83
aI87
aI77
aI0
aI82
aI83
aI85
aI82
aI85
aI89
aI87
aI0
aI80
aI82
aI83
aI82
aI83
aI87
aI77
aI0
aI85
aI83
aI82
aI80
aI82
aI85
aI78
aI0
aI80
aI82
aI83
aI82
aI83
aI87
aI77
aI0
aI82
aI83
aI85
aI82
aI85
aI89
aI87
aI85
aI82
aI80
aI82
aI83
aI82
aI83
aI85
aI85
aI0
aI87
aI89
aI90
aI89
aI90
aI94
aI92
aI0
aI82
aI83
aI85
aI82
aI85
aI89
aI87
aI0
aI80
aI82
aI83
aI82
aI83
aI87
aI77
aI78
aI80
aI82
aI0
aI68
aI70
aI73
aI87
aI89
aI90
aI87
aI90
aI94
aI92
aI0
aI82
aI83
aI85
aI82
aI85
aI89
aI87
aI85
aI82
aI80
aI82
aI83
aI82
aI83
aI87
aI77
aI80
aI78
aI90
aI92
aI94
aI94
aI92
aI90
aI94
aI97
aI102
aI0
aa(lp63
I63
aI63
aI61
aI63
aI0
aI65
aI65
aI63
aI0
aI63
aI0
aI63
aI0
aI59
aI0
aI61
aI63
aI63
aI61
aI63
aI0
aI65
aI65
aI63
aI0
aI63
aI0
aI63
aI0
aI59
aI0
aI61
aI70
aI63
aI0
aI70
aI68
aI66
aI70
aI70
aI0
aI65
aI65
aI66
aI63
aI70
aI63
aI70
aI68
aI68
aI0
aI66
aI73
aI68
aI68
aI70
aI0
aI63
aI70
aI63
aI70
aI70
aI70
aI0
aI68
aI0
aI70
aI65
aI65
aI66
aI66
aI63
aI70
aI63
aI70
aI68
aI68
aI65
aI66
aI63
aI0
aI70
aI63
aI0
aI70
aI68
aI66
aI70
aI70
aI0
aI65
aI65
aI66
aI63
aI70
aI63
aI70
aI68
aI68
aI0
aI66
aI73
aI68
aI68
aI70
aI0
aI63
aI70
aI63
aI70
aI70
aI70
aI0
aI68
aI0
aI70
aI65
aI65
aI66
aI66
aI63
aI70
aI63
aI70
aI68
aI68
aI65
aI66
aI63
aI0
aI70
aI63
aI70
aI68
aI66
aI68
aI70
aI65
aI66
aI70
aI63
aI70
aI68
aI66
aI68
aI70
aI0
aI63
aI65
aI66
aI68
aI70
aI63
aI70
aI68
aI66
aI68
aI73
aI65
aI66
aI66
aI61
aI63
aI70
aI68
aI66
aI65
aI63
aI0
aI70
aI63
aI70
aI68
aI66
aI68
aI70
aI65
aI66
aI70
aI63
aI70
aI68
aI66
aI68
aI70
aI0
aI63
aI65
aI66
aI68
aI70
aI63
aI70
aI68
aI66
aI68
aI73
aI65
aI66
aI66
aI61
aI63
aI70
aI68
aI66
aI65
aI63
aI0
aI70
aI70
aI0
aI75
aI73
aI70
aI68
aI70
aI71
aI70
aI65
aI66
aI63
aI63
aI75
aI75
aI75
aI73
aI70
aI68
aI70
aI0
aI70
aI70
aI0
aI75
aI73
aI68
aI70
aI71
aI70
aI65
aI66
aI63
aI63
aI70
aI63
aI70
aI68
aI68
aI65
aI61
aI66
aI0
aI70
aI70
aI0
aI75
aI73
aI70
aI68
aI70
aI71
aI70
aI65
aI66
aI63
aI63
aI75
aI75
aI75
aI73
aI70
aI68
aI70
aI0
aI70
aI70
aI0
aI75
aI73
aI68
aI70
aI71
aI70
aI65
aI66
aI63
aI63
aI70
aI63
aI70
aI68
aI68
aI65
aI61
aI66
aI0
aI70
aI70
aI0
aI75
aI73
aI70
aI68
aI70
aI71
aI70
aI65
aI66
aI63
aI63
aI75
aI75
aI75
aI73
aI70
aI70
aI68
aI73
aI68
aI70
aI0
aI70
aI70
aI0
aI75
aI73
aI68
aI70
aI71
aI70
aI65
aI66
aI63
aI63
aI70
aI63
aI70
aI68
aI68
aI65
aI66
aI66
aI0
aI70
aI63
aI0
aI70
aI68
aI66
aI70
aI70
aI0
aI65
aI65
aI66
aI66
aI63
aI63
aI70
aI70
aI70
aI68
aI68
aI68
aI66
aI73
aI70
aI0
aI70
aI63
aI70
aI68
aI66
aI70
aI71
aI70
aI65
aI66
aI63
aI63
aI70
aI63
aI63
aI63
aI70
aI68
aI0
aI68
aI65
aI65
aI66
aI66
aI0
aa(lp64
I0
aI90
aI102
aI101
aI94
aI101
aI99
aI97
aI99
aI97
aI94
aI92
aI94
aI92
aI90
aI89
aI90
aI89
aI87
aI85
aI87
aI89
aI90
aI92
aI94
aI97
aI97
aI94
aI97
aI94
aI92
aI78
aI0
aI61
aI63
aI66
aI68
aI66
aI68
aI70
aI70
aI0
aI70
aI68
aI66
aI68
aI70
aI70
aI70
aI68
aI66
aI68
aI66
aI63
aI66
aI68
aI70
aI70
aI61
aI63
aI66
aI68
aI66
aI68
aI66
aI73
aI70
aI68
aI66
aI68
aI66
aI70
aI70
aI68
aI66
aI68
aI68
aI68
aI68
aI66
aI63
aI68
aI61
aI63
aI66
aI68
aI66
aI68
aI70
aI73
aI70
aI68
aI66
aI68
aI70
aI75
aI70
aI68
aI66
aI68
aI66
aI63
aI66
aI68
aI70
aI73
aI61
aI63
aI66
aI68
aI66
aI68
aI66
aI75
aI73
aI70
aI68
aI68
aI66
aI70
aI70
aI68
aI66
aI68
aI68
aI68
aI68
aI66
aI63
aI66
aI66
aI78
aI77
aI77
aI75
aI77
aI75
aI73
aI75
aI73
aI70
aI68
aI70
aI73
aI75
aI73
aI73
aI75
aI73
aI0
aI75
aI75
aI75
aI73
aI75
aI73
aI70
aI66
aI68
aI70
aI73
aI70
aI68
aI66
aI66
aI68
aI70
aI75
aI70
aI68
aI66
aI66
aI66
aI66
aI78
aI78
aI78
aI78
aI75
aI78
aI75
aI73
aI73
aI78
aI90
aI89
aI90
aI89
aI87
aI85
aI87
aI85
aI82
aI80
aI82
aI85
aI87
aI85
aI85
aI87
aI85
aI87
aI87
aI87
aI87
aI85
aI87
aI85
aI82
aI78
aI80
aI82
aI85
aI82
aI80
aI78
aI78
aI80
aI82
aI85
aI82
aI80
aI78
aI90
aI0
aI90
aI87
aI90
aI87
aI85
aI85
aI87
aI85
aI82
aI80
aI82
aI80
aI78
aI75
aI78
aI80
aI78
aI0
aI66
aI68
aI66
aI68
aI70
aI70
aI70
aI68
aI66
aI68
aI70
aI70
aI70
aI68
aI66
aI68
aI66
aI63
aI66
aI68
aI70
aI70
aI61
aI63
aI66
aI68
aI66
aI68
aI66
aI73
aI70
aI68
aI66
aI68
aI66
aI70
aI70
aI68
aI66
aI68
aI68
aI68
aI68
aI66
aI63
aI68
aI61
aI63
aI66
aI68
aI66
aI68
aI70
aI73
aI70
aI68
aI66
aI68
aI70
aI75
aI70
aI68
aI66
aI68
aI66
aI63
aI66
aI68
aI70
aI73
aI61
aI63
aI66
aI68
aI66
aI68
aI66
aI75
aI73
aI70
aI68
aI68
aI66
aI70
aI70
aI68
aI66
aI68
aI68
aI68
aI68
aI66
aI63
aI66
aI66
aI78
aI77
aI77
aI75
aI77
aI75
aI73
aI75
aI73
aI70
aI68
aI70
aI73
aI75
aI73
aI73
aI75
aI73
aI0
aI75
aI75
aI75
aI73
aI75
aI73
aI70
aI66
aI68
aI70
aI73
aI70
aI68
aI66
aI66
aI68
aI70
aI75
aI70
aI68
aI66
aI66
aI66
aI66
aI78
aI78
aI78
aI78
aI75
aI78
aI75
aI73
aI73
aI78
aI90
aI89
aI90
aI89
aI87
aI85
aI87
aI85
aI82
aI80
aI82
aI85
aI87
aI85
aI85
aI87
aI85
aI87
aI87
aI87
aI87
aI85
aI87
aI85
aI82
aI78
aI80
aI82
aI85
aI82
aI80
aI78
aI78
aI80
aI82
aI85
aI82
aI80
aI78
aI90
aI0
aI90
aI87
aI90
aI87
aI85
aI85
aI87
aI85
aI82
aI80
aI82
aI80
aI78
aI75
aI78
aI80
aI78
aI78
aI90
aI89
aI89
aI87
aI89
aI87
aI85
aI87
aI85
aI82
aI80
aI82
aI85
aI87
aI85
aI85
aI87
aI85
aI87
aI87
aI87
aI87
aI85
aI87
aI85
aI82
aI0
aI78
aI80
aI82
aI85
aI82
aI80
aI78
aI78
aI80
aI82
aI87
aI82
aI80
aI78
aI78
aI78
aI78
aI90
aI90
aI90
aI90
aI87
aI90
aI87
aI85
aI85
aI78
aI90
aI89
aI90
aI89
aI87
aI85
aI87
aI85
aI82
aI80
aI82
aI85
aI87
aI85
aI85
aI87
aI85
aI87
aI87
aI87
aI87
aI85
aI87
aI85
aI82
aI0
aI78
aI80
aI82
aI85
aI82
aI80
aI78
aI78
aI80
aI82
aI85
aI82
aI80
aI78
aI90
aI0
aI90
aI87
aI90
aI87
aI85
aI85
aI87
aI85
aI82
aI80
aI82
aI80
aI78
aI75
aI78
aI80
aI78
aI78
aI75
aI78
aI87
aI85
aI85
aI87
aI85
aI82
aI85
aI94
aI92
aI90
aI87
aI90
aI92
aI0
aI90
aI0
aa(lp65
I0
aI73
aI85
aI83
aI83
aI82
aI80
aI78
aI80
aI85
aI83
aI82
aI73
aI85
aI83
aI83
aI82
aI80
aI78
aI80
aI85
aI77
aI75
aI0
aI75
aI87
aI85
aI85
aI83
aI83
aI82
aI80
aI83
aI83
aI82
aI80
aI78
aI77
aI78
aI75
aI77
aI78
aI80
aI82
aI83
aI85
aI87
aI85
aI0
aI65
aI66
aI66
aI65
aI66
aI0
aI65
aI66
aI66
aI68
aI66
aI0
aI65
aI66
aI66
aI65
aI66
aI61
aI63
aI65
aI66
aI70
aI70
aI71
aI70
aI68
aI65
aI66
aI66
aI65
aI66
aI0
aI65
aI66
aI73
aI65
aI68
aI66
aI65
aI66
aI66
aI65
aI68
aI66
aI63
aI61
aI63
aI65
aI66
aI70
aI71
aI70
aI68
aI0
aI73
aI85
aI83
aI83
aI82
aI80
aI78
aI80
aI85
aI83
aI82
aI73
aI85
aI83
aI83
aI82
aI80
aI78
aI80
aI85
aI77
aI75
aI0
aI75
aI87
aI85
aI85
aI83
aI82
aI80
aI83
aI83
aI82
aI80
aI78
aI78
aI77
aI75
aI77
aI78
aI82
aI82
aI83
aI82
aI80
aI0
aI73
aI85
aI83
aI83
aI82
aI80
aI78
aI80
aI85
aI83
aI82
aI73
aI85
aI83
aI83
aI82
aI80
aI78
aI80
aI85
aI77
aI75
aI0
aI75
aI87
aI85
aI85
aI83
aI82
aI80
aI83
aI83
aI82
aI80
aI78
aI66
aI65
aI63
aI65
aI66
aI68
aI70
aI71
aI75
aI73
aI65
aI66
aI66
aI65
aI66
aI0
aI65
aI66
aI66
aI68
aI66
aI0
aI65
aI66
aI66
aI65
aI66
aI61
aI63
aI65
aI66
aI70
aI70
aI71
aI70
aI68
aI65
aI66
aI66
aI65
aI66
aI0
aI65
aI66
aI73
aI65
aI68
aI66
aI65
aI66
aI66
aI65
aI68
aI66
aI63
aI61
aI63
aI65
aI66
aI70
aI71
aI70
aI68
aI0
aI73
aI85
aI83
aI83
aI82
aI80
aI78
aI80
aI85
aI83
aI82
aI73
aI85
aI83
aI83
aI82
aI80
aI78
aI80
aI85
aI77
aI75
aI0
aI75
aI87
aI85
aI85
aI83
aI82
aI80
aI83
aI83
aI82
aI80
aI78
aI78
aI77
aI75
aI77
aI78
aI82
aI82
aI83
aI82
aI80
aI0
aI73
aI85
aI83
aI83
aI82
aI80
aI78
aI80
aI85
aI83
aI82
aI73
aI85
aI83
aI83
aI82
aI80
aI78
aI80
aI85
aI77
aI75
aI0
aI75
aI87
aI85
aI85
aI83
aI82
aI80
aI83
aI83
aI82
aI80
aI78
aI66
aI65
aI63
aI65
aI66
aI68
aI70
aI71
aI75
aI73
aI71
aI70
aI68
aI70
aI0
aa(lp66
I67
aI69
aI72
aI74
aI76
aI77
aI76
aI74
aI72
aI76
aI77
aI76
aI77
aI79
aI76
aI74
aI72
aI72
aI0
aI69
aI72
aI77
aI77
aI76
aI74
aI67
aI69
aI72
aI74
aI76
aI77
aI76
aI74
aI72
aI76
aI77
aI76
aI77
aI79
aI76
aI74
aI72
aI72
aI72
aI0
aI69
aI72
aI77
aI77
aI76
aI74
aI74
aI72
aI74
aI74
aI76
aI77
aI76
aI74
aI72
aI69
aI72
aI74
aI72
aI74
aI76
aI76
aI74
aI72
aI74
aI74
aI76
aI77
aI76
aI74
aI72
aI69
aI72
aI0
aI81
aI79
aI79
aI91
aI89
aI88
aI91
aI0
aI91
aI89
aI88
aI91
aI93
aI93
aI91
aI91
aI89
aI88
aI89
aI91
aI93
aI91
aI89
aI88
aI88
aI91
aI86
aI86
aI86
aI86
aI91
aI93
aI91
aI86
aI91
aI89
aI88
aI91
aI0
aI91
aI89
aI88
aI91
aI93
aI93
aI91
aI89
aI89
aI88
aI89
aI91
aI93
aI91
aI89
aI88
aI88
aI91
aI86
aI88
aI86
aI86
aI0
aI74
aI76
aI77
aI76
aI74
aI72
aI71
aI69
aI67
aI74
aI0
aI72
aI67
aI69
aI72
aI74
aI76
aI77
aI76
aI74
aI72
aI76
aI77
aI76
aI77
aI79
aI76
aI74
aI72
aI72
aI0
aI69
aI72
aI77
aI77
aI76
aI74
aI67
aI69
aI72
aI74
aI76
aI77
aI76
aI74
aI72
aI76
aI77
aI76
aI77
aI79
aI76
aI74
aI72
aI72
aI72
aI0
aI69
aI72
aI77
aI77
aI76
aI74
aI74
aI72
aI74
aI74
aI76
aI77
aI76
aI74
aI72
aI69
aI72
aI74
aI72
aI74
aI76
aI76
aI74
aI72
aI74
aI74
aI76
aI77
aI76
aI74
aI72
aI69
aI72
aI0
aI81
aI79
aI79
aI91
aI89
aI88
aI91
aI0
aI91
aI89
aI88
aI91
aI93
aI93
aI91
aI91
aI89
aI88
aI89
aI91
aI93
aI91
aI89
aI88
aI88
aI91
aI86
aI86
aI86
aI86
aI91
aI93
aI91
aI86
aI91
aI89
aI88
aI91
aI0
aI91
aI89
aI88
aI91
aI93
aI93
aI91
aI89
aI89
aI88
aI89
aI91
aI93
aI91
aI89
aI88
aI88
aI91
aI86
aI88
aI86
aI86
aI0
aI74
aI76
aI77
aI76
aI74
aI72
aI71
aI69
aI67
aI74
aI0
aI72
aI74
aI75
aI0
aI87
aI89
aI91
aI89
aI87
aI86
aI84
aI87
aI86
aI0
aI82
aI77
aI0
aI84
aI91
aI92
aI91
aI89
aI87
aI86
aI88
aI0
aI86
aI81
aI83
aI84
aI86
aI88
aI89
aI91
aI91
aI91
aI96
aI93
aI91
aI91
aI89
aI88
aI91
aI93
aI93
aI91
aI91
aI89
aI88
aI89
aI91
aI93
aI91
aI89
aI88
aI88
aI91
aI86
aI86
aI86
aI86
aI91
aI93
aI91
aI86
aI91
aI89
aI88
aI91
aI0
aI91
aI89
aI88
aI91
aI93
aI93
aI91
aI89
aI89
aI88
aI89
aI91
aI93
aI91
aI89
aI88
aI88
aI91
aI86
aI88
aI86
aI86
aI0
aI74
aI76
aI77
aI76
aI74
aI72
aI71
aI69
aI67
aI74
aI0
aI72
aI0
aI86
aI88
aI89
aI88
aI86
aI84
aI83
aI81
aI79
aI86
aI0
aI84
aa(lp67
I0
aI70
aI0
aI66
aI61
aI0
aI70
aI70
aI73
aI73
aI78
aI78
aI77
aI77
aI75
aI70
aI75
aI0
aI75
aI75
aI77
aI77
aI82
aI82
aI77
aI77
aI73
aI70
aI73
aI83
aI85
aI90
aI70
aI70
aI73
aI73
aI78
aI78
aI77
aI77
aI75
aI70
aI75
aI75
aI77
aI76
aI77
aI82
aI80
aI78
aI80
aI82
aI90
aI0
aI70
aI70
aI73
aI73
aI78
aI78
aI77
aI77
aI75
aI70
aI75
aI75
aI75
aI77
aI77
aI82
aI82
aI77
aI77
aI70
aI73
aI66
aI70
aI70
aI73
aI73
aI78
aI78
aI77
aI77
aI78
aI70
aI75
aI75
aI78
aI77
aI76
aI77
aI82
aI80
aI78
aI61
aI82
aI80
aI78
aI77
aI75
aI75
aI75
aI75
aI75
aI82
aI80
aI68
aI80
aI77
aI77
aI75
aI73
aI73
aI73
aI70
aI73
aI80
aI78
aI70
aI78
aI78
aI73
aI73
aI66
aI70
aI68
aI75
aI75
aI75
aI75
aI75
aI78
aI75
aI78
aI75
aI78
aI78
aI78
aI78
aI82
aI80
aI0
aI97
aI0
aI73
aI82
aI80
aI78
aI80
aI82
aI73
aI80
aI82
aI73
aI80
aI82
aI80
aI80
aI82
aI83
aI82
aI80
aI77
aI78
aI70
aI75
aI78
aI66
aI70
aI75
aI77
aI65
aI77
aI77
aI82
aI85
aI82
aI78
aI77
aI75
aI83
aI83
aI75
aI85
aI83
aI82
aI73
aI82
aI82
aI73
aI73
aI83
aI82
aI78
aI72
aI80
aI80
aI72
aI72
aI80
aI78
aI82
aI66
aI80
aI78
aI82
aI66
aI80
aI68
aI78
aI82
aI73
aI80
aI82
aI70
aI73
aI80
aI82
aI68
aI80
aI80
aI82
aI83
aI85
aI80
aI78
aI78
aI70
aI75
aI78
aI66
aI70
aI75
aI77
aI65
aI77
aI77
aI82
aI85
aI82
aI78
aI77
aI75
aI83
aI83
aI78
aI85
aI83
aI82
aI73
aI82
aI82
aI73
aI73
aI83
aI82
aI78
aI72
aI80
aI80
aI72
aI72
aI66
aI82
aI78
aI78
aI82
aI80
aI78
aI73
aI61
aI66
aI61
aI70
aI73
aI78
aI82
aI80
aI68
aI82
aI75
aI75
aI75
aI77
aI78
aI80
aI80
aI80
aI80
aI79
aI80
aI82
aI83
aI82
aI83
aI85
aI83
aI85
aI87
aI83
aI85
aI87
aI89
aI90
aI89
aI90
aI92
aI90
aI89
aI87
aI85
aI73
aI61
aI70
aI70
aI73
aI73
aI78
aI78
aI77
aI77
aI75
aI70
aI75
aI0
aI66
aI0
aI63
aI75
aI75
aI77
aI77
aI82
aI82
aI77
aI77
aI70
aI73
aI75
aI73
aI61
aI0
aI70
aI70
aI73
aI73
aI78
aI78
aI80
aI77
aI78
aI70
aI75
aI63
aI75
aI78
aI77
aI76
aI77
aI82
aI80
aI78
aI0
aI66
aI73
aI82
aI80
aI78
aI77
aI75
aI75
aI75
aI75
aI75
aI82
aI61
aI80
aI68
aI82
aI80
aI77
aI75
aI73
aI73
aI73
aI70
aI73
aI80
aI0
aI78
aI0
aI78
aI78
aI73
aI73
aI66
aI70
aI0
aI68
aI75
aI68
aI63
aI75
aI72
aI75
aI75
aI75
aI78
aI75
aI78
aI75
aI78
aI78
aI78
aI78
aI82
aI80
aI75
aI80
aI80
aI61
aI68
aI73
aI82
aI80
aI78
aI0
aI73
aI80
aI73
aI82
aI73
aI80
aI82
aI73
aI80
aI82
aI80
aI80
aI82
aI83
aI82
aI80
aI77
aI78
aI70
aI75
aI78
aI70
aI75
aI77
aI77
aI77
aI82
aI85
aI82
aI78
aI77
aI75
aI83
aI83
aI75
aI66
aI85
aI83
aI82
aI73
aI82
aI82
aI73
aI61
aI83
aI82
aI78
aI72
aI80
aI80
aI68
aI63
aI80
aI78
aI82
aI66
aI80
aI78
aI82
aI66
aI80
aI78
aI82
aI73
aI80
aI82
aI61
aI73
aI80
aI82
aI80
aI80
aI82
aI83
aI85
aI80
aI78
aI78
aI70
aI75
aI78
aI0
aI70
aI78
aI77
aI77
aI77
aI82
aI85
aI82
aI78
aI77
aI75
aI83
aI83
aI63
aI66
aI85
aI83
aI82
aI73
aI82
aI82
aI66
aI66
aI83
aI82
aI78
aI72
aI80
aI80
aI68
aI68
aI68
aI82
aI78
aI78
aI0
aI63
aI0
aI63
aI0
aI63
aI0
aI68
aI82
aI78
aI78
aI82
aI80
aI78
aI70
aI0
aI66
aI0
aI63
aI65
aI66
aI0
aa(lp68
I71
aI74
aI78
aI79
aI0
aI79
aI79
aI78
aI79
aI78
aI0
aI76
aI78
aI76
aI74
aI71
aI74
aI78
aI81
aI79
aI0
aI79
aI78
aI79
aI78
aI0
aI76
aI78
aI76
aI74
aI71
aI74
aI78
aI79
aI0
aI79
aI79
aI78
aI79
aI78
aI0
aI76
aI78
aI76
aI74
aI71
aI74
aI78
aI81
aI79
aI0
aI79
aI78
aI79
aI78
aI0
aI76
aI78
aI76
aI74
aa(lp69
I82
aI80
aI78
aI77
aI73
aI70
aI73
aI75
aI82
aI82
aI0
aI75
aI77
aI78
aI77
aI78
aI82
aI77
aI75
aI77
aI82
aI75
aI82
aI82
aI0
aI78
aI80
aI82
aI80
aI82
aI85
aI80
aI73
aI73
aI78
aI77
aI78
aI82
aI77
aI75
aI73
aI75
aI77
aI78
aI82
aI80
aI78
aI77
aI78
aI75
aI0
aI75
aI77
aI78
aI77
aI75
aI82
aI80
aI78
aI77
aI73
aI70
aI73
aI80
aI80
aI80
aI70
aI78
aI78
aI77
aI75
aI82
aI80
aI78
aI77
aI73
aI83
aI83
aI82
aI0
aI66
aI68
aI70
aI73
aI78
aI77
aI75
aI82
aI80
aI78
aI77
aI73
aI70
aI73
aI80
aI80
aI80
aI82
aI78
aI0
aI78
aI77
aI75
aI82
aI80
aI78
aI77
aI73
aI78
aI77
aI75
aI0
aI75
aI77
aI78
aI78
aI80
aI80
aI80
aI82
aI80
aI78
aI77
aI75
aI77
aI78
aI75
aI82
aI82
aI0
aI75
aI77
aI78
aI77
aI78
aI82
aI80
aI78
aI77
aI78
aI75
aI82
aI82
aI0
aI78
aI80
aI82
aI80
aI82
aI85
aI80
aI73
aI78
aI77
aI78
aI82
aI77
aI0
aI78
aI77
aI75
aI82
aI80
aI78
aI77
aI78
aI77
aI73
aI75
aI0
aI70
aI75
aI77
aI78
aI77
aI75
aI82
aI80
aI78
aI77
aI73
aI70
aI73
aI80
aI80
aI80
aI82
aI78
aI78
aI77
aI75
aI82
aI80
aI78
aI77
aI73
aI83
aI83
aI82
aI0
aI66
aI68
aI70
aI73
aI78
aI77
aI75
aI82
aI80
aI78
aI77
aI73
aI70
aI73
aI80
aI80
aI80
aI80
aI82
aI78
aI0
aI78
aI77
aI75
aI82
aI80
aI78
aI77
aI73
aI78
aI77
aI75
aI0
aI70
aI75
aI77
aI90
aI89
aI87
aI94
aI92
aI90
aI89
aI85
aI82
aI85
aI92
aI92
aI92
aI94
aI92
aI90
aI0
aI90
aI89
aI87
aI94
aI92
aI90
aI89
aI85
aI95
aI95
aI94
aI0
aI78
aI80
aI82
aI90
aI89
aI87
aI94
aI92
aI90
aI89
aI85
aI82
aI85
aI92
aI92
aI92
aI92
aI94
aI90
aI0
aI90
aI89
aI87
aI94
aI92
aI90
aI89
aI85
aI90
aI89
aI87
aI0
aI70
aI75
aI77
aI78
aI77
aI75
aI82
aI80
aI78
aI77
aI73
aI70
aI75
aI0
aI70
aI75
aI77
aI78
aI77
aI75
aI82
aI80
aI78
aI77
aI73
aI78
aI77
aI75
aI0
aI82
aI87
aI89
aI90
aI87
aI94
aI99
aI0
aa(lp70
I0
aI83
aI84
aI83
aI81
aI88
aI83
aI81
aI83
aI84
aI83
aI79
aI91
aI83
aI79
aI74
aI76
aI77
aI0
aI77
aI76
aI71
aI69
aI71
aI69
aI67
aI0
aI71
aI72
aI71
aI69
aI76
aI71
aI69
aI71
aI72
aI71
aI67
aI76
aI71
aI72
aI71
aI72
aI71
aI69
aI76
aI74
aI71
aI67
aI74
aI76
aI64
aI71
aI67
aI71
aI72
aI71
aI69
aI76
aI74
aI71
aI72
aI74
aI76
aI67
aI64
aI71
aI72
aI71
aI72
aI71
aI69
aI76
aI74
aI71
aI71
aI69
aI71
aI69
aI71
aI72
aI71
aI72
aI74
aI83
aI84
aI83
aI81
aI88
aI86
aI83
aI79
aI81
aI83
aI79
aI76
aI83
aI84
aI83
aI84
aI83
aI81
aI88
aI86
aI83
aI79
aI81
aI79
aI83
aI81
aI79
aI76
aI81
aI83
aI84
aI83
aI81
aI88
aI86
aI83
aI79
aI81
aI83
aI79
aI76
aI83
aI84
aI83
aI84
aI83
aI81
aI88
aI86
aI83
aI81
aI83
aI81
aI0
aI83
aI84
aI83
aI81
aI88
aI86
aI83
aI80
aI81
aI83
aI84
aI83
aI81
aI88
aI86
aI83
aI100
aI93
aI88
aI86
aI84
aI83
aI84
aI81
aI69
aI0
aa(lp71
I76
aI74
aI76
aI79
aI76
aI74
aI76
aI76
aI64
aI72
aI71
aI69
aI69
aI76
aI74
aI72
aI69
aI67
aI76
aI0
aI67
aI76
aI74
aI76
aI79
aI76
aI74
aI76
aI76
aI69
aI71
aI72
aI71
aI69
aI69
aI76
aI74
aI72
aI74
aI76
aI72
aI69
aI0
aI72
aI71
aI69
aI69
aI76
aI71
aI71
aI69
aI67
aI67
aI74
aI72
aI72
aI71
aI69
aI69
aI76
aI74
aI72
aI69
aI67
aI76
aI72
aI71
aI69
aI69
aI76
aI71
aI71
aI69
aI67
aI67
aI77
aI76
aI72
aI71
aI69
aI69
aI76
aI74
aI72
aI74
aI76
aI72
aI69
aI64
aI69
aI88
aI86
aI88
aI91
aI88
aI86
aI88
aI88
aI69
aI71
aI72
aI71
aI69
aI69
aI76
aI74
aI72
aI69
aI67
aI76
aI0
aI72
aI76
aI74
aI76
aI79
aI76
aI74
aI76
aI76
aI59
aI60
aI69
aI71
aI72
aI71
aI69
aI69
aI76
aI74
aI72
aI74
aI76
aI72
aI69
aI69
aI71
aI72
aI71
aI69
aI69
aI76
aI71
aI71
aI69
aI67
aI67
aI74
aI72
aI72
aI71
aI69
aI69
aI76
aI74
aI72
aI69
aI67
aI76
aI0
aI72
aI71
aI69
aI69
aI76
aI71
aI71
aI69
aI67
aI67
aI77
aI76
aI72
aI71
aI69
aI69
aI76
aI74
aI72
aI74
aI76
aI72
aI69
aI64
aI69
aI88
aI86
aI88
aI91
aI88
aI86
aI88
aI86
aI84
aI79
aI81
aI84
aI86
aI88
aI84
aI81
aI84
aI79
aI76
aI74
aI69
aI100
aI0
aa(lp72
I0
aI78
aI77
aI78
aI80
aI78
aI78
aI77
aI78
aI80
aI78
aI78
aI77
aI78
aI80
aI82
aI83
aI80
aI0
aI78
aI80
aI80
aI82
aI78
aI77
aI78
aI0
aI75
aI77
aI78
aI78
aI80
aI77
aI75
aI77
aI78
aI77
aI78
aI80
aI78
aI78
aI77
aI78
aI80
aI82
aI83
aI80
aI0
aI78
aI80
aI80
aI82
aI78
aI77
aI78
aI0
aI75
aI77
aI78
aI78
aI80
aI77
aI75
aI77
aI0
aI75
aI79
aI0
aI67
aI68
aI70
aI71
aI0
aI71
aI73
aI75
aI78
aI77
aI75
aI70
aI0
aI70
aI71
aI73
aI77
aI75
aI73
aI68
aI0
aI68
aI70
aI71
aI71
aI70
aI68
aI70
aI61
aI65
aI66
aI58
aI60
aI0
aI70
aI71
aI0
aI71
aI73
aI75
aI78
aI77
aI75
aI70
aI0
aI70
aI71
aI73
aI77
aI75
aI73
aI68
aI0
aI68
aI70
aI71
aI71
aI70
aI68
aI70
aI0
aI78
aI77
aI78
aI80
aI78
aI78
aI77
aI78
aI80
aI78
aI78
aI77
aI78
aI80
aI82
aI83
aI80
aI0
aI78
aI80
aI0
aI80
aI82
aI78
aI77
aI78
aI0
aI75
aI77
aI78
aI78
aI80
aI77
aI75
aI77
aI0
aI77
aI77
aI78
aI80
aI82
aI80
aI80
aI0
aI80
aI82
aI80
aI80
aI80
aI78
aI77
aI77
aI78
aI73
aI0
aI69
aI78
aI77
aI78
aI77
aI73
aI68
aI0
aI65
aI68
aI73
aI77
aI77
aI75
aI75
aI70
aI73
aI72
aI70
aI68
aI68
aI80
aI77
aI78
aI80
aI82
aI80
aI80
aI0
aI80
aI82
aI80
aI80
aI80
aI78
aI77
aI77
aI78
aI73
aI0
aI69
aI78
aI77
aI78
aI77
aI73
aI68
aI0
aI65
aI68
aI73
aI77
aI77
aI75
aI73
aI72
aI73
aI0
aI67
aI68
aI70
aI71
aI0
aI71
aI73
aI75
aI78
aI77
aI75
aI70
aI0
aI70
aI71
aI73
aI77
aI75
aI73
aI68
aI0
aI68
aI70
aI71
aI71
aI70
aI68
aI71
aI0
aI71
aI73
aI75
aI78
aI77
aI75
aI70
aI0
aI70
aI71
aI73
aI77
aI75
aI73
aI68
aI0
aI68
aI70
aI71
aI71
aI0
aI70
aI68
aI70
aI0
aI66
aI0
aI78
aI77
aI78
aI80
aI78
aI78
aI77
aI78
aI80
aI78
aI78
aI77
aI78
aI80
aI82
aI83
aI80
aI0
aI78
aI80
aI80
aI82
aI78
aI77
aI78
aI0
aI75
aI77
aI78
aI78
aI80
aI77
aI75
aI77
aI77
aI78
aI75
aI74
aI75
aa(lp73
I77
aI78
aI77
aI78
aI82
aI71
aI66
aI66
aI78
aI77
aI78
aI77
aI75
aI73
aI68
aI68
aI78
aI77
aI78
aI82
aI83
aI78
aI82
aI78
aI80
aI80
aI66
aI68
aI68
aI70
aI71
aI77
aI78
aI77
aI78
aI82
aI71
aI66
aI66
aI78
aI77
aI78
aI77
aI75
aI73
aI68
aI68
aI70
aI71
aI78
aI78
aI80
aI78
aI71
aI77
aI78
aI78
aI71
aI71
aI61
aI66
aI71
aI70
aI68
aI70
aI73
aI77
aI78
aI77
aI78
aI82
aI71
aI66
aI66
aI78
aI77
aI78
aI77
aI75
aI73
aI68
aI68
aI78
aI77
aI78
aI78
aI82
aI83
aI78
aI82
aI78
aI80
aI80
aI66
aI59
aI63
aI66
aI68
aI68
aI70
aI71
aI77
aI78
aI77
aI78
aI82
aI71
aI66
aI66
aI78
aI77
aI78
aI77
aI75
aI73
aI68
aI68
aI70
aI71
aI78
aI78
aI80
aI78
aI71
aI77
aI78
aI78
aI71
aI61
aI66
aI71
aI70
aI0
aI66
aI75
aI77
aI78
aI80
aI77
aI73
aI73
aI70
aI73
aI0
aI66
aI71
aI73
aI75
aI77
aI73
aI70
aI65
aI66
aI75
aI77
aI78
aI80
aI77
aI73
aI73
aI70
aI78
aI0
aI75
aI78
aI77
aI78
aI72
aI75
aI77
aI78
aI80
aI75
aI68
aI66
aI78
aI80
aI82
aI78
aI78
aI75
aI78
aI75
aI73
aI78
aI78
aI80
aI78
aI0
aI78
aI80
aI82
aI78
aI78
aI75
aI78
aI70
aI75
aI80
aI75
aI66
aI68
aI68
aI70
aI71
aI77
aI78
aI77
aI78
aI82
aI71
aI66
aI66
aI78
aI77
aI78
aI77
aI75
aI73
aI68
aI68
aI78
aI77
aI78
aI82
aI83
aI78
aI82
aI78
aI80
aI80
aI66
aI68
aI68
aI70
aI71
aI77
aI78
aI77
aI78
aI82
aI71
aI66
aI66
aI78
aI77
aI78
aI77
aI75
aI73
aI68
aI68
aI70
aI71
aI78
aI78
aI80
aI78
aI71
aI77
aI78
aI78
aI71
aI61
aI66
aI71
aI70
aI0
aI90
aI89
aI90
aI97
aI90
aI89
aI90
aI85
aI90
aI89
aI90
aI97
aI90
aI89
aI90
aI85
aI90
aI89
aI90
aI97
aI90
aI89
aI90
aI85
aI90
aI90
aI89
aI89
aI90
aI90
aI0
aI90
aI89
aI90
aI97
aI90
aI89
aI90
aI85
aI90
aI89
aI90
aI97
aI90
aI89
aI90
aI85
aI90
aI89
aI90
aI97
aI90
aI89
aI90
aI85
aI94
aI94
aI92
aI92
aI90
aI90
aI0
aI87
aI89
aI90
aI92
aI89
aI85
aI85
aI82
aI85
aI0
aI83
aI85
aI87
aI89
aI85
aI82
aI0
aI87
aI89
aI90
aI92
aI89
aI85
aI85
aI82
aI90
aI0
aI87
aI90
aI89
aI90
aI84
aI87
aI89
aI90
aI92
aI87
aI89
aI76
aI78
aI80
aI82
aI78
aI78
aI75
aI78
aI75
aI73
aI78
aI78
aI80
aI78
aI0
aI78
aI80
aI82
aI78
aI78
aI75
aI78
aI70
aI75
aI80
aI75
aI66
aI68
aI68
aI70
aI71
aI77
aI78
aI77
aI78
aI82
aI71
aI66
aI66
aI78
aI77
aI78
aI77
aI75
aI73
aI68
aI68
aI78
aI77
aI78
aI78
aI82
aI83
aI78
aI82
aI78
aI80
aI75
aI66
aI68
aI68
aI70
aI71
aI77
aI78
aI77
aI78
aI82
aI71
aI66
aI66
aI78
aI77
aI78
aI77
aI75
aI73
aI68
aI68
aI70
aI71
aI78
aI78
aI80
aI78
aI71
aI77
aI78
aI78
aI71
aI71
aI61
aI66
aI71
aI70
aI68
aI70
aI73
aI77
aI78
aI77
aI78
aI82
aI71
aI66
aI66
aI78
aI77
aI78
aI77
aI75
aI73
aI68
aI68
aI78
aI77
aI78
aI82
aI83
aI78
aI82
aI78
aI80
aI80
aI66
aI59
aI63
aI66
aI68
aI68
aI70
aI71
aI77
aI78
aI77
aI78
aI82
aI71
aI66
aI66
aI78
aI77
aI78
aI77
aI75
aI73
aI68
aI68
aI70
aI71
aI78
aI78
aI80
aI78
aI71
aI77
aI78
aI78
aI71
aI70
aI68
aI70
aa(lp74
I0
aI70
aI71
aI73
aI73
aI0
aI73
aI78
aI73
aI0
aI70
aI71
aI73
aI73
aI0
aI73
aI80
aI73
aI0
aI70
aI71
aI73
aI73
aI73
aI82
aI80
aI78
aI77
aI78
aI80
aI71
aI76
aI82
aI0
aI82
aI80
aI78
aI78
aI78
aI75
aI78
aI0
aI77
aI75
aI73
aI73
aI73
aI70
aI73
aI0
aI70
aI71
aI73
aI73
aI73
aI78
aI73
aI0
aI70
aI71
aI73
aI73
aI73
aI80
aI73
aI0
aI70
aI71
aI73
aI73
aI73
aI78
aI73
aI0
aI70
aI71
aI73
aI73
aI73
aI80
aI73
aI0
aI70
aI71
aI73
aI73
aI73
aI82
aI80
aI78
aI77
aI78
aI80
aI71
aI76
aI82
aI0
aI82
aI80
aI78
aI78
aI78
aI75
aI78
aI0
aI77
aI75
aI73
aI73
aI73
aI70
aI73
aI0
aI75
aI77
aI78
aI77
aI78
aI82
aI75
aI77
aI71
aI78
aI70
aI58
aI61
aI63
aI78
aI80
aI82
aI78
aI0
aI78
aI75
aI78
aI82
aI78
aI78
aI74
aI78
aI80
aI82
aI78
aI78
aI75
aI78
aI82
aI83
aI82
aI83
aI85
aI82
aI80
aI78
aI80
aI82
aI78
aI78
aI75
aI78
aI77
aI75
aI73
aI80
aI78
aI0
aI78
aI80
aI82
aI78
aI80
aI82
aI78
aI80
aI82
aI78
aI75
aI73
aI71
aI70
aI73
aI85
aI70
aI71
aI73
aI73
aI73
aI78
aI73
aI0
aI70
aI71
aI73
aI73
aI73
aI80
aI73
aI0
aI70
aI71
aI73
aI73
aI73
aI82
aI80
aI78
aI77
aI78
aI80
aI71
aI76
aI82
aI85
aI82
aI78
aI78
aI78
aI75
aI78
aI0
aI77
aI75
aI73
aI73
aI73
aI70
aI73
aI0
aI75
aI77
aI78
aI77
aI78
aI82
aI75
aI77
aI71
aI78
aI70
aI58
aI61
aI63
aI78
aI80
aI82
aI78
aI78
aI75
aI78
aI80
aI82
aI78
aI78
aI74
aI78
aI80
aI82
aI78
aI78
aI75
aI78
aI82
aI83
aI82
aI83
aI85
aI82
aI80
aI78
aI80
aI82
aI78
aI78
aI75
aI78
aI80
aI81
aI78
aI78
aI74
aI78
aI77
aI75
aI73
aI80
aI78
aI80
aI82
aI82
aI83
aI80
aI77
aI85
aI97
aI70
aI71
aI73
aI73
aI73
aI78
aI73
aI0
aI70
aI71
aI73
aI73
aI73
aI80
aI73
aI0
aI70
aI71
aI73
aI73
aI73
aI82
aI80
aI78
aI77
aI78
aI80
aI71
aI77
aI82
aI0
aI82
aI80
aI78
aI78
aI78
aI75
aI78
aI75
aI73
aI77
aI75
aI73
aI73
aI73
aI70
aI73
aI0
aI75
aI77
aI78
aI77
aI78
aI82
aI75
aI77
aI71
aI78
aI70
aI59
aI56
aI58
aa(lp75
I0
aI73
aI73
aI70
aI73
aI70
aI73
aI75
aI68
aI75
aI73
aI0
aI73
aI66
aI71
aI66
aI71
aI71
aI70
aI69
aI70
aI0
aI70
aI63
aI68
aI63
aI68
aI68
aI66
aI65
aI66
aI0
aI63
aI65
aI66
aI65
aI66
aI70
aI68
aI0
aI73
aI70
aI73
aI70
aI73
aI75
aI68
aI75
aI73
aI0
aI73
aI66
aI71
aI66
aI71
aI71
aI70
aI69
aI70
aI0
aI70
aI63
aI68
aI63
aI68
aI68
aI66
aI65
aI66
aI73
aI71
aI70
aI68
aI66
aI66
aI70
aI73
aI70
aI73
aI70
aI73
aI75
aI68
aI75
aI73
aI66
aI73
aI66
aI71
aI66
aI71
aI71
aI70
aI69
aI70
aI63
aI70
aI63
aI68
aI63
aI68
aI68
aI66
aI65
aI66
aI61
aI63
aI65
aI66
aI65
aI66
aI70
aI68
aI70
aI73
aI70
aI73
aI70
aI73
aI75
aI68
aI75
aI73
aI66
aI73
aI66
aI71
aI66
aI71
aI71
aI70
aI69
aI70
aI63
aI70
aI63
aI68
aI63
aI68
aI68
aI66
aI65
aI66
aI73
aI66
aI71
aI70
aI68
aI66
aI66
aI75
aI0
aI70
aI71
aI68
aI77
aI73
aI73
aI75
aI0
aI70
aI71
aI68
aI77
aI78
aI73
aI65
aI68
aI66
aI65
aI66
aI73
aI66
aI71
aI70
aI71
aI71
aI70
aI71
aI73
aI71
aI70
aI68
aI66
aI65
aI66
aI77
aI78
aI73
aI63
aI65
aI66
aI65
aI65
aI66
aI68
aI70
aI71
aI68
aI70
aI73
aI70
aI73
aI70
aI73
aI75
aI68
aI75
aI73
aI66
aI73
aI66
aI71
aI66
aI71
aI71
aI70
aI69
aI70
aI63
aI70
aI63
aI68
aI63
aI68
aI68
aI66
aI65
aI66
aI61
aI63
aI65
aI66
aI65
aI66
aI70
aI68
aI73
aI70
aI73
aI70
aI73
aI75
aI68
aI75
aI73
aI61
aI68
aI66
aI73
aI66
aI71
aI66
aI71
aI70
aI69
aI70
aI63
aI70
aI63
aI68
aI63
aI68
aI68
aI66
aI65
aI66
aI73
aI0
aI66
aI71
aI70
aI68
aI66
aI66
aI73
aI66
aI73
aI66
aI73
aI66
aI73
aI66
aI73
aI66
aI73
aI66
aI73
aI66
aI73
aI66
aI73
aI66
aI73
aI66
aI73
aI66
aI73
aI66
aI73
aI66
aI73
aI85
aI85
aI78
aI97
aI78
aI73
aI66
aI73
aI66
aI73
aI66
aI73
aI85
aI85
aI78
aI97
aI66
aI73
aI66
aI73
aI66
aI73
aI0
aa(lp76
I78
aI77
aI73
aI68
aI70
aI0
aI70
aI73
aI78
aI77
aI73
aI68
aI70
aI70
aI71
aI73
aI66
aI0
aI68
aI70
aI0
aI70
aI71
aI73
aI66
aI0
aI66
aI68
aI78
aI77
aI73
aI68
aI70
aI66
aI70
aI73
aI78
aI78
aI78
aI80
aI82
aI82
aI83
aI85
aI80
aI78
aI77
aI73
aI75
aI73
aI71
aI70
aI68
aI0
aI66
aI66
aI58
aI59
aI61
aI66
aI70
aI73
aI85
aI73
aI75
aI78
aI85
aI83
aI82
aI78
aI75
aI78
aI85
aI73
aI77
aI80
aI85
aI83
aI82
aI80
aI73
aI80
aI85
aI73
aI74
aI78
aI85
aI83
aI90
aI88
aI86
aI85
aI0
aI78
aI77
aI73
aI68
aI70
aI66
aI70
aI73
aI78
aI78
aI78
aI80
aI82
aI82
aI83
aI85
aI80
aI78
aI77
aI73
aI75
aI73
aI71
aI70
aI68
aI0
aI66
aI66
aa(lp77
I82
aI71
aI82
aI71
aI80
aI71
aI80
aI71
aI80
aI70
aI80
aI70
aI78
aI70
aI78
aI70
aI82
aI71
aI82
aI71
aI80
aI71
aI80
aI71
aI80
aI70
aI80
aI70
aI78
aI61
aI73
aI73
aI0
aI70
aI71
aI75
aI73
aI70
aI71
aI73
aI0
aI70
aI73
aI80
aI78
aI0
aI61
aI73
aI73
aI0
aI70
aI71
aI75
aI73
aI70
aI71
aI73
aI0
aI70
aI73
aI80
aI78
aI0
aI75
aI78
aI82
aI87
aI0
aI87
aI89
aI89
aI0
aI85
aI87
aI89
aI0
aI85
aI80
aI82
aI82
aI80
aI82
aI85
aI77
aI75
aI75
aI87
aI99
aI75
aI77
aI77
aI73
aI85
aI97
aI73
aI82
aI71
aI82
aI71
aI80
aI71
aI80
aI71
aI80
aI70
aI80
aI70
aI78
aI70
aI78
aI70
aI82
aI71
aI82
aI71
aI80
aI71
aI80
aI71
aI78
aI0
aa(lp78
I0
aI73
aI70
aI68
aI66
aI65
aI68
aI66
aI70
aI77
aI75
aI78
aI0
aI73
aI73
aI71
aI70
aI71
aI73
aI0
aI73
aI85
aI82
aI80
aI78
aI77
aI80
aI78
aI82
aI85
aI86
aI89
aI87
aI90
aI0
aI85
aI85
aI83
aI82
aI83
aI85
aI85
aI75
aI0
aI75
aI82
aI80
aI75
aI77
aI75
aI0
aI75
aI82
aI80
aI87
aI89
aI87
aI0
aI75
aI0
aI51
aI73
aI70
aI68
aI66
aI65
aI68
aI66
aI70
aI77
aI75
aI78
aI0
aI73
aI73
aI71
aI70
aI71
aI73
aI73
aI73
aI85
aI82
aI80
aI78
aI77
aI80
aI90
aI0
aI86
aI86
aI83
aI90
aI0
aI90
aI90
aI92
aI90
aI77
aI78
aI73
aI70
aI65
aI63
aI68
aI0
aa(lp79
I79
aI67
aI72
aI79
aI79
aI69
aI77
aI69
aI77
aI67
aI71
aI77
aI77
aI67
aI76
aI74
aI79
aI73
aI76
aI81
aI79
aI72
aI77
aI81
aI84
aI77
aI79
aI77
aI76
aI67
aI74
aI67
aI79
aI67
aI72
aI79
aI79
aI69
aI77
aI69
aI77
aI67
aI71
aI77
aI77
aI67
aI76
aI67
aI79
aI73
aI76
aI81
aI79
aI72
aI77
aI81
aI84
aI77
aI79
aI77
aI84
aI77
aI86
aI77
aI84
aI74
aI76
aI71
aI72
aI62
aI64
aI60
aI57
aI59
aI60
aI62
aI59
aI61
aI62
aI64
aI65
aI67
aI69
aI72
aI76
aI74
aI73
aI74
aI69
aI71
aI72
aI74
aI71
aI73
aI74
aI76
aI77
aI79
aI81
aI84
aI88
aI77
aI86
aI74
aI79
aI67
aI72
aI79
aI79
aI69
aI77
aI69
aI77
aI67
aI71
aI77
aI77
aI67
aI76
aI67
aI74
aI79
aI69
aI76
aI81
aI79
aI69
aI77
aI81
aI84
aI77
aI79
aI77
aI76
aI74
aI67
aI79
aI67
aI72
aI79
aI79
aI69
aI77
aI69
aI77
aI67
aI71
aI77
aI77
aI67
aI76
aI67
aI79
aI70
aI76
aI81
aI79
aI72
aI77
aI81
aI84
aI77
aI79
aI77
aI84
aI77
aI86
aI77
aI88
aI84
aI91
aI79
aI88
aI79
aI91
aI79
aI88
aI79
aI91
aI79
aI88
aI79
aI91
aI79
aI88
aI0
aa(lp80
I61
aI66
aI66
aI68
aI66
aI61
aI61
aI66
aI66
aI68
aI66
aI65
aI61
aI66
aI66
aI68
aI66
aI61
aI66
aI73
aI70
aI68
aI65
aI65
aI70
aI70
aI71
aI70
aI62
aI65
aI65
aI66
aI66
aI68
aI70
aI68
aI63
aI65
aI66
aI66
aI65
aI63
aI73
aI78
aI78
aI80
aI78
aI73
aI73
aI78
aI78
aI80
aI78
aI77
aI73
aI78
aI78
aI80
aI78
aI73
aI78
aI85
aI83
aI82
aI80
aI77
aI77
aI82
aI82
aI83
aI82
aI77
aI77
aI78
aI78
aI80
aI82
aI72
aI80
aI77
aI78
aI78
aI80
aI77
aI78
aI0
aI90
aI89
aI89
aI87
aI87
aI89
aI85
aI0
aI90
aI88
aI88
aI86
aI86
aI88
aI85
aI0
aI73
aI0
aI78
aI78
aI80
aI78
aI73
aI73
aI78
aI78
aI80
aI78
aI77
aI73
aI78
aI78
aI80
aI78
aI73
aI78
aI85
aI83
aI82
aI80
aI77
aI75
aI77
aI82
aI82
aI83
aI82
aI77
aI77
aI78
aI78
aI80
aI82
aI80
aI77
aI78
aI78
aI80
aI77
aI78
aI63
aI65
aI66
aI0
aa(lp81
I76
aI72
aI71
aI72
aI74
aI71
aI69
aI71
aI71
aI72
aI71
aI69
aI64
aI62
aI67
aI71
aI69
aI76
aI74
aI72
aI74
aI76
aI0
aI64
aI76
aI72
aI71
aI72
aI74
aI71
aI69
aI71
aI71
aI72
aI71
aI69
aI64
aI62
aI67
aI71
aI69
aI76
aI74
aI72
aI74
aI72
aI71
aI69
aI0
aI69
aI77
aI69
aI0
aI69
aI76
aI77
aI79
aI74
aI76
aI67
aI0
aI67
aI74
aI76
aI76
aI77
aI76
aI75
aI72
aI71
aI69
aI71
aI72
aI71
aI0
aI76
aI88
aI76
aI84
aI83
aI84
aI86
aI74
aI83
aI81
aI83
aI83
aI84
aI83
aI81
aI76
aI74
aI79
aI83
aI81
aI88
aI86
aI84
aI83
aI83
aI84
aI83
aI81
aI76
aI71
aI72
aI71
aI69
aI64
aI59
aI60
aI59
aI57
aI64
aI69
aI0
aa(lp82
I102
aI90
aI97
aI102
aI102
aI90
aI97
aI102
aI102
aI90
aI97
aI102
aI102
aI90
aI97
aI102
aI73
aI78
aI80
aI82
aI82
aI82
aI85
aI80
aI0
aI85
aI87
aI87
aI85
aI85
aI83
aI85
aI0
aI73
aI78
aI80
aI82
aI82
aI82
aI85
aI80
aI0
aI85
aI85
aI83
aI83
aI82
aI82
aI80
aI78
aI80
aI78
aI0
aI78
aI80
aI82
aI87
aI87
aI87
aI89
aI85
aI0
aI89
aI89
aI90
aI90
aI0
aI87
aI90
aI94
aI97
aI92
aI92
aI89
aI85
aI80
aI80
aI77
aI73
aI0
aI73
aI78
aI80
aI82
aI82
aI82
aI85
aI80
aI0
aI85
aI87
aI75
aI77
aI87
aI87
aI85
aI85
aI83
aI85
aI77
aI78
aI85
aI85
aI83
aI83
aI82
aI83
aI78
aI78
aI82
aI82
aI80
aI78
aI0
aI102
aI90
aI97
aI102
aI102
aI90
aI97
aI102
aI102
aI90
aI97
aI102
aI102
aI90
aI97
aI102
aI102
aI0
aa(lp83
I60
aI64
aI71
aI72
aI69
aI64
aI64
aI62
aI64
aI60
aI64
aI71
aI72
aI69
aI64
aI64
aI62
aI64
aI0
aI64
aI65
aI67
aI65
aI64
aI62
aI60
aI59
aI62
aI60
aI59
aI60
aI0
aI64
aI71
aI69
aI77
aI79
aI77
aI76
aI74
aI72
aI71
aI72
aI69
aI64
aI69
aI62
aI69
aI60
aI59
aI60
aI64
aI71
aI72
aI69
aI64
aI64
aI62
aI64
aI60
aI64
aI71
aI72
aI69
aI64
aI64
aI62
aI64
aI0
aI64
aI65
aI67
aI65
aI64
aI62
aI60
aI59
aI62
aI60
aI59
aI60
aI0
aI64
aI71
aI69
aI77
aI79
aI77
aI76
aI74
aI72
aI71
aI72
aI69
aI64
aI69
aI62
aI69
aI76
aI77
aI65
aI69
aI69
aI79
aI77
aI74
aI76
aI72
aI67
aI71
aI65
aI72
aI65
aI74
aI65
aI70
aI74
aI75
aI66
aI70
aI75
aI76
aI67
aI72
aI76
aI78
aI69
aI74
aI78
aI81
aI70
aI74
aI81
aI81
aI82
aI81
aI79
aI81
aI77
aI76
aI72
aI69
aI65
aI64
aI60
aI57
aI0
aI66
aI70
aI77
aI78
aI75
aI70
aI70
aI68
aI70
aI66
aI70
aI77
aI78
aI75
aI82
aI82
aI80
aI82
aI0
aI70
aI71
aI73
aI71
aI70
aI68
aI66
aI65
aI68
aI66
aI65
aI66
aI0
aI70
aI77
aI78
aI83
aI85
aI83
aI82
aI80
aI78
aI77
aI80
aI78
aI70
aI78
aI77
aI75
aa(lp84
I76
aI76
aI74
aI72
aI74
aI76
aI81
aI79
aI79
aI81
aI79
aI74
aI77
aI76
aI71
aI74
aI72
aI72
aI71
aI69
aI71
aI72
aI74
aI76
aI84
aI83
aI79
aI81
aI0
aI81
aI79
aI77
aI79
aI77
aI76
aI81
aI79
aI77
aI77
aI76
aI77
aI69
aI71
aI72
aI72
aI76
aI74
aI71
aI69
aI67
aI64
aI64
aI62
aI60
aI62
aI64
aI69
aI67
aI67
aI69
aI67
aI62
aI65
aI64
aI59
aI62
aI60
aI60
aI59
aI57
aI59
aI60
aI62
aI64
aI72
aI71
aI67
aI69
aI69
aI67
aI65
aI67
aI71
aI69
aI67
aI64
aI67
aI65
aI57
aI59
aI60
aI62
aI60
aI59
aI60
aI60
aI76
aI76
aI74
aI72
aI71
aI72
aI74
aI76
aI0
aI76
aI74
aI72
aI71
aI72
aI74
aI76
aI0
aI76
aI74
aI76
aI81
aI76
aI83
aI76
aI84
aI77
aI77
aI76
aI74
aI69
aI71
aI72
aI72
aI72
aI71
aI72
aI76
aI74
aI72
aI72
aI67
aI69
aI67
aI72
aI67
aI69
aI67
aI72
aI0
aI88
aI88
aI86
aI88
aI89
aI88
aI86
aI84
aI84
aI83
aI81
aI81
aI81
aI81
aI0
aI0
aI79
aI0
aI88
aI0
aI88
aI89
aI91
aI89
aI0
aI0
aI84
aI88
aI89
aI89
aI0
aI0
aI0
aI84
aI0
aI0
aI86
aI0
aI88
aI0
aI88
aI89
aI91
aI0
aI0
aI84
aI83
aI81
aI83
aI0
aI0
aI0
aI84
aI0
aI0
aI84
aI0
aI76
aI76
aI74
aI72
aI74
aI76
aI81
aI79
aI79
aI81
aI79
aI74
aI77
aI76
aI71
aI74
aI72
aI72
aI71
aI69
aI71
aI72
aI74
aI76
aI84
aI83
aI79
aI81
aI0
aI81
aI79
aI77
aI79
aI83
aI81
aI79
aI76
aI79
aI77
aI69
aI71
aI72
aI74
aI72
aI71
aI72
aI65
aI67
aI60
aI72
aI65
aI67
aI60
aI72
aI76
aa(lp85
I76
aI74
aI76
aI77
aI76
aI74
aI71
aI72
aI74
aI72
aI76
aI0
aI71
aI69
aI0
aI71
aI72
aI67
aI71
aI72
aI81
aI79
aI77
aI69
aI72
aI75
aI74
aI0
aI67
aI76
aI74
aI76
aI79
aI76
aI74
aI71
aI72
aI74
aI72
aI76
aI0
aI71
aI69
aI0
aI71
aI72
aI67
aI71
aI72
aI81
aI79
aI77
aI65
aI69
aI72
aI71
aI72
aI0
aI69
aI69
aI71
aI72
aI74
aI76
aI77
aI79
aI81
aI71
aI74
aI72
aI76
aI81
aI79
aI77
aI69
aI72
aI74
aI76
aI0
aI69
aI69
aI71
aI72
aI74
aI76
aI77
aI79
aI81
aI83
aI86
aI84
aI88
aI93
aI91
aI89
aI89
aI88
aI84
aI86
aI0
aI76
aI74
aI76
aI77
aI76
aI74
aI71
aI72
aI74
aI72
aI76
aI0
aI71
aI69
aI0
aI71
aI72
aI67
aI71
aI72
aI81
aI79
aI77
aI69
aI72
aI71
aI72
aI0
aI76
aI74
aI76
aI77
aI76
aI74
aI71
aI72
aI74
aI72
aI76
aI0
aI71
aI69
aI0
aI71
aI72
aI67
aI71
aI72
aI81
aI79
aI77
aI69
aI72
aI75
aI74
aI0
aI79
aI77
aI76
aI74
aI76
aI79
aI76
aI77
aI74
aI71
aI72
aI74
aI72
aI76
aI0
aI71
aI69
aI0
aI71
aI72
aI67
aI71
aI72
aI81
aI79
aI77
aI69
aI72
aI71
aI72
aI0
aI81
aI79
aI77
aI69
aI72
aI71
aI72
aI0
aI84
aI83
aI81
aI77
aI74
aI71
aI72
aI0
aI86
aI88
aI89
aI86
aI84
aI83
aI84
aI0
aI96
aI0
aa(lp86
I90
aI89
aI85
aI82
aI83
aI85
aI87
aI83
aI80
aI78
aI77
aI77
aI78
aI80
aI83
aI87
aI89
aI82
aI85
aI90
aI89
aI85
aI82
aI83
aI85
aI87
aI83
aI80
aI77
aI85
aI83
aI77
aI82
aI80
aI78
aI75
aI78
aI83
aI87
aI89
aI90
aI82
aI85
aI75
aI78
aI83
aI87
aI89
aI90
aI82
aI85
aI75
aI78
aI83
aI87
aI89
aI90
aI85
aI92
aI90
aI94
aI90
aI92
aI87
aI90
aI95
aI94
aI90
aI92
aI85
aI87
aI89
aI85
aI85
aI87
aI89
aI85
aI85
aI87
aI89
aI97
aI90
aI89
aI85
aI82
aI83
aI85
aI87
aI83
aI92
aI83
aI86
aI90
aI92
aI95
aI94
aI90
aI82
aI78
aI85
aI77
aI78
aI82
aI85
aI87
aI83
aI90
aI94
aI90
aI89
aI87
aI85
aI90
aI78
aI80
aI82
aI85
aI80
aI73
aI75
aI73
aI82
aI78
aI85
aI77
aI78
aI82
aI85
aI87
aI83
aI90
aI94
aI90
aI89
aI87
aI85
aI90
aI78
aI80
aI78
aI0
aI87
aI87
aI87
aI87
aI87
aI85
aI85
aI85
aI85
aI85
aI87
aI87
aI87
aI87
aI90
aI89
aI90
aI85
aI87
aI87
aI87
aI87
aI87
aI89
aI89
aI89
aI89
aI89
aI90
aI90
aI90
aI90
aI90
aI94
aI92
aI90
aI89
aI85
aI82
aI83
aI85
aI87
aI83
aI80
aI78
aI77
aI77
aI78
aI80
aI83
aI87
aI89
aI82
aI85
aI90
aI89
aI85
aI82
aI83
aI85
aI87
aI83
aI92
aI83
aI86
aI90
aI92
aI99
aI97
aI89
aI94
aI90
aI82
aI85
aI90
aa(lp87
I0
aI76
aI76
aI77
aI79
aI79
aI74
aI76
aI69
aI72
aI72
aI74
aI76
aI74
aI72
aI72
aI0
aI76
aI77
aI79
aI79
aI74
aI76
aI0
aI72
aI72
aI74
aI76
aI74
aI0
aI72
aI72
aI67
aI79
aI72
aI84
aI79
aI74
aI86
aI79
aI95
aI0
aI64
aI64
aI65
aI67
aI67
aI62
aI64
aI0
aI72
aI72
aI74
aI76
aI74
aI72
aI72
aI0
aI76
aI76
aI77
aI79
aI79
aI74
aI76
aI0
aI72
aI72
aI74
aI76
aI74
aI0
aI72
aI79
aI72
aI72
aI79
aI79
aI71
aI72
aI69
aI72
aI76
aI74
aI76
aI76
aI0
aI60
aI67
aI60
aI60
aI67
aI67
aI59
aI60
aI72
aI72
aI71
aI71
aI69
aI0
aI60
aI65
aI69
aI69
aI67
aI67
aI67
aI59
aI62
aI67
aI69
aI71
aI74
aI79
aI81
aI91
aI0
aI76
aI76
aI77
aI79
aI79
aI74
aI76
aI69
aI72
aI72
aI74
aI76
aI74
aI72
aI72
aI0
aI64
aI64
aI65
aI67
aI67
aI71
aI72
aI0
aI72
aI72
aI71
aI69
aI71
aI74
aI76
aI72
aI72
aI71
aI71
aI69
aI0
aI60
aI65
aI69
aI69
aI67
aI67
aI67
aI0
aI74
aI83
aI83
aI84
aI86
aI86
aI86
aI86
aI0
aI64
aI64
aI66
aI67
aI67
aI66
aI60
aI67
aI0
aI83
aI83
aI84
aI86
aI86
aI86
aI86
aI0
aI76
aI76
aI78
aI79
aI79
aI69
aI74
aI79
aI78
aI69
aI74
aI78
aI79
aI0
aI71
aI76
aI79
aI83
aI83
aI81
aI81
aI79
aI67
aI72
aI74
aI76
aI74
aI76
aI78
aI79
aI79
aI78
aI74
aI74
aI62
aI67
aI72
aI74
aI79
aI84
aI86
aI86
aI62
aI69
aI74
aI74
aI86
aI86
aI98
aI0
aI83
aI83
aI84
aI86
aI86
aI78
aI79
aI0
aI76
aI76
aI78
aI79
aI79
aI78
aI72
aI79
aI0
aI76
aI76
aI77
aI79
aI79
aI74
aI76
aI0
aI72
aI72
aI74
aI76
aI74
aI67
aI72
aI79
aI72
aI72
aI79
aI79
aI71
aI72
aI69
aI72
aI76
aI74
aI76
aI76
aI79
aI72
aI72
aI79
aI79
aI71
aI72
aI72
aI72
aI71
aI71
aI69
aI57
aI62
aI65
aI69
aI67
aI67
aI69
aI67
aI71
aI72
aI64
aI64
aI65
aI67
aI67
aI62
aI64
aI0
aI72
aI72
aI74
aI76
aI74
aI72
aI72
aI0
aI76
aI76
aI77
aI79
aI79
aI83
aI84
aI0
aI84
aI84
aI86
aI88
aI86
aI81
aI79
aI74
aI74
aI74
aI71
aI67
aI72
aI72
aI60
aI67
aI67
aI72
aI72
aI62
aI55
aI60
aI67
aa(lp88
I81
aI88
aI89
aI88
aI86
aI84
aI82
aI0
aI86
aI88
aI86
aI84
aI82
aI81
aI0
aI81
aI86
aI88
aI89
aI88
aI86
aI84
aI82
aI81
aI79
aI0
aI79
aI84
aI86
aI88
aI86
aI88
aI91
aI89
aI69
aI74
aI76
aI77
aI76
aI74
aI72
aI70
aI69
aI67
aI0
aI67
aI72
aI74
aI76
aI74
aI72
aI69
aI69
aI74
aI76
aI77
aI79
aI81
aI81
aI82
aI81
aI79
aI0
aI67
aI72
aI74
aI76
aI74
aI76
aI79
aI77
aI0
aI81
aI81
aI81
aI81
aI0
aI82
aI79
aI0
aI79
aI79
aI79
aI79
aI74
aI72
aI79
aI77
aI0
aI77
aI77
aI77
aI70
aI76
aI0
aI76
aI76
aI77
aI79
aI81
aI81
aI81
aI81
aI82
aI84
aI77
aI88
aI88
aI88
aI89
aI91
aI94
aI93
aI93
aI91
aI89
aI86
aI86
aI88
aI89
aI93
aI91
aI91
aI89
aI88
aI89
aI86
aI0
aI81
aI81
aI77
aI77
aI74
aI79
aI81
aI81
aI77
aI74
aI70
aI69
aI80
aI80
aI77
aI77
aI74
aI76
aI76
aI76
aI74
aI70
aI69
aI67
aI69
aI53
aI0
aI69
aI74
aI76
aI77
aI76
aI74
aI72
aI70
aI0
aI69
aI58
aI67
aI0
aI67
aI72
aI74
aI76
aI74
aI72
aI69
aI0
aI88
aI88
aI84
aI81
aI0
aI69
aI74
aI76
aI77
aI79
aI81
aI81
aI82
aI81
aI79
aI77
aI79
aI0
aI67
aI72
aI74
aI76
aI74
aI76
aI79
aI77
aI0
aI81
aI81
aI81
aI81
aI0
aI82
aI79
aI0
aI79
aI79
aI79
aI79
aI82
aI81
aI79
aI77
aI0
aI77
aI77
aI77
aI77
aI77
aI79
aI76
aI0
aI76
aI76
aI77
aI79
aI81
aI81
aI81
aI81
aI82
aI76
aI86
aI88
aI88
aI88
aI89
aI91
aI94
aI93
aI84
aI93
aI91
aI82
aI91
aI89
aI81
aI89
aI88
aI79
aI88
aI86
aI77
aI86
aI84
aI76
aI84
aI82
aI74
aI82
aI81
aI79
aI81
aI79
aI77
aI79
aI81
aI65
aI65
aI62
aI64
aI77
aI79
aI81
aI81
aI81
aI82
aI82
aI79
aI79
aI81
aI82
aI82
aI72
aI81
aI79
aI77
aI0
aI77
aI79
aI81
aI81
aI79
aI79
aI77
aI76
aI0
aI76
aI76
aI77
aI79
aI81
aI81
aI81
aI81
aI82
aI84
aI86
aI88
aI88
aI88
aI89
aI91
aI94
aI93
aI84
aI93
aI91
aI82
aI91
aI89
aI81
aI89
aI88
aI79
aI88
aI86
aI77
aI86
aI84
aI76
aI84
aI82
aI74
aI82
aI81
aI79
aI81
aI79
aI77
aI74
aI86
aI84
aI77
aI84
aI82
aI76
aI82
aI81
aI74
aI81
aI79
aI72
aI79
aI77
aI79
aI81
aI86
aI84
aI77
aI84
aI82
aI76
aI82
aI81
aI74
aI81
aI79
aI72
aI79
aI77
aI79
aI81
aI98
aI96
aI89
aI96
aI94
aI88
aI94
aI93
aI86
aI93
aI91
aI84
aI91
aI89
aI82
aI89
aI88
aI81
aI88
aI86
aI79
aI86
aI84
aI77
aI84
aI82
aI76
aI82
aI81
aI74
aI81
aI79
aI72
aI79
aI77
aI70
aI77
aI76
aI69
aI76
aI74
aI67
aI74
aI72
aI65
aI72
aI70
aI67
aI0
aI81
aa(lp89
I76
aI79
aI76
aI72
aI76
aI79
aI86
aI84
aI81
aI0
aI81
aI74
aI76
aI77
aI79
aI72
aI71
aI72
aI69
aI77
aI69
aI71
aI79
aI0
aI76
aI79
aI76
aI72
aI76
aI79
aI86
aI84
aI81
aI0
aI81
aI86
aI83
aI81
aI79
aI72
aI76
aI77
aI79
aI81
aI77
aI74
aI67
aI79
aI0
aI64
aI67
aI69
aI67
aI64
aI67
aI74
aI72
aI69
aI67
aI69
aI0
aI65
aI69
aI62
aI64
aI65
aI69
aI67
aI0
aI57
aI60
aI65
aI64
aI60
aI57
aI60
aI60
aI0
aI72
aI69
aI72
aI69
aI72
aI71
aI69
aI69
aI67
aI69
aI69
aI69
aI67
aI67
aI69
aI69
aI72
aI72
aI72
aI74
aI74
aI74
aI71
aI72
aI69
aI72
aI69
aI71
aI0
aI75
aI72
aI75
aI72
aI75
aI74
aI70
aI74
aI70
aI72
aI68
aI72
aI68
aI70
aI0
aI75
aI72
aI75
aI72
aI75
aI77
aI74
aI77
aI74
aI77
aI74
aI77
aI74
aI79
aI91
aI0
aI76
aI79
aI76
aI72
aI74
aI76
aI79
aI86
aI84
aI81
aI0
aI81
aI71
aI72
aI74
aI79
aI76
aI72
aI71
aI69
aI77
aI0
aI69
aI71
aI79
aI0
aI71
aI72
aI66
aI69
aI69
aI71
aI72
aI74
aI0
aI76
aI79
aI76
aI72
aI74
aI76
aI79
aI86
aI84
aI81
aI0
aI81
aI71
aI72
aI74
aI79
aI76
aI72
aI71
aI69
aI77
aI0
aI69
aI71
aI79
aI0
aI71
aI72
aI64
aI67
aI72
aI74
aI79
aI0
aa(lp90
I79
aI67
aI72
aI67
aI71
aI72
aI74
aI72
aI64
aI69
aI67
aI71
aI72
aI74
aI76
aI72
aI60
aI72
aI67
aI69
aI71
aI72
aI60
aI67
aI67
aI0
aI67
aI60
aI67
aI71
aI72
aI74
aI72
aI60
aI67
aI71
aI72
aI74
aI69
aI60
aI57
aI69
aI67
aI67
aI65
aI67
aI67
aI60
aI67
aI71
aI72
aI74
aI74
aI72
aI60
aI67
aI71
aI72
aI74
aI76
aI72
aI57
aI72
aI69
aI69
aI67
aI69
aI71
aI67
aI79
aI79
aI79
aI81
aI79
aI79
aI77
aI77
aI76
aI74
aI74
aI79
aI79
aI79
aI79
aI81
aI79
aI79
aI77
aI76
aI74
aI76
aI74
aI72
aI72
aI74
aI76
aI77
aI76
aI74
aI76
aI72
aI76
aI81
aI79
aI76
aI74
aI72
aI57
aI60
aI64
aI67
aI67
aI76
aI76
aI79
aI77
aI76
aI74
aI72
aI71
aI71
aI72
aI74
aI79
aI67
aI72
aI67
aI71
aI72
aI74
aI72
aI64
aI69
aI67
aI71
aI72
aI74
aI76
aI72
aI60
aI72
aI0
aI69
aI71
aI72
aI0
aI67
aI0
aI67
aI60
aI67
aI71
aI72
aI74
aI72
aI60
aI67
aI71
aI72
aI74
aI76
aI72
aI72
aI57
aI0
aI69
aI67
aI67
aI65
aI67
aI67
aI60
aI67
aI71
aI72
aI74
aI76
aI74
aI72
aI64
aI60
aI67
aI71
aI72
aI74
aI76
aI72
aI72
aI81
aI81
aI79
aI76
aI79
aI0
aI67
aI79
aI79
aI79
aI81
aI79
aI79
aI77
aI77
aI76
aI74
aI74
aI79
aI79
aI79
aI79
aI81
aI79
aI79
aI77
aI76
aI74
aI76
aI74
aI72
aI0
aI72
aI74
aI76
aI77
aI76
aI74
aI76
aI72
aI76
aI81
aI79
aI76
aI74
aI72
aI57
aI60
aI64
aI67
aI67
aI76
aI76
aI76
aI77
aI76
aI74
aI72
aI71
aI71
aI72
aI74
aI72
aI60
aI67
aI71
aI72
aI74
aI72
aI76
aI74
aI72
aI71
aI69
aI57
aI69
aI71
aI72
aI74
aI71
aI69
aI67
aI67
aI60
aI67
aI79
aI79
aI79
aI79
aI84
aI83
aI79
aI81
aI77
aI77
aI0
aI79
aI77
aI79
aI76
aI74
aI67
aI79
aI79
aI79
aI81
aI79
aI79
aI77
aI77
aI76
aI74
aI74
aI79
aI79
aI79
aI79
aI81
aI79
aI79
aI77
aI76
aI74
aI76
aI74
aI72
aI72
aI74
aI76
aI77
aI76
aI74
aI76
aI72
aI76
aI81
aI79
aI76
aI74
aI72
aI57
aI60
aI64
aI67
aI67
aI76
aI76
aI76
aI77
aI76
aI74
aI72
aI72
aI71
aI71
aI72
aI74
aI72
aI0
aI67
aI72
aI67
aI71
aI72
aI74
aI69
aI60
aI67
aI67
aI76
aI76
aI79
aI77
aI76
aI74
aI72
aI72
aI71
aI72
aI79
aI67
aI72
aI67
aI71
aI72
aI74
aI72
aI64
aI69
aI67
aI71
aI72
aI74
aI76
aI72
aI60
aI72
aI0
aI69
aI71
aI72
aI60
aI67
aI0
aa(lp91
I63
aI66
aI70
aI75
aI73
aI70
aI73
aI68
aI65
aI66
aI65
aI63
aI0
aI63
aI66
aI70
aI75
aI73
aI70
aI73
aI68
aI73
aI70
aI63
aI66
aI70
aI75
aI73
aI70
aI73
aI68
aI65
aI66
aI65
aI63
aI63
aI66
aI70
aI75
aI73
aI70
aI73
aI68
aI61
aI63
aI0
aI78
aI77
aI75
aI75
aI73
aI75
aI75
aI73
aI70
aI73
aI70
aI78
aI77
aI75
aI75
aI78
aI77
aI78
aI77
aI75
aI73
aI75
aI0
aI78
aI77
aI75
aI75
aI73
aI75
aI75
aI73
aI70
aI68
aI70
aI78
aI77
aI75
aI75
aI78
aI77
aI75
aI73
aI75
aI63
aI66
aI70
aI75
aI73
aI70
aI73
aI68
aI65
aI66
aI65
aI63
aI0
aI63
aI66
aI70
aI75
aI73
aI70
aI73
aI68
aI73
aI70
aI58
aI63
aI58
aI65
aI82
aI94
aI63
aI66
aI70
aI75
aI73
aI70
aI73
aI68
aI65
aI66
aI65
aI63
aI63
aI66
aI70
aI75
aI78
aI73
aI70
aI71
aI70
aI66
aI63
aI68
aI63
aI61
aI0
aI68
aI70
aI71
aI70
aI66
aI65
aI73
aI70
aI75
aI73
aI71
aI70
aI68
aI73
aI63
aI65
aI66
aI68
aI65
aI61
aI58
aI0
aI71
aI78
aI80
aI75
aI82
aI80
aI75
aI73
aI75
aI78
aI77
aI75
aI78
aI80
aI82
aI75
aI73
aI70
aI68
aI85
aI82
aI78
aI75
aI78
aI85
aI82
aI78
aI75
aI75
aI78
aI80
aI82
aI75
aI73
aI70
aI73
aI70
aI66
aI63
aI66
aI73
aI70
aI68
aI70
aI65
aI63
aI61
aI75
aI77
aI78
aI80
aI77
aI75
aI73
aI75
aI0
aI63
aI66
aI70
aI75
aI73
aI70
aI73
aI68
aI65
aI66
aI65
aI63
aI0
aI63
aI66
aI70
aI75
aI73
aI70
aI73
aI68
aI73
aI70
aI58
aI63
aI58
aI65
aI82
aI94
aI63
aI66
aI70
aI75
aI73
aI70
aI73
aI68
aI65
aI66
aI65
aI63
aI0
aI63
aI66
aI70
aI75
aI73
aI70
aI73
aI68
aI61
aI63
aI0
aI78
aI77
aI75
aI75
aI73
aI75
aI75
aI73
aI70
aI73
aI70
aI78
aI77
aI75
aI75
aI78
aI77
aI78
aI77
aI75
aI73
aI75
aI0
aI78
aI77
aI75
aI75
aI73
aI75
aI75
aI73
aI70
aI68
aI70
aI78
aI77
aI75
aI75
aI78
aI77
aI75
aI73
aI75
aI0
aI75
aI82
aI80
aI82
aI75
aI75
aI82
aI80
aI82
aI75
aI75
aI73
aI75
aI78
aI77
aI75
aI70
aI68
aI70
aI0
aI75
aI82
aI80
aI82
aI75
aI75
aI82
aI80
aI85
aI82
aI80
aI75
aI82
aI75
aI82
aI80
aI82
aI75
aI82
aI80
aI0
aI63
aI66
aI63
aI66
aI68
aI70
aI63
aI66
aI68
aI0
aI85
aI82
aI78
aI75
aI78
aI85
aI82
aI78
aI75
aI75
aI78
aI80
aI82
aI75
aI73
aI70
aI73
aI70
aI66
aI63
aI66
aI73
aI70
aI68
aI70
aI65
aI63
aI61
aI75
aI77
aI78
aI80
aI77
aI75
aI73
aI75
aI0
aI63
aI66
aI70
aI75
aI73
aI70
aI73
aI68
aI65
aI66
aI65
aI63
aI0
aI63
aI66
aI70
aI75
aI73
aI70
aI73
aI68
aI73
aI70
aI58
aI63
aI58
aI65
aI82
aI94
aI63
aI66
aI70
aI75
aI73
aI70
aI73
aI68
aI65
aI66
aI65
aI63
aI63
aI66
aI70
aI75
aI78
aI73
aI70
aI73
aI68
aI61
aI63
aI0
aa(lp92
I0
aI89
aI87
aI82
aI89
aI87
aI80
aI82
aI89
aI87
aI82
aI89
aI87
aI80
aI82
aI94
aI87
aI94
aI89
aI73
aI75
aI73
aI75
aI70
aI73
aI75
aI78
aI75
aI0
aI73
aI75
aI73
aI70
aI73
aI75
aI78
aI80
aI75
aI78
aI80
aI82
aI80
aI78
aI75
aI78
aI73
aI75
aI73
aI75
aI70
aI0
aI73
aI75
aI78
aI75
aI73
aI75
aI73
aI70
aI73
aI75
aI78
aI0
aI80
aI82
aI0
aI80
aI78
aI80
aI78
aI80
aI82
aI78
aI85
aI87
aI85
aI87
aI82
aI85
aI0
aI87
aI90
aI87
aI0
aI85
aI0
aI87
aI0
aI85
aI0
aI82
aI0
aI85
aI87
aI90
aI92
aI87
aI90
aI0
aI92
aI94
aI92
aI0
aI90
aI0
aI87
aI0
aI90
aI85
aI87
aI85
aI87
aI82
aI85
aI87
aI90
aI87
aI85
aI87
aI85
aI82
aI85
aI87
aI90
aI0
aI92
aI94
aI0
aI92
aI90
aI92
aI90
aI92
aI94
aI90
aI73
aI0
aI73
aI0
aI75
aI70
aI0
aI73
aI0
aI75
aI78
aI75
aI0
aI73
aI75
aI0
aI73
aI0
aI70
aI0
aI73
aI75
aI0
aI78
aI0
aI80
aI82
aI0
aI80
aI0
aI78
aI80
aI0
aI78
aI0
aI80
aI0
aI82
aI82
aI89
aI87
aI80
aI82
aI89
aI87
aI82
aI89
aI87
aI80
aI82
aI94
aI87
aI94
aI89
aa(lp93
I73
aI0
aI82
aI0
aI80
aI0
aI78
aI0
aI73
aI0
aI70
aI71
aI73
aI0
aI82
aI0
aI80
aI0
aI78
aI0
aI75
aI0
aI75
aI0
aI83
aI0
aI82
aI0
aI80
aI0
aI77
aI0
aI82
aI83
aI85
aI0
aI85
aI0
aI83
aI0
aI80
aI0
aI82
aI0
aI78
aI0
aI73
aI0
aI82
aI0
aI80
aI0
aI78
aI0
aI73
aI0
aI70
aI71
aI73
aI0
aI82
aI0
aI80
aI0
aI78
aI0
aI75
aI0
aI75
aI0
aI83
aI0
aI82
aI0
aI80
aI0
aI85
aI0
aI85
aI0
aI85
aI0
aI85
aI87
aI0
aI85
aI0
aI83
aI0
aI80
aI0
aI78
aI0
aI77
aI78
aI79
aI80
aI82
aI0
aI82
aI0
aI82
aI0
aI90
aI0
aI82
aI0
aI82
aI0
aI82
aI0
aI90
aI0
aI82
aI0
aI85
aI0
aI78
aI0
aI80
aI0
aI82
aI0
aI83
aI0
aI83
aI0
aI83
aI0
aI83
aI83
aI0
aI82
aI0
aI82
aI0
aI82
aI82
aI0
aI80
aI0
aI80
aI0
aI78
aI0
aI80
aI0
aI85
aI0
aI82
aI0
aI82
aI0
aI82
aI0
aI90
aI0
aI82
aI0
aI82
aI0
aI82
aI0
aI90
aI0
aI82
aI0
aI85
aI0
aI78
aI0
aI80
aI0
aI82
aI0
aI83
aI0
aI83
aI0
aI83
aI0
aI83
aI83
aI0
aI82
aI0
aI82
aI0
aI82
aI85
aI0
aI85
aI0
aI83
aI0
aI80
aI0
aI78
aI0
aI90
aI0
aa(lp94
I87
aI86
aI84
aI87
aI75
aI86
aI84
aI0
aI87
aI89
aI83
aI75
aI87
aI0
aI87
aI86
aI0
aI87
aI86
aI84
aI0
aI87
aI0
aI89
aI86
aI87
aI0
aI92
aI91
aI79
aI0
aI77
aI86
aI80
aI0
aI84
aI83
aI72
aI0
aI72
aI84
aI72
aI0
aI79
aI81
aI83
aI84
aI0
aI0
aI0
aI0
aI87
aI0
aI86
aI74
aI89
aI0
aI79
aI87
aI0
aI86
aI0
aI87
aI86
aI84
aI0
aI87
aI89
aI0
aI0
aI87
aI0
aI87
aI86
aI0
aI87
aI0
aI86
aI0
aI87
aI0
aI0
aI0
aI75
aI0
aI72
aI96
aI94
aI92
aI91
aI89
aI87
aI99
aI0
aI96
aI94
aI0
aI92
aI0
aI91
aI62
aI0
aI86
aI84
aI83
aI0
aI74
aI0
aI60
aI62
aI60
aI62
aI63
aI65
aI0
aI68
aI70
aI60
aI68
aI0
aI0
aI63
aI0
aI62
aI0
aI60
aI62
aI0
aI63
aI67
aI62
aI0
aI67
aI0
aI63
aI0
aI62
aI60
aI0
aI63
aI0
aI72
aI70
aI60
aI67
aI0
aI65
aI0
aI0
aI62
aI74
aI75
aI74
aI72
aI0
aI72
aI62
aI74
aI62
aI75
aI74
aI72
aI75
aI67
aI74
aI72
aI75
aI67
aI74
aI67
aI75
aI0
aI0
aI72
aI75
aI0
aI74
aI0
aI75
aI77
aI0
aI0
aI75
aI84
aI0
aI82
aI80
aI0
aI77
aI0
aI0
aI65
aI74
aI68
aI71
aI87
aI77
aI0
aI86
aI83
aI0
aI72
aI84
aI0
aI91
aI0
aI92
aI82
aI67
aI92
aI91
aI89
aI84
aI79
aI0
aI87
aI86
aI75
aI87
aI0
aI86
aI0
aI87
aI75
aI89
aI0
aI0
aI87
aI75
aI0
aI87
aI86
aI84
aI87
aI84
aI86
aI84
aI87
aI89
aI86
aI87
aI67
aI96
aI72
aI77
aI79
aI0
aI92
aI0
aI91
aI89
aI80
aI0
aI80
aI86
aI0
aI87
aI89
aI86
aI81
aI89
aI87
aI86
aI83
aI0
aI89
aI87
aI86
aI84
aI0
aI0
aI84
aI0
aI72
aI74
aI75
aI0
aI72
aI0
aI70
aI72
aI75
aI72
aI63
aI68
aI67
aI60
aI65
aI67
aI0
aI0
aI68
aI72
aI0
aI62
aI67
aI0
aI74
aI83
aI0
aI79
aI84
aI79
aI80
aI0
aI82
aI70
aI72
aI0
aI77
aI0
aI79
aI80
aI79
aa(lp95
I0
aI79
aI77
aI74
aI76
aI76
aI79
aI77
aI76
aI76
aI74
aI77
aI0
aI74
aI77
aI76
aI74
aI74
aI72
aI72
aI0
aI74
aI83
aI81
aI80
aI80
aI81
aI0
aI79
aI78
aI76
aI78
aI79
aI77
aI76
aI74
aI91
aI79
aI86
aI89
aI88
aI76
aI79
aI77
aI76
aI76
aI74
aI77
aI0
aI74
aI77
aI76
aI74
aI74
aI72
aI72
aI66
aI74
aI83
aI81
aI80
aI80
aI81
aI0
aI77
aI76
aI74
aI72
aI72
aI0
aI72
aI81
aI81
aI83
aI83
aI83
aI84
aI86
aI84
aI79
aI76
aI72
aI67
aI72
aI79
aI79
aI81
aI79
aI81
aI84
aI82
aI77
aI79
aI80
aI78
aI80
aI80
aI82
aI84
aI79
aI79
aI84
aI86
aI76
aI74
aI81
aI81
aI84
aI84
aI83
aI86
aI84
aI79
aI84
aI86
aI84
aI88
aI80
aI81
aI88
aI89
aI91
aI89
aI88
aI88
aI89
aI88
aI74
aI76
aI79
aI83
aI84
aI88
aI86
aI81
aI86
aI88
aI86
aI89
aI88
aI89
aI88
aI81
aI86
aI84
aI79
aI86
aI88
aI86
aI0
aI81
aI88
aI86
aI85
aI86
aI81
aI0
aI79
aI86
aI84
aI83
aI84
aI76
aI77
aI76
aI77
aI84
aI76
aI77
aI76
aI77
aI88
aI86
aI86
aI84
aI79
aI84
aI86
aI84
aI88
aI80
aI81
aI88
aI91
aI89
aI88
aI88
aI91
aI89
aI88
aI88
aI93
aI88
aI84
aI88
aI86
aI0
aI81
aI88
aI86
aI85
aI86
aI81
aI0
aI79
aI86
aI84
aI82
aI80
aI81
aI91
aI88
aI91
aI89
aI88
aI89
aI88
aI86
aI86
aI84
aI83
aI84
aI83
aI81
aI84
aI77
aI77
aI76
aI77
aI76
aI74
aI72
aI64
aI0
aa(lp96
I66
aI65
aI66
aI70
aI71
aI70
aI0
aI65
aI66
aI65
aI66
aI68
aI66
aI0
aI65
aI63
aI65
aI70
aI71
aI70
aI0
aI65
aI63
aI65
aI0
aI66
aI65
aI66
aI70
aI71
aI70
aI0
aI65
aI66
aI65
aI66
aI68
aI66
aI0
aI65
aI63
aI65
aI70
aI71
aI70
aI0
aI65
aI63
aI65
aI0
aI75
aI70
aI0
aI73
aI70
aI0
aI77
aI70
aI0
aI77
aI68
aI0
aI78
aI75
aI0
aI78
aI73
aI0
aI77
aI73
aI0
aI77
aI73
aI0
aI70
aI75
aI82
aI70
aI75
aI82
aI70
aI75
aI82
aI70
aI75
aI82
aI70
aI75
aI71
aI75
aI70
aI73
aI82
aI70
aI73
aI82
aI70
aI73
aI82
aI70
aI73
aI82
aI70
aI73
aI68
aI73
aI65
aI70
aI77
aI65
aI70
aI77
aI65
aI70
aI77
aI65
aI70
aI77
aI65
aI70
aI66
aI70
aI68
aI73
aI80
aI68
aI73
aI80
aI68
aI73
aI80
aI68
aI73
aI80
aI68
aI73
aI66
aI73
aI70
aI75
aI82
aI70
aI75
aI82
aI70
aI75
aI82
aI70
aI75
aI82
aI70
aI75
aI71
aI75
aI70
aI73
aI82
aI70
aI73
aI82
aI70
aI73
aI82
aI70
aI73
aI82
aI70
aI73
aI68
aI73
aI65
aI70
aI77
aI65
aI70
aI77
aI65
aI70
aI77
aI65
aI70
aI77
aI65
aI70
aI66
aI70
aI68
aI73
aI80
aI68
aI73
aI80
aI68
aI73
aI80
aI68
aI73
aI80
aI68
aI73
aI80
aI0
aI78
aI77
aI78
aI82
aI83
aI82
aI0
aI77
aI78
aI77
aI78
aI80
aI78
aI0
aI77
aI75
aI77
aI82
aI83
aI82
aI0
aI77
aI75
aI77
aI0
aI78
aI77
aI78
aI82
aI83
aI82
aI0
aI77
aI78
aI77
aI78
aI80
aI78
aI0
aI77
aI75
aI77
aI82
aI83
aI82
aI0
aI77
aI75
aI77
aI0
aI87
aI82
aI0
aI85
aI82
aI0
aI89
aI82
aI0
aI89
aI80
aI0
aI90
aI87
aI0
aI90
aI85
aI0
aI89
aI85
aI0
aI89
aI85
aI0
aI82
aI87
aI94
aI82
aI87
aI94
aI82
aI87
aI94
aI82
aI87
aI94
aI82
aI87
aI83
aI87
aI82
aI85
aI94
aI82
aI85
aI94
aI82
aI85
aI94
aI82
aI85
aI94
aI82
aI85
aI80
aI85
aI77
aI82
aI89
aI77
aI82
aI89
aI77
aI82
aI89
aI77
aI82
aI89
aI77
aI82
aI78
aI82
aI80
aI85
aI92
aI80
aI85
aI92
aI80
aI85
aI92
aI80
aI85
aI92
aI80
aI85
aI78
aI85
aI82
aI87
aI94
aI82
aI87
aI94
aI82
aI87
aI94
aI82
aI87
aI94
aI82
aI87
aI83
aI87
aI82
aI85
aI94
aI82
aI85
aI94
aI82
aI85
aI94
aI82
aI85
aI94
aI82
aI85
aI80
aI85
aI77
aI82
aI89
aI77
aI82
aI89
aI77
aI82
aI89
aI77
aI82
aI89
aI77
aI82
aI78
aI82
aI80
aI85
aI92
aI80
aI85
aI92
aI80
aI85
aI92
aI80
aI85
aI92
aI80
aI85
aI92
aI90
aI87
aI0
aa(lp97
I78
aI0
aI78
aI80
aI82
aI0
aI78
aI80
aI82
aI78
aI80
aI82
aI83
aI85
aI83
aI0
aI85
aI0
aI83
aI85
aI82
aI0
aI78
aI80
aI82
aI83
aI85
aI82
aI80
aI78
aI82
aI78
aI0
aI78
aI80
aI82
aI0
aI78
aI80
aI82
aI78
aI80
aI82
aI83
aI85
aI83
aI85
aI0
aI83
aI85
aI82
aI0
aI78
aI80
aI82
aI83
aI85
aI82
aI80
aI78
aI78
aI0
aI87
aI0
aI85
aI87
aI83
aI0
aI83
aI82
aI80
aI83
aI82
aI80
aI79
aI82
aI80
aI0
aI78
aI0
aI78
aI80
aI82
aI0
aI78
aI80
aI82
aI78
aI80
aI82
aI83
aI85
aI83
aI0
aI85
aI0
aI83
aI85
aI82
aI0
aI78
aI80
aI82
aI83
aI85
aI82
aI80
aI78
aI78
aI75
aI77
aI78
aI80
aI82
aI83
aI85
aI85
aI87
aI89
aI87
aI85
aI87
aI85
aI83
aI82
aI66
aI68
aI69
aI68
aI69
aI71
aI69
aI68
aI69
aI66
aI61
aI66
aI61
aI63
aI0
aI61
aI66
aI61
aI63
aI78
aI0
aI78
aI80
aI82
aI0
aI78
aI80
aI82
aI78
aI80
aI82
aI83
aI85
aI83
aI0
aI85
aI0
aI83
aI85
aI82
aI0
aI78
aI80
aI82
aI83
aI85
aI82
aI80
aI78
aI82
aI66
aI0
aI66
aI0
aI66
aI78
aI66
aI67
aI64
aI60
aI55
aI55
aI0
aI55
aI0
aI67
aI64
aI60
aI55
aI55
aI0
aI55
aI0
aI64
aI64
aI0
aI64
aI0
aI64
aI0
aI64
aI64
aI0
aI64
aI0
aI64
aI67
aI64
aI64
aI0
aI64
aI0
aI64
aI0
aI64
aI67
aI69
aI71
aI72
aI71
aI69
aI67
aI65
aI65
aI0
aI65
aI0
aI65
aI0
aI65
aI65
aI0
aI65
aI0
aI65
aI67
aI65
aI65
aI0
aI65
aI0
aI65
aI0
aI63
aI67
aI69
aI71
aI72
aI71
aI69
aI67
aI64
aI64
aI0
aI64
aI0
aI64
aI64
aI0
aI64
aI64
aI72
aI64
aI64
aI0
aI64
aI0
aI64
aI65
aI72
aI74
aI76
aI77
aI76
aI74
aI72
aI69
aI64
aI0
aI64
aI0
aI64
aI0
aI65
aI72
aI74
aI76
aI77
aI76
aI74
aI72
aI72
aI0
aI69
aI71
aI0
aI69
aI72
aI72
aI0
aI69
aI72
aI71
aI69
aI68
aI69
aI0
aI62
aI67
aI60
aI62
aI63
aI64
aI67
aI69
aI71
aI72
aI71
aI69
aI67
aI55
aI57
aI59
aI62
aI59
aI57
aI55
aI67
aI59
aI60
aI62
aI63
aI67
aI69
aI71
aI72
aI71
aI69
aI67
aI64
aI64
aI0
aI64
aI0
aI64
aI64
aI0
aI64
aI64
aI72
aI64
aI64
aI0
aI60
aI62
aI64
aI65
aI72
aI74
aI76
aI77
aI76
aI74
aI72
aI69
aI64
aI0
aI60
aI62
aI64
aI65
aI72
aI74
aI76
aI77
aI76
aI74
aI72
aI72
aI0
aI69
aI71
aI0
aI69
aI72
aI72
aI0
aI69
aI72
aI71
aI69
aI68
aI69
aI0
aI62
aI67
aI60
aI62
aI63
aI64
aI67
aI69
aI71
aI72
aI71
aI69
aI67
aI55
aI57
aI59
aI62
aI59
aI57
aI55
aI67
aI59
aI60
aI62
aI63
aI67
aI69
aI71
aI72
aI71
aI69
aI67
aI65
aI64
aI65
aI64
aI62
aI64
aI62
aI60
aI59
aI60
aI62
aI64
aI60
aI55
aI55
aI0
aI55
aI0
aI55
aI60
aI0
aI64
aI64
aI64
aI52
aI60
aI57
aI53
aI62
aI64
aI65
aI64
aI62
aI65
aI64
aI52
aI60
aI57
aI53
aI62
aI64
aI65
aI64
aI62
aI60
aI59
aI60
aI59
aI57
aI60
aI57
aI59
aI60
aI59
aI57
aI56
aI59
aI57
aI52
aI54
aI56
aI57
aI59
aI60
aI62
aI64
aI52
aI60
aI57
aI55
aI62
aI64
aI65
aI64
aI62
aI65
aI64
aI55
aI60
aI55
aI57
aI62
aI64
aI65
aI64
aI62
aI60
aI59
aI60
aI59
aI57
aI60
aI57
aI59
aI60
aI62
aI60
aI59
aI0
aI55
aI57
aI59
aI60
aI62
aI64
aI65
aI67
aI60
aI62
aI63
aI64
aI67
aI69
aI71
aI72
aI71
aI69
aI67
aI55
aI57
aI59
aI62
aI59
aI57
aI55
aI67
aI59
aI60
aI62
aI63
aI67
aI69
aI71
aI72
aI71
aI69
aI67
aI64
aI64
aI0
aI64
aI0
aI64
aI64
aI0
aI64
aI64
aI72
aI64
aI64
aI0
aI60
aI62
aI64
aI65
aI72
aI74
aI76
aI77
aI76
aI74
aI72
aI69
aI64
aI0
aI60
aI62
aI64
aI65
aI72
aI74
aI76
aI77
aI76
aI74
aI72
aI72
aI0
aI69
aI71
aI0
aI69
aI72
aI72
aI0
aI69
aI72
aI71
aI69
aI68
aI69
aI0
aI62
aI67
aI60
aI62
aI63
aI64
aI67
aI69
aI71
aI72
aI71
aI69
aI67
aI55
aI57
aI59
aI62
aI59
aI57
aI55
aI67
aI59
aI60
aI62
aI63
aI67
aI69
aI71
aI72
aI71
aI69
aI67
aI65
aI64
aI65
aI64
aI62
aI64
aI62
aI60
aI59
aI60
aI62
aI64
aI60
aI55
aI55
aI0
aI55
aI0
aI55
aI0
aI55
aI55
aI0
aI55
aI0
aI55
aI60
aI62
aI64
aI0
aa(lp98
I0
aI55
aI67
aI60
aI55
aI67
aI60
aI0
aI55
aI67
aI60
aI55
aI67
aI60
aI0
aI55
aI67
aI60
aI55
aI67
aI60
aI0
aI55
aI67
aI60
aI55
aI67
aI55
aI60
aI55
aI60
aI67
aI59
aI55
aI60
aI67
aI62
aI57
aI65
aI60
aI59
aI55
aI67
aI59
aI60
aI55
aI60
aI67
aI59
aI55
aI60
aI67
aI62
aI57
aI65
aI60
aI59
aI55
aI67
aI59
aI55
aI59
aI64
aI67
aI69
aI59
aI64
aI67
aI67
aI55
aI60
aI64
aI55
aI60
aI64
aI67
aI55
aI57
aI60
aI65
aI57
aI64
aI62
aI60
aI62
aI60
aI55
aI60
aI67
aI59
aI55
aI60
aI67
aI62
aI57
aI65
aI60
aI59
aI55
aI67
aI59
aI60
aI55
aI60
aI67
aI59
aI55
aI60
aI67
aI62
aI57
aI65
aI60
aI59
aI55
aI67
aI59
aI55
aI59
aI64
aI67
aI69
aI67
aI74
aI72
aI74
aI76
aI79
aI77
aI76
aI74
aI72
aI74
aI76
aI64
aI65
aI67
aI55
aI60
aI64
aI65
aI65
aI67
aI69
aI57
aI62
aI65
aI69
aI57
aI65
aI67
aI69
aI59
aI62
aI65
aI69
aI67
aI55
aI60
aI64
aI52
aI60
aI57
aI66
aI54
aI60
aI57
aI68
aI59
aI64
aI59
aI68
aI69
aI71
aI61
aI63
aI66
aI71
aI61
aI63
aI66
aI71
aI59
aI62
aI65
aI71
aI67
aI65
aI62
aI72
aI71
aI72
aI69
aI60
aI71
aI72
aI71
aI72
aI69
aI60
aI71
aI67
aI59
aI64
aI67
aI69
aI67
aI74
aI72
aI74
aI76
aI79
aI77
aI76
aI64
aI65
aI72
aI71
aI72
aI74
aI72
aI71
aI64
aI72
aI71
aI72
aI74
aI72
aI71
aI71
aI59
aI64
aI67
aI69
aI59
aI64
aI67
aI74
aI72
aI67
aI64
aI67
aI65
aI67
aI69
aI64
aI62
aI64
aI65
aI0
aI84
aI0
aa(lp99
I72
aI76
aI71
aI72
aI69
aI71
aI67
aI66
aI0
aI72
aI76
aI71
aI72
aI69
aI71
aI72
aI74
aI0
aI69
aI69
aI72
aI72
aI69
aI69
aI76
aI76
aI76
aI72
aI74
aI74
aI74
aI71
aI74
aI74
aI74
aI72
aI71
aI69
aI0
aI69
aI69
aI72
aI72
aI69
aI69
aI76
aI76
aI76
aI72
aI74
aI74
aI74
aI71
aI74
aI74
aI74
aI72
aI71
aI69
aI0
aI69
aI69
aI72
aI72
aI69
aI69
aI76
aI76
aI76
aI72
aI74
aI74
aI74
aI71
aI74
aI74
aI74
aI72
aI71
aI69
aI0
aI69
aI69
aI72
aI72
aI69
aI69
aI76
aI76
aI76
aI72
aI74
aI74
aI74
aI71
aI74
aI74
aI74
aI72
aI71
aI69
aI0
aI69
aI69
aI72
aI72
aI76
aI76
aI78
aI74
aI74
aI78
aI78
aI74
aI74
aI69
aI0
aI69
aI72
aI72
aI76
aI76
aI78
aI74
aI74
aI74
aI78
aI78
aI74
aI74
aI69
aI0
aI69
aI72
aI72
aI76
aI76
aI78
aI74
aI74
aI78
aI78
aI74
aI74
aI69
aI0
aI69
aI72
aI72
aI76
aI76
aI78
aI74
aI74
aI74
aI78
aI78
aI74
aI74
aI72
aI76
aI71
aI72
aI69
aI71
aI67
aI66
aI0
aI72
aI76
aI71
aI72
aI69
aI71
aI72
aI74
aI0
aI69
aI69
aI72
aI72
aI69
aI69
aI76
aI76
aI76
aI72
aI74
aI74
aI74
aI71
aI74
aI74
aI74
aI72
aI71
aI69
aI0
aI69
aI69
aI72
aI72
aI69
aI69
aI76
aI76
aI76
aI72
aI74
aI74
aI74
aI71
aI74
aI74
aI74
aI72
aI71
aI69
aI0
aI69
aI69
aI72
aI72
aI69
aI69
aI76
aI76
aI76
aI72
aI74
aI74
aI74
aI71
aI74
aI74
aI74
aI72
aI71
aI69
aI0
aI69
aI69
aI72
aI72
aI69
aI69
aI76
aI76
aI76
aI72
aI74
aI74
aI74
aI71
aI74
aI74
aI74
aI72
aI71
aI69
aI0
aI69
aI69
aI72
aI72
aI76
aI76
aI78
aI74
aI74
aI78
aI78
aI74
aI74
aI69
aI0
aI69
aI72
aI72
aI76
aI76
aI78
aI74
aI74
aI74
aI78
aI78
aI74
aI74
aI69
aI0
aI69
aI72
aI72
aI76
aI76
aI78
aI74
aI74
aI78
aI78
aI74
aI74
aI69
aI0
aI69
aI72
aI72
aI76
aI76
aI78
aI74
aI74
aI74
aI78
aI78
aI74
aI74
aI72
aI76
aI71
aI72
aI69
aI71
aI67
aI66
aI0
aI71
aI72
aI76
aI71
aI72
aI72
aI74
aI0
aI72
aI76
aI71
aI72
aI69
aI71
aI67
aI66
aI64
aI62
aI64
aI72
aI72
aI71
aI69
aI71
aI67
aI66
aa(lp100
I0
aI81
aI80
aI78
aI75
aI73
aI78
aI70
aI68
aI0
aI70
aI71
aI0
aI66
aI68
aI0
aI81
aI80
aI78
aI75
aI73
aI78
aI70
aI68
aI0
aI70
aI71
aI77
aI78
aI86
aI87
aI90
aI92
aI78
aI80
aI82
aI89
aI82
aI78
aI77
aI75
aI89
aI82
aI78
aI80
aI82
aI89
aI87
aI85
aI83
aI82
aI80
aI78
aI77
aI73
aI70
aI0
aI81
aI80
aI78
aI75
aI73
aI78
aI70
aI68
aI0
aI70
aI70
aI71
aI71
aI77
aI77
aI82
aI82
aI0
aI78
aI80
aI82
aI73
aI73
aI71
aI71
aI70
aI70
aI68
aI63
aI63
aI66
aI66
aI70
aI70
aI73
aI73
aI0
aI73
aI73
aI71
aI71
aI70
aI70
aI68
aI63
aI63
aI66
aI66
aI70
aI70
aI75
aI75
aI77
aI73
aI73
aI71
aI71
aI70
aI70
aI68
aI63
aI63
aI66
aI66
aI70
aI70
aI75
aI75
aI77
aI73
aI73
aI71
aI71
aI70
aI70
aI68
aI66
aI66
aI71
aI71
aI75
aI75
aI80
aI80
aI0
aI80
aI80
aI78
aI75
aI75
aI73
aI70
aI68
aI0
aI75
aI75
aI78
aI78
aI82
aI82
aI85
aI85
aI0
aI92
aI92
aI90
aI87
aI87
aI85
aI82
aI80
aI0
aI78
aI80
aI82
aI73
aI73
aI71
aI71
aI70
aI70
aI68
aI63
aI63
aI66
aI66
aI70
aI70
aI73
aI73
aI77
aI73
aI73
aI71
aI71
aI70
aI70
aI68
aI66
aI66
aI71
aI71
aI75
aI75
aI80
aI80
aI82
aI73
aI73
aI71
aI71
aI70
aI70
aI68
aI66
aI66
aI71
aI71
aI75
aI75
aI80
aI80
aI82
aI0
aa(lp101
I0
aI85
aI0
aI85
aI85
aI82
aI83
aI85
aI89
aI89
aI85
aI85
aI87
aI89
aI90
aI90
aI94
aI92
aI90
aI89
aI87
aI85
aI85
aI87
aI89
aI90
aI90
aI94
aI92
aI90
aI89
aI87
aI85
aI92
aI89
aI90
aI82
aI83
aI83
aI90
aI90
aI83
aI82
aI80
aI85
aI0
aI85
aI85
aI82
aI83
aI85
aI89
aI89
aI85
aI85
aI87
aI89
aI90
aI90
aI94
aI92
aI90
aI89
aI87
aI85
aI85
aI87
aI89
aI78
aI90
aI94
aI92
aI90
aI89
aI87
aI85
aI92
aI89
aI90
aI82
aI83
aI90
aI90
aI87
aI89
aI90
aI92
aI0
aI78
aI80
aI82
aI82
aI78
aI75
aI80
aI80
aI77
aI75
aI73
aI80
aI77
aI78
aI78
aI80
aI82
aI82
aI78
aI75
aI80
aI85
aI83
aI82
aI78
aI80
aI82
aI82
aI78
aI75
aI80
aI80
aI77
aI75
aI73
aI80
aI77
aI78
aI68
aI70
aI71
aI78
aI78
aI75
aI82
aI83
aI82
aI83
aI82
aI80
aI78
aI80
aI78
aI85
aI77
aI85
aI66
aI75
aI73
aI70
aI71
aI73
aI73
aI65
aI75
aI73
aI0
aI71
aI71
aI70
aI68
aI66
aI65
aI75
aI73
aI73
aI73
aI66
aI68
aI70
aI71
aI70
aI68
aI66
aI66
aI63
aI70
aI71
aI70
aI71
aI70
aI68
aI66
aI68
aI78
aI85
aI77
aI85
aI66
aI75
aI73
aI70
aI71
aI73
aI73
aI65
aI75
aI73
aI0
aI71
aI71
aI70
aI68
aI66
aI65
aI75
aI73
aI73
aI73
aI70
aI68
aI70
aI71
aI70
aI68
aI66
aI66
aI63
aI65
aI68
aI66
aI78
aa(lp102
I0
aI85
aI0
aI85
aI85
aI82
aI83
aI85
aI89
aI89
aI85
aI85
aI87
aI89
aI90
aI90
aI94
aI92
aI90
aI89
aI87
aI85
aI85
aI87
aI89
aI90
aI90
aI94
aI92
aI90
aI89
aI87
aI85
aI92
aI89
aI90
aI82
aI83
aI83
aI90
aI90
aI83
aI82
aI80
aI85
aI0
aI85
aI85
aI82
aI83
aI85
aI89
aI89
aI85
aI85
aI87
aI89
aI90
aI90
aI94
aI92
aI90
aI89
aI87
aI85
aI85
aI87
aI89
aI78
aI90
aI94
aI92
aI90
aI89
aI87
aI85
aI92
aI89
aI90
aI82
aI83
aI90
aI90
aI87
aI89
aI90
aI92
aI0
aI78
aI80
aI82
aI82
aI78
aI75
aI80
aI80
aI77
aI75
aI73
aI80
aI77
aI78
aI78
aI80
aI82
aI82
aI78
aI75
aI80
aI85
aI83
aI82
aI78
aI80
aI82
aI82
aI78
aI75
aI80
aI80
aI77
aI75
aI73
aI80
aI77
aI78
aI68
aI70
aI71
aI78
aI78
aI75
aI82
aI83
aI82
aI83
aI82
aI80
aI78
aI80
aI78
aI85
aI77
aI85
aI66
aI75
aI73
aI70
aI71
aI73
aI73
aI65
aI75
aI73
aI0
aI71
aI71
aI70
aI68
aI66
aI65
aI75
aI73
aI73
aI73
aI66
aI68
aI70
aI71
aI70
aI68
aI66
aI66
aI63
aI70
aI71
aI70
aI71
aI70
aI68
aI66
aI68
aI78
aI85
aI77
aI85
aI66
aI75
aI73
aI70
aI71
aI73
aI73
aI65
aI75
aI73
aI0
aI71
aI71
aI70
aI68
aI66
aI65
aI75
aI73
aI73
aI73
aI70
aI68
aI70
aI71
aI70
aI68
aI66
aI66
aI63
aI65
aI68
aI66
aI78
aa(lp103
I0
aI75
aI77
aI78
aI80
aI82
aI75
aI82
aI82
aI78
aI80
aI82
aI83
aI85
aI87
aI82
aI85
aI83
aI0
aI82
aI80
aI77
aI78
aI80
aI82
aI0
aI66
aI68
aI70
aI73
aI71
aI70
aI68
aI65
aI66
aI68
aI70
aI0
aI68
aI66
aI63
aI63
aI65
aI66
aI66
aI66
aI66
aI65
aI63
aI65
aI70
aI68
aI66
aI65
aI66
aI65
aI63
aI70
aI70
aI71
aI71
aI71
aI70
aI68
aI71
aI71
aI73
aI71
aI70
aI70
aI70
aI70
aI70
aI68
aI66
aI70
aI71
aI70
aI68
aI68
aI68
aI68
aI66
aI65
aI68
aI68
aI66
aI65
aI66
aI68
aI70
aI0
aI73
aI85
aI82
aI83
aI83
aI83
aI82
aI80
aI83
aI83
aI85
aI83
aI82
aI82
aI82
aI82
aI82
aI80
aI78
aI82
aI83
aI82
aI80
aI80
aI80
aI82
aI83
aI83
aI83
aI83
aI85
aI87
aI87
aI86
aI86
aI86
aI87
aI89
aI89
aI87
aI89
aI90
aI90
aI90
aI90
aI90
aI89
aI89
aI87
aI87
aI83
aI83
aI87
aI90
aI89
aI89
aI89
aI89
aI89
aI87
aI87
aI85
aI85
aI82
aI82
aI83
aI85
aI87
aI87
aI87
aI85
aI83
aI82
aI81
aI84
aI89
aI87
aI87
aI87
aI86
aI86
aI87
aI89
aI89
aI87
aI89
aI90
aI90
aI90
aI90
aI90
aI89
aI89
aI87
aI87
aI83
aI83
aI87
aI90
aI89
aI89
aI89
aI89
aI89
aI87
aI87
aI85
aI85
aI82
aI82
aI82
aI85
aI87
aI87
aI86
aI87
aI89
aI87
aI82
aI80
aI78
aI80
aI82
aI83
aI85
aI82
aI82
aI74
aI75
aI77
aI77
aI75
aI66
aI68
aI70
aI73
aI71
aI70
aI68
aI65
aI66
aI68
aI70
aI0
aI68
aI66
aI63
aI65
aI66
aI68
aI0
aI70
aI71
aI70
aI72
aI74
aI75
aI63
aI66
aI70
aI75
aI74
aI75
aI78
aI82
aI94
aa(lp104
I76
aI0
aI77
aI0
aI79
aI0
aI74
aI76
aI0
aI81
aI0
aI69
aI71
aI72
aI74
aI76
aI74
aI79
aI0
aI67
aI69
aI71
aI72
aI74
aI72
aI84
aI0
aI72
aI74
aI76
aI78
aI76
aI74
aI69
aI71
aI0
aI74
aI76
aI0
aI76
aI77
aI79
aI81
aI69
aI74
aI0
aI74
aI76
aI77
aI79
aI67
aI72
aI0
aI72
aI74
aI76
aI77
aI0
aI77
aI79
aI81
aI83
aI81
aI79
aI74
aI76
aI0
aI76
aI79
aI76
aI76
aI81
aI69
aI81
aI81
aI72
aI81
aI84
aI75
aI84
aI84
aI74
aI74
aI74
aI0
aI74
aI72
aI71
aI79
aI76
aI72
aI77
aI0
aI77
aI76
aI74
aI86
aI0
aI83
aI79
aI77
aI74
aI71
aI67
aI65
aI62
aI59
aI55
aI50
aI71
aI67
aI65
aI62
aI65
aI64
aI62
aI72
aI0
aa(lp105
I88
aI86
aI81
aI84
aI83
aI79
aI89
aI88
aI84
aI81
aI0
aI86
aI89
aI86
aI84
aI83
aI80
aI76
aI85
aI86
aI88
aI81
aI0
aI91
aI89
aI88
aI86
aI88
aI89
aI88
aI89
aI91
aI84
aI83
aI84
aI86
aI84
aI83
aI84
aI81
aI83
aI84
aI83
aI84
aI83
aI84
aI86
aI84
aI83
aI83
aI81
aI0
aI76
aI74
aI72
aI71
aI72
aI69
aI72
aI74
aI74
aI74
aI0
aI74
aI72
aI71
aI69
aI71
aI0
aI68
aI64
aI74
aI72
aI0
aI72
aI71
aI69
aI67
aI69
aI0
aI69
aI71
aI72
aI72
aI71
aI0
aI71
aI72
aI71
aI69
aI69
aI0
aI76
aI74
aI72
aI71
aI72
aI69
aI72
aI74
aI74
aI74
aI0
aI74
aI72
aI71
aI72
aI74
aI0
aI71
aI77
aI76
aI74
aI72
aI0
aI72
aI71
aI69
aI67
aI69
aI0
aI69
aI71
aI72
aI72
aI71
aI0
aI71
aI72
aI71
aI69
aI69
aI69
aI76
aI76
aI74
aI69
aI72
aI71
aI71
aI69
aI67
aI0
aI77
aI76
aI74
aI72
aI72
aI67
aI69
aI0
aI74
aI72
aI74
aI76
aI77
aI72
aI71
aI71
aI76
aI74
aI0
aI73
aI73
aI74
aI77
aI76
aI0
aI76
aI77
aI79
aI81
aI77
aI76
aI76
aI76
aI74
aI76
aI0
aI67
aI77
aI77
aI76
aI79
aI81
aI76
aI74
aI72
aI0
aI72
aI74
aI76
aI77
aI76
aI74
aI72
aI74
aI74
aI77
aI76
aI0
aI76
aI76
aI74
aI73
aI73
aI74
aI76
aI81
aI0
aI76
aI74
aI72
aI71
aI72
aI69
aI72
aI74
aI74
aI74
aI0
aI74
aI72
aI71
aI69
aI71
aI0
aI68
aI64
aI74
aI72
aI71
aI69
aI0
aI72
aI71
aI69
aI67
aI69
aI72
aI0
aI69
aI71
aI72
aI74
aI72
aI71
aI69
aI71
aI0
aI71
aI72
aI71
aI69
aI69
aI0
aI76
aI74
aI72
aI71
aI74
aI72
aI69
aI72
aI74
aI81
aI74
aI0
aI74
aI72
aI71
aI72
aI74
aI0
aI71
aI77
aI76
aI69
aI74
aI72
aI0
aI72
aI71
aI69
aI67
aI69
aI72
aI0
aI69
aI71
aI72
aI74
aI72
aI71
aI69
aI71
aI0
aI71
aI72
aI71
aI69
aI74
aI72
aI71
aI69
aI76
aI76
aI74
aI69
aI72
aI71
aI71
aI69
aI67
aI0
aI77
aI76
aI74
aI72
aI72
aI67
aI69
aI0
aI74
aI72
aI74
aI76
aI77
aI72
aI71
aI71
aI76
aI74
aI0
aI73
aI73
aI74
aI77
aI76
aI0
aI76
aI77
aI79
aI81
aI77
aI76
aI76
aI76
aI74
aI76
aI0
aI67
aI77
aI77
aI76
aI79
aI81
aI76
aI74
aI72
aI0
aI72
aI74
aI76
aI77
aI76
aI74
aI72
aI74
aI74
aI77
aI76
aI0
aI76
aI76
aI74
aI73
aI73
aI74
aI76
aI79
aI76
aI79
aI81
aI79
aI77
aI76
aI77
aI76
aI74
aI0
aI77
aI76
aI76
aI79
aI79
aI77
aI76
aI77
aI76
aI84
aI83
aI83
aI81
aI79
aI76
aI0
aI88
aI76
aI77
aI79
aI81
aI77
aI76
aI76
aI76
aI79
aI76
aI74
aI0
aI77
aI77
aI77
aI76
aI79
aI81
aI79
aI76
aI74
aI72
aI0
aI72
aI74
aI76
aI77
aI76
aI74
aI72
aI74
aI76
aI77
aI79
aI77
aI76
aI0
aI76
aI76
aI74
aI73
aI73
aI74
aI76
aI81
aI0
aI88
aI86
aI84
aI83
aI89
aI88
aI86
aI84
aI0
aI87
aI86
aI84
aI84
aI91
aI89
aI88
aI0
aI84
aI81
aI0
aa(lp106
I0
aI67
aI72
aI72
aI72
aI76
aI79
aI79
aI79
aI79
aI79
aI76
aI74
aI74
aI76
aI74
aI72
aI69
aI0
aI67
aI72
aI72
aI72
aI76
aI79
aI79
aI79
aI79
aI79
aI76
aI74
aI74
aI76
aI74
aI72
aI79
aI0
aI67
aI72
aI72
aI72
aI76
aI79
aI79
aI79
aI79
aI79
aI76
aI74
aI74
aI76
aI74
aI72
aI69
aI0
aI67
aI72
aI72
aI72
aI76
aI79
aI79
aI79
aI79
aI79
aI76
aI74
aI74
aI76
aI74
aI72
aI79
aI65
aI69
aI72
aI77
aI84
aI84
aI84
aI88
aI91
aI91
aI91
aI91
aI91
aI88
aI86
aI86
aI88
aI86
aI84
aI81
aI0
aI79
aI84
aI84
aI84
aI88
aI91
aI91
aI91
aI91
aI91
aI88
aI86
aI86
aI88
aI86
aI84
aI93
aI69
aI72
aI74
aI77
aI81
aI84
aI86
aI89
aI0
aI91
aI91
aI91
aI91
aI91
aI79
aI91
aI91
aI91
aI91
aI91
aI79
aI91
aI91
aI91
aI91
aI91
aI88
aI84
aI0
aa(lp107
I76
aI79
aI74
aI76
aI77
aI79
aI76
aI77
aI76
aI69
aI74
aI76
aI77
aI77
aI72
aI76
aI74
aI72
aI72
aI74
aI0
aI72
aI74
aI76
aI79
aI74
aI0
aI76
aI77
aI79
aI76
aI77
aI76
aI69
aI74
aI76
aI77
aI74
aI69
aI72
aI71
aI72
aI64
aI0
aI76
aI79
aI74
aI76
aI77
aI79
aI76
aI77
aI76
aI69
aI74
aI76
aI77
aI77
aI72
aI76
aI74
aI72
aI72
aI74
aI0
aI72
aI74
aI76
aI79
aI74
aI76
aI77
aI79
aI76
aI77
aI76
aI69
aI74
aI76
aI77
aI74
aI69
aI72
aI71
aI72
aI64
aI0
aI69
aI71
aI72
aI81
aI79
aI0
aI69
aI71
aI72
aI77
aI76
aI0
aI69
aI71
aI72
aI81
aI79
aI76
aI71
aI67
aI69
aI72
aI74
aI76
aI79
aI74
aI76
aI77
aI79
aI76
aI77
aI76
aI69
aI74
aI76
aI77
aI77
aI72
aI76
aI74
aI72
aI72
aI74
aI72
aI74
aI76
aI79
aI74
aI76
aI77
aI79
aI76
aI77
aI76
aI69
aI74
aI76
aI77
aI74
aI69
aI72
aI71
aI72
aI67
aI0
aI89
aI82
aI87
aI80
aI0
aI82
aI83
aI85
aI80
aI82
aI75
aI0
aI89
aI82
aI87
aI80
aI0
aI82
aI83
aI85
aI80
aI82
aI75
aI0
aI77
aI78
aI0
aI71
aI77
aI78
aI80
aI73
aI73
aI85
aI83
aI82
aI80
aI82
aI0
aI80
aI78
aI77
aI0
aI89
aI82
aI87
aI80
aI0
aI82
aI83
aI85
aI80
aI82
aI75
aI0
aI89
aI82
aI87
aI80
aI0
aI82
aI83
aI85
aI80
aI82
aI75
aI0
aI77
aI78
aI0
aI71
aI77
aI78
aI80
aI73
aI0
aI85
aI83
aI82
aI80
aI82
aI82
aI80
aI82
aI0
aI76
aI79
aI74
aI76
aI77
aI79
aI76
aI0
aI77
aI76
aI69
aI74
aI76
aI77
aI77
aI72
aI76
aI74
aI72
aI72
aI74
aI0
aI72
aI74
aI76
aI79
aI74
aI76
aI77
aI79
aI76
aI0
aI77
aI76
aI69
aI74
aI76
aI77
aI74
aI69
aI72
aI71
aI72
aI64
aI0
aI69
aI71
aI72
aI81
aI79
aI0
aI69
aI71
aI72
aI77
aI76
aI0
aI69
aI71
aI72
aI81
aI79
aI76
aI71
aI67
aI69
aI0
aI72
aI74
aI76
aI79
aI74
aI76
aI77
aI79
aI76
aI77
aI76
aI69
aI74
aI76
aI77
aI77
aI72
aI76
aI74
aI72
aI72
aI74
aI0
aI72
aI74
aI76
aI79
aI74
aI76
aI77
aI79
aI76
aI77
aI76
aI69
aI74
aI76
aI77
aI74
aI69
aI72
aI71
aI72
aI67
aI0
aI88
aI91
aI86
aI88
aI89
aI91
aI0
aI89
aI88
aI81
aI86
aI88
aI89
aI89
aI88
aI86
aI84
aI84
aI86
aI0
aI84
aI86
aI88
aI91
aI86
aI88
aI89
aI91
aI0
aI89
aI88
aI81
aI86
aI88
aI89
aI86
aI81
aI84
aI83
aI84
aI0
aa(lp108
I82
aI82
aI80
aI82
aI82
aI80
aI82
aI0
aI75
aI82
aI80
aI80
aI80
aI77
aI78
aI77
aI75
aI87
aI87
aI87
aI82
aI85
aI80
aI0
aI78
aI80
aI82
aI82
aI83
aI82
aI80
aI82
aI82
aI85
aI82
aI80
aI82
aI85
aI82
aI80
aI78
aI77
aI77
aI75
aI0
aI70
aI78
aI82
aI82
aI80
aI82
aI82
aI80
aI82
aI0
aI75
aI82
aI80
aI80
aI80
aI77
aI78
aI77
aI75
aI0
aI87
aI87
aI87
aI82
aI85
aI80
aI0
aI78
aI80
aI82
aI82
aI83
aI82
aI80
aI82
aI82
aI85
aI82
aI80
aI82
aI85
aI82
aI80
aI78
aI77
aI77
aI75
aI0
aI82
aI85
aI87
aI85
aI83
aI82
aI82
aI80
aI0
aI82
aI83
aI85
aI82
aI80
aI82
aI80
aI79
aI80
aI82
aI83
aI82
aI78
aI75
aI83
aI82
aI78
aI80
aI0
aI80
aI82
aI82
aI0
aI82
aI85
aI87
aI85
aI83
aI82
aI82
aI80
aI0
aI82
aI83
aI86
aI82
aI80
aI82
aI80
aI78
aI80
aI82
aI83
aI82
aI78
aI75
aI83
aI82
aI78
aI80
aI0
aI80
aI78
aI78
aI90
aa(lp109
I76
aI79
aI74
aI76
aI72
aI72
aI71
aI72
aI67
aI77
aI76
aI74
aI76
aI79
aI74
aI76
aI72
aI0
aI67
aI72
aI74
aI72
aI72
aI72
aI72
aI65
aI64
aI76
aI79
aI74
aI79
aI72
aI0
aI72
aI74
aI72
aI81
aI81
aI81
aI79
aI76
aI76
aI79
aI74
aI76
aI72
aI77
aI76
aI74
aI72
aI69
aI72
aI71
aI72
aI72
aI76
aI79
aI84
aI83
aI84
aI79
aI81
aI79
aI76
aI76
aI77
aI76
aI74
aI72
aI72
aI79
aI79
aI74
aI76
aI76
aI79
aI84
aI83
aI84
aI79
aI81
aI79
aI76
aI76
aI77
aI76
aI74
aI72
aI72
aI71
aI72
aI72
aI76
aI79
aI84
aI83
aI84
aI79
aI81
aI79
aI76
aI76
aI77
aI76
aI74
aI72
aI72
aI79
aI79
aI81
aI76
aI76
aI79
aI84
aI83
aI84
aI86
aI86
aI88
aI88
aI76
aI77
aI76
aI74
aI72
aI72
aI71
aI72
aI72
aI76
aI79
aI74
aI76
aI72
aI72
aI71
aI72
aI67
aI77
aI76
aI74
aI76
aI79
aI74
aI76
aI72
aI0
aI67
aI72
aI74
aI72
aI72
aI72
aI72
aI65
aI64
aI76
aI79
aI74
aI79
aI72
aI0
aI72
aI74
aI72
aI81
aI81
aI81
aI79
aI76
aI76
aI79
aI74
aI76
aI72
aI77
aI76
aI74
aI72
aI69
aI72
aI71
aI72
aI72
aI76
aI79
aI84
aI83
aI84
aI79
aI81
aI79
aI76
aI76
aI77
aI76
aI74
aI72
aI72
aI79
aI79
aI74
aI76
aI76
aI79
aI84
aI83
aI84
aI79
aI81
aI79
aI76
aI76
aI77
aI76
aI74
aI72
aI72
aI71
aI72
aI72
aI76
aI79
aI84
aI83
aI84
aI79
aI81
aI79
aI76
aI76
aI77
aI76
aI74
aI72
aI72
aI79
aI79
aI81
aI76
aI76
aI79
aI84
aI83
aI84
aI86
aI86
aI88
aI88
aI76
aI77
aI76
aI74
aI72
aI72
aI71
aI72
aI72
aI65
aI64
aa(lp110
I0
aI75
aI82
aI80
aI78
aI75
aI78
aI80
aI82
aI80
aI78
aI0
aI75
aI82
aI80
aI82
aI85
aI82
aI80
aI82
aI0
aI75
aI82
aI80
aI78
aI75
aI78
aI80
aI82
aI80
aI78
aI0
aI75
aI82
aI80
aI75
aI82
aI80
aI78
aI75
aI0
aI49
aI56
aI58
aI58
aI56
aI56
aI58
aI58
aI56
aI58
aI61
aI58
aI0
aI61
aI66
aI65
aI63
aI61
aI58
aI61
aI63
aI73
aI75
aI70
aI68
aI0
aI61
aI66
aI65
aI63
aI61
aI58
aI0
aI58
aI56
aI54
aI51
aI58
aI58
aI0
aI58
aI56
aI54
aI51
aI58
aI56
aI54
aI56
aI54
aI0
aI58
aI61
aI63
aI63
aI65
aI61
aI63
aI63
aI0
aI58
aI61
aI63
aI66
aI68
aI66
aI63
aI0
aI63
aI65
aI66
aI65
aI68
aI66
aI65
aI66
aI66
aI65
aI66
aI0
aI63
aI70
aI68
aI66
aI63
aI70
aI68
aI70
aI65
aI58
aI61
aI63
aI63
aI65
aI63
aI63
aI0
aI58
aI61
aI63
aI66
aI68
aI66
aI66
aI63
aI0
aI63
aI70
aI68
aI66
aI63
aI66
aI68
aI70
aI68
aI66
aI0
aI63
aI65
aI66
aI68
aI65
aI63
aI63
aI63
aI75
aI0
aI75
aI73
aI71
aI70
aI71
aI73
aI66
aI66
aI78
aI77
aI75
aI77
aI70
aI75
aI82
aI80
aI78
aI75
aI78
aI80
aI82
aI80
aI78
aI75
aI82
aI80
aI75
aI82
aI80
aI78
aI75
aI0
aI56
aI58
aI58
aI56
aI56
aI58
aI58
aI56
aI58
aI61
aI58
aI0
aI61
aI66
aI65
aI63
aI61
aI58
aI61
aI63
aI73
aI75
aI70
aI68
aI0
aI61
aI66
aI65
aI63
aI61
aI58
aI0
aI58
aI56
aI54
aI51
aI58
aI58
aI0
aI58
aI56
aI54
aI51
aI58
aI56
aI54
aI56
aI54
aI0
aI58
aI61
aI63
aI63
aI65
aI61
aI63
aI63
aI0
aI58
aI61
aI63
aI66
aI68
aI66
aI63
aI0
aI63
aI65
aI66
aI65
aI68
aI66
aI65
aI66
aI66
aI65
aI66
aI0
aI63
aI70
aI68
aI66
aI63
aI70
aI68
aI70
aI65
aI58
aI61
aI63
aI63
aI65
aI63
aI63
aI0
aI58
aI61
aI63
aI66
aI68
aI66
aI66
aI63
aI0
aI63
aI70
aI68
aI66
aI63
aI66
aI68
aI70
aI68
aI66
aI0
aI63
aI65
aI66
aI68
aI65
aI63
aI63
aI63
aI63
aI61
aI63
aI66
aI65
aI66
aI65
aI63
aI0
aI63
aI61
aI63
aI63
aI66
aI68
aI66
aI66
aI63
aI0
aI63
aI70
aI68
aI66
aI63
aI66
aI68
aI70
aI68
aI66
aI0
aI63
aI65
aI66
aI68
aI65
aI63
aI61
aI63
aI63
aI63
aI70
aI68
aI70
aI73
aI70
aI68
aI70
aI75
aI0
aa(lp111
I76
aI72
aI67
aI74
aI0
aI72
aI60
aI76
aI0
aI67
aI81
aI79
aI72
aI76
aI0
aI67
aI74
aI79
aI0
aI67
aI71
aI72
aI76
aI74
aI72
aI67
aI0
aI72
aI67
aI76
aI0
aI81
aI79
aI76
aI72
aI67
aI74
aI0
aI79
aI0
aI72
aI72
aI72
aI72
aI69
aI72
aI69
aI72
aI76
aI76
aI74
aI72
aI74
aI74
aI74
aI74
aI74
aI76
aI74
aI67
aI64
aI72
aI72
aI72
aI72
aI69
aI72
aI69
aI72
aI79
aI79
aI76
aI74
aI72
aI74
aI74
aI74
aI72
aI74
aI79
aI76
aI62
aI74
aI74
aI74
aI74
aI72
aI74
aI74
aI72
aI76
aI74
aI76
aI74
aI69
aI72
aI72
aI69
aI72
aI69
aI72
aI76
aI72
aI62
aI74
aI74
aI74
aI74
aI74
aI74
aI74
aI76
aI74
aI76
aI74
aI72
aI74
aI74
aI74
aI74
aI74
aI72
aI74
aI79
aI72
aI74
aI67
aI72
aI72
aI72
aI72
aI79
aI79
aI79
aI79
aI74
aI74
aI72
aI76
aI74
aI72
aI74
aI74
aI74
aI74
aI74
aI76
aI77
aI77
aI0
aI67
aI67
aI67
aI72
aI72
aI72
aI72
aI72
aI72
aI76
aI69
aI72
aI69
aI76
aI72
aI69
aI72
aI72
aI72
aI72
aI72
aI72
aI72
aI79
aI69
aI76
aI76
aI74
aI67
aI72
aI72
aI72
aI72
aI79
aI79
aI79
aI79
aI74
aI74
aI72
aI76
aI74
aI72
aI74
aI74
aI74
aI74
aI74
aI76
aI77
aI77
aI65
aI64
aI62
aI60
aI72
aI72
aI72
aI72
aI81
aI81
aI83
aI81
aI76
aI72
aI69
aI72
aI74
aI76
aI72
aI72
aI79
aI79
aI76
aI74
aI74
aI72
aI0
aI72
aI72
aI72
aI72
aI69
aI72
aI69
aI72
aI76
aI76
aI74
aI72
aI74
aI74
aI74
aI74
aI74
aI76
aI74
aI67
aI64
aI72
aI72
aI72
aI72
aI69
aI72
aI69
aI72
aI79
aI79
aI76
aI74
aI72
aI74
aI74
aI74
aI72
aI74
aI79
aI76
aI62
aI74
aI74
aI74
aI74
aI74
aI72
aI74
aI74
aI72
aI76
aI74
aI76
aI74
aI65
aI72
aI72
aI69
aI72
aI69
aI72
aI76
aI72
aI62
aI74
aI74
aI74
aI74
aI74
aI74
aI74
aI76
aI74
aI76
aI74
aI72
aI74
aI74
aI74
aI74
aI74
aI72
aI74
aI81
aI79
aI64
aI72
aI72
aI72
aI72
aI79
aI79
aI79
aI79
aI74
aI74
aI72
aI76
aI74
aI72
aI74
aI74
aI74
aI74
aI74
aI76
aI77
aI77
aI0
aI67
aI67
aI60
aI72
aI72
aI72
aI72
aI72
aI72
aI76
aI72
aI69
aI76
aI72
aI69
aI72
aI72
aI72
aI72
aI72
aI72
aI72
aI79
aI76
aI76
aI74
aI64
aI72
aI72
aI72
aI72
aI79
aI79
aI79
aI79
aI74
aI74
aI72
aI76
aI74
aI72
aI74
aI74
aI74
aI74
aI74
aI76
aI77
aI77
aI65
aI64
aI62
aI60
aI72
aI72
aI72
aI72
aI81
aI81
aI83
aI81
aI76
aI72
aI69
aI72
aI74
aI76
aI72
aI72
aI79
aI79
aI76
aI74
aI74
aI72
aI0
aI64
aI64
aI65
aI67
aI65
aI69
aI67
aI67
aI67
aI69
aI71
aI74
aI72
aI60
aI72
aI72
aI72
aI72
aI72
aI72
aI76
aI72
aI69
aI76
aI72
aI69
aI72
aI72
aI72
aI72
aI72
aI72
aI72
aI79
aI76
aI76
aI74
aI64
aI72
aI72
aI72
aI72
aI79
aI79
aI79
aI79
aI74
aI74
aI72
aI76
aI74
aI72
aI74
aI74
aI74
aI74
aI74
aI76
aI77
aI77
aI0
aI67
aI67
aI0
aI72
aI72
aI72
aI72
aI81
aI81
aI83
aI81
aI76
aI72
aI69
aI72
aI74
aI76
aI72
aI72
aI79
aI79
aI76
aI74
aI74
aI72
aI0
aI76
aI72
aI67
aI74
aI0
aI72
aI60
aI76
aI0
aI67
aI81
aI79
aI72
aI76
aI0
aI67
aI74
aI79
aI0
aI67
aI71
aI72
aI76
aI74
aI72
aI67
aI0
aI72
aI67
aI76
aI0
aI81
aI79
aI76
aI72
aI67
aI74
aI0
aI79
aa(lp112
I0
aI73
aI80
aI82
aI0
aI78
aI83
aI82
aI78
aI80
aI82
aI85
aI83
aI82
aI80
aI82
aI82
aI83
aI82
aI85
aI85
aI83
aI82
aI80
aI80
aI82
aI80
aI74
aI0
aI70
aI80
aI78
aI71
aI71
aI83
aI82
aI78
aI80
aI82
aI74
aI71
aI66
aI68
aI70
aI70
aI71
aI70
aI73
aI68
aI73
aI71
aI70
aI68
aI68
aI70
aI68
aI62
aI0
aI58
aI68
aI66
aI59
aI59
aI71
aI70
aI68
aI66
aI68
aI70
aI0
aI73
aI0
aI61
aI68
aI71
aI0
aI73
aI71
aI71
aI70
aI0
aI61
aI68
aI70
aI71
aI72
aI73
aI0
aI61
aI73
aI71
aI0
aI61
aI73
aI71
aI71
aI70
aI61
aI68
aI80
aI77
aI0
aI75
aI75
aI77
aI78
aI77
aI75
aI63
aI68
aI63
aI73
aI71
aI71
aI70
aI71
aI73
aI75
aI75
aI77
aI73
aI73
aI0
aI61
aI71
aI76
aI83
aI82
aI80
aI78
aI0
aI75
aI75
aI77
aI78
aI77
aI75
aI75
aI63
aI73
aI75
aI75
aI77
aI73
aI73
aI80
aI78
aI78
aI0
aI66
aI73
aI74
aI74
aI73
aI73
aI71
aI71
aI66
aI66
aI68
aI0
aI70
aI71
aI70
aI73
aI68
aI71
aI70
aI68
aI68
aI70
aI68
aI68
aI58
aI62
aI58
aI68
aI66
aI59
aI59
aI66
aI71
aI70
aI68
aI66
aI68
aI70
aI61
aI0
aI70
aI70
aI71
aI70
aI73
aI68
aI73
aI71
aI70
aI68
aI68
aI70
aI68
aI66
aI0
aI58
aI68
aI66
aI59
aI59
aI66
aI71
aI70
aI70
aI66
aI68
aI70
aI70
aI68
aI61
aI0
aI73
aI0
aI61
aI68
aI71
aI0
aI73
aI71
aI71
aI70
aI0
aI61
aI68
aI70
aI71
aI72
aI73
aI0
aI61
aI73
aI71
aI0
aI61
aI73
aI71
aI71
aI70
aI61
aI68
aI80
aI77
aI0
aI75
aI75
aI77
aI78
aI77
aI75
aI63
aI68
aI63
aI73
aI71
aI71
aI70
aI71
aI73
aI75
aI75
aI77
aI73
aI73
aI0
aI61
aI71
aI76
aI83
aI82
aI80
aI78
aI0
aI75
aI75
aI77
aI78
aI77
aI75
aI75
aI63
aI73
aI75
aI75
aI77
aI73
aI73
aI80
aI78
aI78
aI0
aI78
aI74
aI74
aI71
aI71
aI66
aI66
aI68
aI0
aI70
aI71
aI70
aI73
aI0
aI71
aI70
aI68
aI68
aI70
aI68
aI0
aI58
aI68
aI66
aI59
aI59
aI66
aI71
aI70
aI68
aI66
aI68
aI59
aI70
aatb.