cnumpy.core.multiarray
_reconstruct
p1
(cnumpy
ndarray
p2
(I0
tS'b'
tRp3
(I1
(L31L
tcnumpy
dtype
p4
(S'O8'
I0
I1
tRp5
(I3
S'|'
NNNI-1
I-1
I63
tbI00
(lp6
(lp7
I12
aI2
aI2
aI6
aI2
aI6
aI2
aI12
aI2
aI2
aI6
aI2
aI4
aI2
aI2
aI12
aI2
aI2
aI10
aI2
aI2
aI2
aI4
aI2
aI2
aI4
aI2
aI2
aI2
aI4
aI2
aI6
aI2
aI12
aI2
aI2
aI6
aI2
aI6
aI2
aI12
aI2
aI2
aI6
aI2
aI4
aI2
aI2
aI12
aI2
aI2
aI10
aI2
aI2
aI2
aI4
aI2
aI2
aI4
aI2
aI2
aI6
aI2
aI6
aI2
aI12
aI2
aI2
aI6
aI2
aI4
aI2
aI2
aI2
aI4
aI2
aI4
aI2
aI2
aI8
aI2
aI2
aI2
aI2
aI12
aI2
aI2
aI8
aI2
aI2
aI2
aI2
aI4
aI2
aI2
aI4
aI2
aI2
aI6
aI2
aI6
aI2
aI8
aI6
aI2
aI12
aI4
aI15
aI1
aa(lp8
I8
aI4
aI8
aI4
aI11
aI1
aI11
aI1
aI8
aI4
aI8
aI4
aI11
aI1
aI11
aI1
aI8
aI4
aI8
aI4
aI4
aI6
aI2
aI11
aI1
aI8
aI4
aI4
aI4
aI4
aI8
aI2
aI2
aI11
aI1
aI8
aI4
aI8
aI4
aI4
aI6
aI2
aI11
aI1
aI8
aI4
aI4
aI6
aI2
aI11
aI1
aI11
aI1
aI6
aI2
aI4
aI6
aI2
aI4
aI4
aI6
aI1
aI1
aI11
aI1
aI6
aI2
aI4
aI4
aI4
aI2
aI2
aI8
aI2
aI2
aI11
aI1
aI6
aI2
aI4
aI6
aI2
aI4
aI4
aI6
aI1
aI1
aI11
aI1
aI6
aI2
aI4
aI4
aI6
aI2
aI11
aI1
aI11
aI1
aI2
aI2
aI4
aI4
aI2
aI2
aI4
aI4
aI2
aI2
aI4
aI4
aI8
aI2
aI2
aI2
aI2
aI4
aI4
aI2
aI2
aI4
aI4
aI2
aI2
aI4
aI4
aI11
aI1
aI2
aI2
aI4
aI4
aI2
aI2
aI4
aI4
aI4
aI6
aI2
aI11
aI1
aI4
aI4
aI4
aI8
aI2
aI2
aI11
aI1
aI11
aI1
aI4
aI4
aI4
aI8
aI4
aI11
aI1
aI11
aI1
aa(lp9
I6
aI2
aI4
aI4
aI6
aI2
aI8
aI6
aI2
aI4
aI4
aI15
aI1
aI6
aI2
aI4
aI4
aI6
aI2
aI8
aI2
aI4
aI2
aI4
aI4
aI11
aI1
aI2
aI2
aI6
aI2
aI6
aI2
aI2
aI4
aI6
aI2
aI2
aI2
aI4
aI2
aI6
aI2
aI11
aI1
aI2
aI2
aI6
aI2
aI4
aI4
aI6
aI2
aI4
aI2
aI2
aI2
aI4
aI2
aI6
aI2
aI15
aI1
aI6
aI2
aI4
aI4
aI6
aI2
aI4
aI2
aI2
aI6
aI2
aI6
aI2
aI11
aI1
aI2
aI2
aI6
aI2
aI4
aI4
aI6
aI2
aI4
aI2
aI2
aI2
aI4
aI2
aI6
aI2
aI15
aI1
aa(lp10
I4
aI1
aI1
aI1
aI1
aI3
aI1
aI1
aI1
aI1
aI1
aI4
aI1
aI1
aI1
aI1
aI3
aI1
aI1
aI1
aI1
aI1
aI4
aI1
aI1
aI1
aI1
aI4
aI1
aI1
aI1
aI1
aI5
aI1
aI1
aI1
aI4
aI1
aI1
aI1
aI1
aI4
aI1
aI1
aI1
aI1
aI3
aI1
aI1
aI1
aI1
aI2
aI3
aI1
aI1
aI1
aI1
aI3
aI1
aI1
aI1
aI1
aI1
aI4
aI1
aI1
aI1
aI1
aI4
aI1
aI1
aI1
aI1
aI4
aI1
aI1
aI1
aI1
aI8
aI4
aI1
aI1
aI1
aI1
aI3
aI1
aI1
aI1
aI1
aI1
aI4
aI1
aI1
aI1
aI1
aI3
aI1
aI1
aI1
aI1
aI1
aI4
aI1
aI1
aI1
aI1
aI4
aI1
aI1
aI1
aI1
aI4
aI1
aI1
aI1
aI1
aI4
aI4
aI4
aI1
aI1
aI1
aI1
aI3
aI1
aI1
aI1
aI1
aI1
aI4
aI1
aI1
aI1
aI1
aI4
aI1
aI1
aI1
aI1
aI4
aI1
aI1
aI1
aI1
aI4
aI1
aI1
aI1
aI1
aI4
aI1
aI1
aI1
aI1
aI8
aI8
aI3
aI1
aI3
aI1
aI8
aI3
aI1
aI3
aI1
aI8
aI3
aI1
aI2
aI6
aI1
aI1
aI1
aI1
aI5
aI1
aI1
aI1
aI4
aI1
aI1
aI1
aI1
aI3
aI1
aI1
aI1
aI1
aI1
aI4
aI1
aI1
aI1
aI1
aI3
aI1
aI1
aI1
aI1
aI1
aI4
aI1
aI1
aI1
aI1
aI4
aI1
aI1
aI1
aI1
aI4
aI1
aI1
aI1
aI1
aI8
aI8
aa(lp11
I4
aI1
aI1
aI1
aI1
aI4
aI1
aI1
aI1
aI1
aI4
aI1
aI1
aI1
aI1
aI8
aI4
aI1
aI1
aI1
aI1
aI4
aI1
aI1
aI1
aI1
aI4
aI1
aI1
aI1
aI1
aI8
aI4
aI1
aI1
aI1
aI1
aI3
aI1
aI1
aI1
aI1
aI1
aI4
aI1
aI1
aI1
aI1
aI3
aI1
aI1
aI1
aI1
aI1
aI4
aI1
aI1
aI1
aI1
aI3
aI1
aI1
aI1
aI1
aI1
aI4
aI1
aI1
aI1
aI1
aI8
aI4
aI1
aI1
aI1
aI1
aI4
aI1
aI1
aI1
aI1
aI4
aI1
aI1
aI1
aI1
aI8
aI4
aI1
aI1
aI1
aI1
aI4
aI1
aI1
aI1
aI1
aI4
aI1
aI1
aI1
aI1
aI8
aI4
aI1
aI1
aI1
aI1
aI3
aI1
aI1
aI1
aI1
aI1
aI4
aI1
aI1
aI1
aI1
aI3
aI1
aI1
aI1
aI1
aI1
aI4
aI1
aI1
aI1
aI1
aI3
aI1
aI1
aI1
aI1
aI1
aI4
aI1
aI1
aI1
aI1
aI8
aI4
aI1
aI1
aI1
aI1
aI4
aI1
aI1
aI1
aI1
aI4
aI1
aI1
aI1
aI1
aI8
aI4
aI1
aI1
aI1
aI1
aI4
aI1
aI1
aI1
aI1
aI4
aI1
aI1
aI1
aI1
aI8
aI4
aI1
aI1
aI1
aI1
aI3
aI1
aI1
aI1
aI1
aI1
aI4
aI1
aI1
aI1
aI1
aI3
aI1
aI1
aI1
aI1
aI1
aI4
aI1
aI1
aI1
aI1
aI3
aI1
aI1
aI1
aI1
aI1
aI4
aI1
aI1
aI1
aI1
aI8
aI4
aI1
aI1
aI1
aI1
aI3
aI1
aI1
aI1
aI1
aI1
aI4
aI1
aI1
aI1
aI1
aI8
aI2
aI8
aI8
aI6
aa(lp12
I2
aI2
aI2
aI10
aI2
aI2
aI2
aI10
aI2
aI2
aI2
aI6
aI2
aI2
aI15
aI1
aI2
aI2
aI2
aI10
aI2
aI2
aI2
aI10
aI2
aI2
aI2
aI6
aI2
aI2
aI11
aI1
aI2
aI2
aI2
aI2
aI2
aI2
aI8
aI2
aI2
aI2
aI2
aI8
aI2
aI2
aI2
aI2
aI6
aI17
aI1
aI2
aI2
aI2
aI10
aI2
aI2
aI2
aI10
aI2
aI2
aI2
aI6
aI2
aI2
aI8
aI2
aI2
aI2
aI2
aI27
aI1
aI2
aI2
aI2
aI2
aI2
aI2
aI2
aI2
aI2
aI2
aI2
aI2
aI2
aI2
aI2
aI2
aI2
aI2
aI2
aI2
aI2
aI2
aI2
aI2
aI2
aI2
aI11
aI1
aI2
aI2
aI2
aI2
aI2
aI2
aI2
aI2
aI2
aI2
aI2
aI2
aI2
aI2
aI2
aI2
aI2
aI2
aI8
aI8
aI11
aI1
aI2
aI2
aI2
aI2
aI2
aI2
aI2
aI2
aI2
aI2
aI2
aI2
aI2
aI2
aI2
aI2
aI2
aI2
aI2
aI2
aI2
aI2
aI2
aI2
aI2
aI2
aI11
aI1
aI2
aI2
aI2
aI2
aI2
aI2
aI2
aI2
aI2
aI2
aI8
aI2
aI2
aI2
aI2
aI27
aI1
aI2
aI2
aI2
aI2
aI2
aI2
aI2
aI2
aI2
aI2
aI2
aI2
aI2
aI2
aI2
aI2
aI2
aI2
aI2
aI2
aI2
aI2
aI2
aI2
aI2
aI2
aI11
aI1
aI2
aI2
aI2
aI2
aI2
aI2
aI2
aI2
aI2
aI2
aI2
aI2
aI2
aI2
aI2
aI2
aI2
aI2
aI8
aI8
aI11
aI1
aI2
aI2
aI2
aI2
aI2
aI2
aI2
aI2
aI2
aI2
aI2
aI2
aI2
aI2
aI2
aI2
aI2
aI2
aI2
aI2
aI2
aI2
aI2
aI2
aI2
aI2
aI11
aI1
aI2
aI2
aI2
aI2
aI2
aI2
aI2
aI2
aI2
aI2
aI8
aI2
aI2
aI2
aI2
aI27
aI1
aI2
aI2
aI2
aI2
aI2
aI6
aI2
aI2
aI2
aI2
aI2
aI6
aI2
aI2
aI6
aI1
aI1
aI6
aI1
aI1
aI11
aI1
aI2
aI2
aI2
aI2
aI2
aI2
aI8
aI2
aI2
aI2
aI2
aI6
aI2
aI2
aI2
aI2
aI2
aI6
aI2
aI11
aI1
aI2
aI2
aI2
aI2
aI2
aI2
aI2
aI2
aI2
aI2
aI2
aI2
aI2
aI2
aI2
aI2
aI2
aI2
aI2
aI2
aI2
aI2
aI2
aI2
aI2
aI2
aI11
aI1
aI2
aI2
aI2
aI2
aI2
aI2
aI2
aI2
aI2
aI2
aI8
aI2
aI2
aI2
aI2
aI15
aI1
aI11
aI1
aI2
aI2
aI2
aI2
aI2
aI2
aI2
aI2
aI2
aI2
aI2
aI2
aI2
aI2
aI2
aI2
aI2
aI2
aI2
aI2
aI2
aI2
aI2
aI2
aI2
aI2
aI11
aI1
aI2
aI2
aI2
aI2
aI2
aI2
aI2
aI2
aI2
aI2
aI8
aI2
aI2
aI2
aI2
aI10
aI2
aI4
aI8
aI2
aI2
aI2
aI2
aI8
aI2
aI2
aI2
aI2
aI8
aI2
aI2
aI2
aI2
aI8
aI2
aI2
aI2
aI10
aI8
aI15
aI17
aa(lp13
I2
aI2
aI2
aI2
aI2
aI2
aI4
aI4
aI4
aI8
aI4
aI8
aI4
aI2
aI2
aI2
aI2
aI2
aI2
aI4
aI4
aI4
aI11
aI1
aI8
aI2
aI2
aI2
aI2
aI6
aI2
aI2
aI2
aI6
aI2
aI2
aI2
aI2
aI2
aI2
aI2
aI8
aI2
aI2
aI2
aI2
aI6
aI2
aI2
aI2
aI4
aI4
aI8
aI2
aI2
aI4
aI4
aI2
aI2
aI2
aI2
aI6
aI2
aI2
aI2
aI6
aI2
aI2
aI2
aI2
aI2
aI2
aI2
aI8
aI2
aI2
aI2
aI2
aI6
aI2
aI2
aI2
aI4
aI4
aI8
aI2
aI2
aI4
aI8
aI2
aI2
aI2
aI2
aI2
aI2
aI4
aI4
aI2
aI2
aI2
aI2
aI2
aI2
aI2
aI2
aI10
aI2
aI2
aI2
aI6
aI2
aI2
aI2
aI6
aI2
aI8
aI2
aI2
aI4
aI4
aI2
aI2
aI2
aI2
aI4
aI2
aI2
aI2
aI2
aI4
aI2
aI2
aI2
aI2
aI4
aI2
aI2
aI8
aI2
aI2
aI2
aI2
aI6
aI2
aI2
aI2
aI4
aI4
aI8
aI2
aI2
aI4
aI4
aI2
aI2
aI2
aI2
aI6
aI2
aI2
aI2
aI6
aI2
aI2
aI2
aI2
aI2
aI2
aI2
aI8
aI2
aI2
aI2
aI2
aI6
aI2
aI4
aI4
aI4
aI8
aI2
aI2
aI4
aI4
aI2
aI2
aI2
aI2
aI8
aI4
aI4
aI2
aI2
aI8
aI2
aI2
aI4
aI4
aI2
aI2
aI2
aI2
aI4
aI2
aI2
aI4
aI6
aI2
aI11
aI1
aI8
aI2
aI2
aI2
aI2
aI8
aI8
aI4
aI8
aI2
aI2
aI4
aI4
aI2
aI2
aI2
aI2
aI8
aI4
aI4
aI4
aI11
aI1
aI11
aI25
aa(lp14
I2
aI2
aI2
aI2
aI2
aI2
aI2
aI2
aI15
aI1
aI2
aI2
aI2
aI2
aI2
aI2
aI2
aI2
aI11
aI1
aI2
aI2
aI2
aI2
aI2
aI2
aI4
aI2
aI2
aI2
aI2
aI2
aI2
aI4
aI2
aI2
aI2
aI2
aI2
aI2
aI2
aI2
aI2
aI2
aI11
aI1
aI2
aI2
aI2
aI2
aI2
aI2
aI4
aI2
aI2
aI2
aI2
aI2
aI2
aI4
aI2
aI2
aI2
aI2
aI2
aI2
aI2
aI2
aI2
aI2
aI11
aI1
aI2
aI2
aI2
aI2
aI2
aI2
aI4
aI2
aI2
aI2
aI2
aI2
aI2
aI4
aI2
aI2
aI2
aI2
aI2
aI2
aI4
aI2
aI2
aI14
aI1
aI1
aI4
aI2
aI2
aI2
aI2
aI2
aI2
aI14
aI1
aI1
aI4
aI2
aI2
aI2
aI2
aI2
aI2
aI11
aI1
aI2
aI2
aI2
aI2
aI2
aI2
aI4
aI2
aI2
aI2
aI2
aI2
aI2
aI4
aI2
aI1
aI1
aI2
aI2
aI2
aI2
aI4
aI2
aI2
aI11
aI1
aI2
aI2
aI2
aI2
aI2
aI2
aI4
aI2
aI2
aI2
aI2
aI2
aI2
aI4
aI2
aI2
aI2
aI2
aI2
aI2
aI2
aI2
aI2
aI2
aI11
aI1
aI2
aI2
aI2
aI2
aI2
aI2
aI4
aI2
aI2
aI2
aI2
aI2
aI2
aI4
aI2
aI2
aI2
aI2
aI2
aI2
aI4
aI2
aI2
aI11
aI1
aI2
aI2
aI2
aI2
aI2
aI2
aI4
aI2
aI2
aI2
aI2
aI2
aI2
aI4
aI2
aI2
aI2
aI2
aI2
aI2
aI2
aI2
aI2
aI2
aI11
aI1
aI2
aI2
aI2
aI2
aI2
aI2
aI4
aI2
aI2
aI2
aI2
aI2
aI2
aI4
aI2
aI2
aI2
aI2
aI2
aI2
aI4
aI2
aI2
aI11
aI1
aI2
aI2
aI2
aI2
aI2
aI2
aI2
aI2
aI2
aI2
aI5
aI1
aI1
aI1
aI8
aa(lp15
I2
aI2
aI2
aI2
aI6
aI2
aI15
aI1
aI2
aI2
aI2
aI2
aI6
aI2
aI11
aI1
aI4
aI2
aI2
aI2
aI2
aI8
aI2
aI2
aI2
aI2
aI8
aI2
aI2
aI2
aI2
aI6
aI2
aI15
aI1
aI2
aI2
aI2
aI2
aI6
aI2
aI15
aI1
aI2
aI2
aI2
aI2
aI6
aI2
aI11
aI1
aI4
aI2
aI2
aI2
aI2
aI8
aI2
aI2
aI2
aI2
aI6
aI2
aI2
aI2
aI2
aI2
aI4
aI4
aI14
aI2
aI6
aI2
aI6
aI4
aI8
aI2
aI2
aI2
aI6
aI2
aI4
aI2
aI2
aI2
aI2
aI10
aI2
aI6
aI2
aI4
aI2
aI2
aI2
aI2
aI2
aI2
aI4
aI2
aI2
aI6
aI2
aI4
aI4
aI15
aI1
aI2
aI2
aI2
aI2
aI6
aI2
aI15
aI1
aI2
aI2
aI2
aI2
aI6
aI2
aI15
aI1
aI2
aI2
aI2
aI2
aI8
aI2
aI2
aI2
aI2
aI8
aI2
aI2
aI2
aI2
aI4
aI4
aI14
aI2
aI6
aI2
aI6
aI4
aI10
aI2
aI2
aI6
aI2
aI4
aI2
aI2
aI2
aI2
aI10
aI2
aI6
aI2
aI4
aI2
aI2
aI2
aI2
aI2
aI2
aI4
aI2
aI2
aI6
aI2
aI4
aI4
aI15
aI1
aI2
aI2
aI2
aI2
aI2
aI2
aI2
aI2
aI2
aI2
aI3
aI1
aI8
aI2
aI2
aI2
aI2
aI2
aI2
aI2
aI2
aI4
aI4
aI8
aI2
aI2
aI2
aI2
aI2
aI2
aI2
aI2
aI2
aI2
aI3
aI1
aI4
aI2
aI2
aI4
aI2
aI2
aI4
aI4
aI15
aI1
aI2
aI2
aI2
aI2
aI2
aI2
aI2
aI2
aI2
aI2
aI3
aI1
aI8
aI2
aI2
aI2
aI2
aI2
aI2
aI2
aI2
aI4
aI4
aI8
aI2
aI2
aI2
aI2
aI2
aI2
aI2
aI2
aI2
aI2
aI3
aI1
aI4
aI2
aI2
aI4
aI2
aI2
aI4
aI3
aI1
aI15
aI1
aI8
aI8
aI8
aI4
aI2
aI2
aI6
aI2
aI8
aI8
aI4
aI4
aI8
aI8
aI8
aI8
aI15
aI17
aa(lp16
I6
aI2
aI4
aI4
aI6
aI2
aI8
aI6
aI2
aI6
aI2
aI14
aI1
aI1
aI6
aI2
aI4
aI4
aI6
aI2
aI8
aI6
aI2
aI4
aI4
aI15
aI1
aI6
aI2
aI4
aI4
aI6
aI2
aI8
aI6
aI2
aI4
aI4
aI14
aI1
aI1
aI14
aI1
aI1
aI12
aI2
aI2
aI2
aI2
aI2
aI2
aI4
aI4
aI12
aI2
aI2
aI2
aI2
aI2
aI2
aI6
aI1
aI1
aI2
aI2
aI2
aI2
aI4
aI4
aI2
aI2
aI6
aI2
aI2
aI2
aI12
aI2
aI2
aI2
aI2
aI2
aI2
aI6
aI1
aI1
aI2
aI2
aI2
aI2
aI6
aI1
aI1
aI12
aI2
aI2
aI12
aI2
aI2
aI2
aI2
aI2
aI2
aI2
aI2
aI2
aI2
aI12
aI2
aI2
aI6
aI2
aI6
aI2
aI8
aI2
aI2
aI2
aI2
aI2
aI2
aI2
aI2
aI4
aI4
aI2
aI2
aI2
aI2
aI2
aI2
aI2
aI2
aI10
aI2
aI2
aI2
aI12
aI2
aI2
aI2
aI2
aI2
aI2
aI4
aI2
aI2
aI2
aI2
aI2
aI2
aI6
aI2
aI2
aI2
aI6
aI2
aI2
aI2
aI12
aI2
aI2
aI2
aI2
aI2
aI2
aI4
aI2
aI2
aI2
aI2
aI2
aI2
aI4
aI4
aI15
aI1
aI8
aI4
aI2
aI2
aI2
aI2
aI2
aI2
aI2
aI2
aI2
aI2
aI12
aI2
aI2
aI6
aI2
aI6
aI2
aI8
aI2
aI2
aI2
aI2
aI2
aI2
aI2
aI2
aI4
aI4
aI2
aI2
aI2
aI2
aI2
aI2
aI2
aI2
aI8
aI2
aI2
aI2
aI2
aI15
aI1
aa(lp17
I2
aI2
aI2
aI2
aI2
aI2
aI4
aI4
aI4
aI8
aI4
aI8
aI4
aI2
aI2
aI2
aI2
aI2
aI2
aI4
aI4
aI4
aI11
aI1
aI8
aI2
aI2
aI2
aI2
aI6
aI2
aI2
aI2
aI6
aI2
aI2
aI2
aI2
aI2
aI2
aI2
aI8
aI2
aI2
aI2
aI2
aI6
aI2
aI2
aI2
aI4
aI4
aI8
aI2
aI2
aI4
aI4
aI2
aI2
aI2
aI2
aI6
aI2
aI2
aI2
aI6
aI2
aI2
aI2
aI2
aI2
aI2
aI2
aI8
aI2
aI2
aI2
aI2
aI6
aI2
aI2
aI2
aI4
aI4
aI8
aI2
aI2
aI4
aI8
aI2
aI2
aI2
aI2
aI2
aI2
aI4
aI4
aI2
aI2
aI2
aI2
aI2
aI2
aI2
aI2
aI8
aI2
aI2
aI2
aI2
aI6
aI2
aI2
aI2
aI6
aI2
aI8
aI2
aI2
aI4
aI4
aI2
aI2
aI2
aI2
aI4
aI2
aI2
aI2
aI2
aI4
aI2
aI2
aI2
aI2
aI4
aI2
aI2
aI8
aI2
aI2
aI2
aI2
aI6
aI2
aI2
aI2
aI4
aI4
aI8
aI2
aI2
aI4
aI4
aI2
aI2
aI2
aI2
aI6
aI2
aI2
aI2
aI6
aI2
aI2
aI2
aI2
aI2
aI2
aI2
aI8
aI2
aI2
aI2
aI2
aI6
aI2
aI4
aI4
aI4
aI8
aI2
aI2
aI4
aI4
aI2
aI2
aI2
aI2
aI8
aI4
aI4
aI2
aI2
aI8
aI2
aI2
aI4
aI4
aI2
aI2
aI2
aI2
aI4
aI2
aI2
aI4
aI6
aI2
aI11
aI1
aI8
aI2
aI2
aI2
aI2
aI8
aI8
aI4
aI8
aI2
aI2
aI4
aI4
aI2
aI2
aI2
aI2
aI8
aI4
aI4
aI4
aI8
aI1
aI1
aI1
aI1
aI11
aI1
aa(lp18
I1
aI1
aI1
aI1
aI1
aI1
aI1
aI1
aI8
aI1
aI1
aI1
aI1
aI1
aI1
aI1
aI1
aI2
aI2
aI1
aI1
aI1
aI1
aI1
aI1
aI1
aI1
aI1
aI1
aI1
aI1
aI3
aI1
aI4
aI1
aI1
aI1
aI1
aI1
aI1
aI1
aI1
aI2
aI2
aI2
aI2
aI1
aI1
aI1
aI1
aI1
aI1
aI1
aI1
aI1
aI1
aI1
aI1
aI1
aI1
aI1
aI1
aI1
aI1
aI1
aI1
aI1
aI1
aI1
aI1
aI1
aI1
aI1
aI1
aI1
aI1
aI1
aI1
aI1
aI1
aI1
aI1
aI1
aI1
aI1
aI1
aI1
aI1
aI1
aI1
aI1
aI1
aI1
aI1
aI1
aI1
aI1
aI1
aI1
aI1
aI1
aI1
aI1
aI1
aI1
aI1
aI1
aI1
aI1
aI1
aI1
aI1
aI1
aI1
aI1
aI1
aI1
aI1
aI3
aI1
aI4
aI1
aI1
aI1
aI1
aI2
aI2
aI3
aI1
aI2
aI1
aI1
aI1
aI1
aI4
aI1
aI1
aI1
aI1
aI4
aI1
aI1
aI1
aI1
aI1
aI1
aI2
aI1
aI1
aI3
aI1
aI4
aI1
aI1
aI1
aI1
aI1
aI1
aI1
aI1
aI3
aI1
aI4
aI1
aI1
aI1
aI1
aI1
aI1
aI1
aI1
aI2
aI2
aI1
aI1
aI1
aI1
aI1
aI1
aI1
aI1
aI1
aI1
aI1
aI1
aI3
aI1
aI4
aI1
aI1
aI1
aI1
aI1
aI1
aI1
aI1
aI2
aI2
aI2
aI2
aI1
aI1
aI1
aI1
aI1
aI1
aI1
aI1
aI1
aI1
aI1
aI1
aI1
aI1
aI1
aI1
aI1
aI1
aI1
aI1
aI1
aI1
aI1
aI1
aI1
aI1
aI1
aI1
aI1
aI1
aI1
aI1
aI1
aI1
aI1
aI1
aI1
aI1
aI1
aI1
aI1
aI1
aI1
aI1
aI1
aI1
aI1
aI1
aI1
aI1
aI1
aI1
aI1
aI1
aI1
aI1
aI1
aI1
aI1
aI1
aI1
aI1
aI1
aI1
aI3
aI1
aI1
aI1
aI1
aI1
aI3
aI1
aI2
aI1
aI1
aI1
aI1
aI1
aI1
aI2
aI2
aI3
aI1
aI2
aI1
aI1
aI3
aI1
aI2
aI1
aI1
aI2
aI1
aI3
aI1
aI1
aI2
aI1
aI1
aI2
aI2
aI1
aI7
aI1
aI1
aI1
aI1
aI2
aI2
aI8
aI1
aI1
aI1
aI1
aI2
aI2
aI8
aI1
aI1
aI1
aI1
aI2
aI2
aI8
aI4
aI4
aI8
aa(lp19
I2
aI2
aI2
aI2
aI6
aI2
aI15
aI1
aI2
aI2
aI2
aI2
aI6
aI2
aI15
aI1
aI2
aI2
aI2
aI2
aI4
aI2
aI13
aI1
aI2
aI2
aI2
aI2
aI2
aI2
aI4
aI2
aI17
aI1
aI2
aI2
aI2
aI2
aI6
aI2
aI11
aI1
aI2
aI2
aI2
aI2
aI2
aI2
aI6
aI2
aI11
aI1
aI2
aI2
aI2
aI2
aI2
aI2
aI4
aI2
aI8
aI2
aI2
aI2
aI2
aI2
aI15
aI1
aI6
aI6
aI4
aI2
aI2
aI2
aI2
aI4
aI2
aI13
aI1
aI4
aI2
aI2
aI2
aI2
aI4
aI2
aI13
aI1
aI4
aI2
aI2
aI2
aI2
aI4
aI2
aI17
aI1
aI2
aI2
aI2
aI2
aI4
aI2
aI13
aI1
aI4
aI2
aI2
aI2
aI2
aI4
aI2
aI13
aI1
aI4
aI2
aI2
aI2
aI2
aI4
aI2
aI17
aI1
aI2
aI2
aI2
aI2
aI8
aI2
aI2
aI2
aI2
aI6
aI2
aI15
aI1
aI11
aI1
aI4
aI2
aI2
aI2
aI2
aI4
aI2
aI2
aI8
aI2
aI2
aI2
aI2
aI2
aI2
aI2
aI2
aI4
aI2
aI10
aI2
aI2
aI2
aI2
aI2
aI2
aI2
aI2
aI4
aI2
aI6
aI4
aI4
aI2
aI10
aI2
aI2
aI2
aI2
aI4
aI4
aI4
aI4
aI2
aI2
aI2
aI2
aI4
aI2
aI10
aI2
aI2
aI2
aI2
aI2
aI2
aI2
aI2
aI4
aI12
aI2
aI2
aI2
aI2
aI6
aI6
aI4
aI4
aI4
aI2
aI2
aI2
aI2
aI8
aI2
aI2
aI2
aI2
aI11
aI1
aI4
aI2
aI2
aI2
aI2
aI4
aI2
aI13
aI1
aI4
aI2
aI2
aI2
aI2
aI4
aI2
aI13
aI1
aI4
aI2
aI2
aI2
aI2
aI4
aI2
aI13
aI1
aI4
aI2
aI2
aI2
aI2
aI4
aI2
aI13
aI1
aI4
aI2
aI2
aI2
aI2
aI6
aI2
aI11
aI1
aI4
aI2
aI2
aI2
aI2
aI6
aI2
aI15
aI1
aI2
aI2
aI2
aI2
aI8
aI2
aI2
aI2
aI2
aI6
aI2
aI11
aI1
aI2
aI13
aI1
aI2
aI2
aI16
aI4
aI4
aI4
aI2
aI13
aI1
aI2
aI13
aI1
aI2
aI2
aI8
aI6
aI2
aI4
aI4
aI4
aI4
aI15
aI1
aI15
aI1
aa(lp20
I4
aI2
aI2
aI8
aI4
aI4
aI8
aI4
aI2
aI2
aI8
aI4
aI4
aI8
aI4
aI2
aI2
aI8
aI4
aI4
aI8
aI4
aI2
aI2
aI8
aI4
aI4
aI8
aI4
aI2
aI2
aI8
aI4
aI4
aI8
aI4
aI2
aI2
aI8
aI4
aI4
aI8
aI4
aI2
aI2
aI8
aI4
aI4
aI8
aI6
aI2
aI8
aI8
aI4
aI4
aI4
aI2
aI2
aI8
aI4
aI4
aI8
aI4
aI2
aI2
aI8
aI4
aI2
aI2
aI8
aI4
aI2
aI2
aI8
aI4
aI4
aI8
aI4
aI2
aI2
aI8
aI4
aI2
aI2
aI8
aI4
aI2
aI2
aI6
aI6
aI4
aI6
aI6
aI4
aI6
aI6
aI4
aI8
aI4
aI2
aI2
aI6
aI6
aI2
aI2
aI8
aI4
aI4
aI8
aI8
aI4
aI4
aI6
aI1
aI1
aI8
aI4
aI4
aI8
aI8
aI8
aI4
aI4
aI8
aI4
aI2
aI2
aI8
aI4
aI4
aI6
aI8
aI2
aI6
aI2
aI4
aI2
aI10
aI2
aI2
aI2
aI2
aI8
aI4
aI4
aI8
aI8
aI8
aI4
aI4
aI8
aI2
aI2
aI2
aI2
aI8
aI4
aI4
aI8
aI4
aI4
aI8
aI8
aI4
aI4
aI4
aI4
aI8
aI4
aI4
aI8
aI4
aI4
aI8
aI16
aI6
aI2
aI8
aI4
aI4
aI8
aI4
aI4
aI8
aI16
aI15
aI1
aa(lp21
I8
aI2
aI2
aI2
aI2
aI6
aI2
aI2
aI2
aI2
aI2
aI6
aI2
aI2
aI2
aI2
aI2
aI4
aI3
aI1
aI6
aI6
aI4
aI2
aI2
aI2
aI2
aI6
aI2
aI2
aI2
aI2
aI2
aI6
aI2
aI2
aI2
aI2
aI2
aI4
aI3
aI1
aI6
aI6
aI1
aI1
aI6
aI1
aI1
aI2
aI2
aI2
aI2
aI6
aI6
aI1
aI1
aI6
aI1
aI1
aI2
aI2
aI2
aI2
aI6
aI6
aI1
aI1
aI6
aI1
aI1
aI2
aI2
aI2
aI2
aI2
aI2
aI2
aI2
aI8
aI6
aI1
aI1
aI2
aI2
aI2
aI2
aI6
aI6
aI1
aI1
aI2
aI2
aI2
aI4
aI2
aI2
aI2
aI2
aI2
aI2
aI4
aI2
aI2
aI2
aI4
aI2
aI2
aI4
aI4
aI6
aI6
aI1
aI1
aI2
aI2
aI2
aI4
aI2
aI2
aI2
aI2
aI2
aI2
aI4
aI2
aI2
aI2
aI2
aI2
aI2
aI4
aI2
aI2
aI6
aI6
aI1
aI1
aI6
aI1
aI1
aI2
aI2
aI2
aI2
aI6
aI6
aI1
aI1
aI6
aI1
aI1
aI2
aI2
aI2
aI2
aI6
aI6
aI1
aI1
aI6
aI1
aI1
aI2
aI2
aI2
aI2
aI2
aI2
aI2
aI2
aI8
aI6
aI1
aI1
aI2
aI2
aI2
aI2
aI7
aI5
aI2
aI2
aI2
aI2
aI4
aI4
aI2
aI2
aI2
aI2
aI4
aI4
aI1
aI1
aI2
aI2
aI2
aI2
aI4
aI3
aI1
aI6
aI6
aI1
aI1
aI2
aI2
aI2
aI2
aI2
aI2
aI2
aI2
aI2
aI2
aI2
aI2
aI4
aI3
aI1
aI2
aI2
aI2
aI2
aI4
aI4
aI6
aI6
aI1
aI1
aI6
aI1
aI1
aI2
aI2
aI2
aI2
aI6
aI6
aI1
aI1
aI6
aI1
aI1
aI2
aI2
aI2
aI2
aI6
aI6
aI1
aI1
aI6
aI1
aI1
aI2
aI2
aI2
aI2
aI2
aI2
aI2
aI2
aI8
aI6
aI1
aI1
aI2
aI2
aI2
aI2
aI6
aI6
aI1
aI1
aI2
aI2
aI2
aI2
aI4
aI4
aI8
aI8
aa(lp22
I14
aI1
aI1
aI6
aI2
aI4
aI4
aI13
aI1
aI1
aI1
aI6
aI2
aI4
aI4
aI13
aI1
aI1
aI1
aI6
aI2
aI4
aI4
aI13
aI1
aI1
aI1
aI6
aI2
aI4
aI4
aI13
aI1
aI1
aI1
aI6
aI2
aI4
aI4
aI13
aI1
aI1
aI1
aI6
aI2
aI4
aI4
aI13
aI1
aI1
aI1
aI6
aI2
aI4
aI4
aI6
aI2
aI6
aI1
aI1
aI6
aI2
aI4
aI4
aI13
aI1
aI1
aI1
aI6
aI2
aI4
aI4
aI13
aI1
aI1
aI1
aI6
aI2
aI4
aI4
aI13
aI1
aI1
aI1
aI6
aI2
aI4
aI4
aI8
aI6
aI2
aI15
aI1
aI4
aI4
aI6
aI1
aI1
aI6
aI2
aI4
aI4
aI13
aI1
aI1
aI1
aI6
aI2
aI4
aI4
aI6
aI2
aI6
aI1
aI1
aI6
aI2
aI4
aI4
aI8
aI8
aI15
aI15
aI1
aI1
aI15
aI15
aI1
aI1
aI15
aI1
aI8
aI8
aI15
aI1
aa(lp23
I8
aI4
aI8
aI4
aI8
aI4
aI11
aI1
aI8
aI4
aI8
aI4
aI8
aI4
aI8
aI2
aI2
aI8
aI4
aI4
aI4
aI4
aI8
aI4
aI8
aI2
aI2
aI4
aI4
aI4
aI8
aI4
aI8
aI2
aI2
aI4
aI4
aI2
aI2
aI4
aI4
aI4
aI4
aI4
aI4
aI4
aI4
aI2
aI2
aI8
aI2
aI2
aI4
aI4
aI4
aI4
aI6
aI2
aI8
aI2
aI2
aI4
aI4
aI2
aI2
aI4
aI4
aI4
aI4
aI4
aI4
aI4
aI4
aI2
aI2
aI8
aI2
aI2
aI4
aI4
aI4
aI4
aI4
aI4
aI8
aI2
aI2
aI4
aI4
aI2
aI2
aI4
aI4
aI4
aI4
aI4
aI4
aI4
aI4
aI2
aI2
aI8
aI2
aI2
aI4
aI4
aI4
aI4
aI6
aI2
aI8
aI4
aI2
aI2
aI4
aI2
aI2
aI4
aI4
aI4
aI4
aI4
aI4
aI4
aI4
aI2
aI2
aI8
aI2
aI2
aI4
aI4
aI4
aI4
aI4
aI4
aI2
aI2
aI4
aI2
aI2
aI4
aI4
aI2
aI1
aI1
aI4
aI4
aI4
aI4
aI4
aI4
aI8
aI4
aI8
aI2
aI2
aI4
aI4
aI4
aI4
aI4
aI4
aI8
aI2
aI2
aI8
aI2
aI2
aI11
aI1
aI4
aI4
aI2
aI2
aI11
aI1
aI8
aI4
aa(lp24
I6
aI6
aI4
aI4
aI4
aI4
aI4
aI4
aI2
aI10
aI12
aI2
aI2
aI4
aI2
aI6
aI4
aI4
aI2
aI6
aI4
aI4
aI2
aI10
aI12
aI2
aI2
aI4
aI2
aI4
aI6
aI8
aI4
aI4
aI4
aI2
aI4
aI6
aI8
aI4
aI4
aI4
aI2
aI6
aI4
aI4
aI4
aI4
aI2
aI10
aI12
aI4
aI4
aI2
aI2
aI6
aI6
aI2
aI2
aI4
aI4
aI4
aI4
aI4
aI4
aI4
aI2
aI10
aI4
aI2
aI2
aI6
aI6
aI2
aI2
aI4
aI4
aI6
aI2
aI8
aI2
aI2
aI4
aI4
aI8
aI2
aI2
aI6
aI6
aI2
aI2
aI4
aI4
aI4
aI4
aI4
aI4
aI4
aI2
aI10
aI4
aI2
aI2
aI6
aI6
aI2
aI2
aI4
aI4
aI6
aI2
aI8
aI8
aI4
aI4
aI4
aI2
aI2
aI4
aI2
aI6
aI2
aI2
aI4
aI2
aI6
aI4
aI4
aI2
aI10
aI12
aI2
aI2
aI4
aI2
aI4
aI6
aI4
aI2
aI4
aI6
aI4
aI2
aI10
aI12
aI2
aI2
aI4
aI2
aI4
aI6
aI8
aI8
aI4
aI2
aI4
aI6
aI8
aI6
aI1
aI1
aI4
aI4
aI4
aI4
aI4
aI2
aI4
aI6
aI8
aI8
aI4
aI4
aI4
aI2
aI2
aI6
aI6
aI2
aI2
aI4
aI4
aI4
aI4
aI4
aI4
aI4
aI2
aI10
aI4
aI2
aI2
aI6
aI6
aI2
aI2
aI4
aI4
aI6
aI2
aI8
aI2
aI2
aI4
aI4
aI8
aI2
aI2
aI6
aI6
aI2
aI2
aI4
aI4
aI4
aI4
aI4
aI4
aI6
aI1
aI1
aI8
aI4
aI2
aI2
aI6
aI6
aI2
aI2
aI4
aI4
aI6
aI2
aI8
aI8
aI4
aI4
aI4
aI2
aI2
aI6
aI6
aI2
aI2
aI4
aI4
aI4
aI4
aI4
aI4
aI6
aI1
aI1
aI8
aI4
aI2
aI2
aI6
aI6
aI2
aI2
aI4
aI4
aI6
aI2
aI8
aI8
aI4
aI4
aI4
aI2
aI2
aI6
aI6
aI2
aI2
aI4
aI4
aI4
aI4
aI4
aI4
aI6
aI1
aI1
aI8
aI4
aI2
aI2
aI6
aI6
aI2
aI2
aI4
aI4
aI6
aI2
aI8
aI8
aI4
aI4
aI4
aI2
aI2
aI6
aI6
aI2
aI2
aI6
aI6
aI4
aI8
aI8
aI4
aI4
aI4
aI2
aI2
aI6
aI6
aI2
aI2
aI4
aI4
aI6
aI2
aI15
aI1
aI2
aI2
aI2
aI10
aI8
aI8
aI15
aI1
aa(lp25
I4
aI4
aI4
aI4
aI4
aI4
aI4
aI4
aI4
aI4
aI4
aI4
aI4
aI4
aI4
aI4
aI4
aI4
aI4
aI4
aI4
aI4
aI4
aI2
aI2
aI4
aI4
aI2
aI2
aI4
aI4
aI2
aI2
aI2
aI2
aI2
aI2
aI2
aI2
aI8
aI2
aI2
aI4
aI4
aI2
aI2
aI4
aI4
aI2
aI2
aI11
aI1
aI2
aI2
aI6
aI1
aI1
aI6
aI1
aI1
aI2
aI2
aI2
aI2
aI2
aI2
aI2
aI2
aI2
aI2
aI2
aI2
aI2
aI2
aI10
aI1
aI1
aI6
aI1
aI1
aI2
aI2
aI2
aI2
aI2
aI2
aI2
aI2
aI12
aI2
aI2
aI6
aI1
aI1
aI6
aI1
aI1
aI2
aI2
aI2
aI2
aI2
aI2
aI2
aI2
aI2
aI2
aI2
aI2
aI2
aI2
aI10
aI1
aI1
aI4
aI4
aI4
aI2
aI2
aI2
aI2
aI2
aI2
aI11
aI1
aI2
aI2
aI6
aI1
aI1
aI6
aI1
aI1
aI2
aI2
aI2
aI2
aI2
aI2
aI2
aI2
aI2
aI2
aI2
aI2
aI2
aI2
aI10
aI1
aI1
aI6
aI1
aI1
aI2
aI2
aI2
aI2
aI2
aI2
aI2
aI2
aI10
aI2
aI4
aI4
aI2
aI1
aI1
aI6
aI1
aI1
aI2
aI2
aI2
aI2
aI2
aI2
aI2
aI2
aI2
aI2
aI2
aI2
aI2
aI2
aI10
aI1
aI1
aI2
aI2
aI2
aI2
aI2
aI2
aI2
aI2
aI2
aI2
aI2
aI2
aI10
aI2
aI4
aI4
aI2
aI1
aI1
aI6
aI2
aI2
aI2
aI4
aI4
aI2
aI2
aI12
aI2
aI2
aI6
aI1
aI1
aI6
aI2
aI2
aI2
aI2
aI2
aI2
aI2
aI2
aI2
aI2
aI8
aI2
aI2
aI2
aI2
aI2
aI2
aI2
aI8
aI4
aI2
aI2
aI2
aI2
aI2
aI6
aI16
aI4
aa(lp26
I8
aI4
aI8
aI4
aI8
aI4
aI8
aI4
aI8
aI4
aI4
aI4
aI4
aI4
aI4
aI4
aI6
aI2
aI4
aI8
aI4
aI8
aI4
aI8
aI4
aI11
aI1
aI8
aI4
aI4
aI4
aI4
aI11
aI1
aI4
aI4
aI4
aI8
aI4
aI11
aI1
aI8
aI4
aI11
aI1
aI8
aI4
aI4
aI4
aI4
aI4
aI4
aI4
aI6
aI2
aI4
aI8
aI4
aI11
aI1
aI8
aI4
aI11
aI1
aI8
aI4
aI4
aI6
aI1
aI1
aI11
aI1
aI4
aI4
aI4
aI8
aI4
aI11
aI1
aI8
aI4
aI11
aI1
aI8
aI4
aI4
aI4
aI4
aI4
aI4
aI4
aI6
aI2
aI4
aI8
aI4
aI11
aI1
aI8
aI4
aI11
aI1
aI8
aI4
aI4
aI6
aI2
aI11
aI1
aI2
aI2
aI4
aI4
aI8
aI4
aI11
aI1
aI8
aI4
aI11
aI1
aI8
aI4
aI4
aI4
aI4
aI4
aI4
aI4
aI4
aI4
aI4
aI8
aI4
aI11
aI1
aI8
aI4
aI11
aI1
aI8
aI4
aI4
aI6
aI1
aI1
aI8
aI2
aI2
aI4
aI8
aI8
aI4
aI8
aI4
aI11
aI1
aI2
aI2
aI8
aI8
aI2
aI2
aI4
aI6
aI2
aI11
aI1
aI11
aI1
aa(lp27
I14
aI1
aI1
aI6
aI6
aI4
aI6
aI8
aI1
aI1
aI6
aI6
aI4
aI6
aI8
aI1
aI1
aI13
aI1
aI2
aI6
aI8
aI1
aI1
aI6
aI10
aI14
aI1
aI1
aI6
aI6
aI4
aI6
aI8
aI1
aI1
aI6
aI6
aI4
aI6
aI8
aI1
aI1
aI6
aI6
aI4
aI6
aI6
aI4
aI6
aI6
aI4
aI6
aI8
aI1
aI1
aI6
aI6
aI4
aI6
aI8
aI1
aI1
aI6
aI6
aI4
aI6
aI8
aI1
aI1
aI6
aI8
aI2
aI6
aI2
aI6
aI1
aI1
aI6
aI6
aI4
aI4
aI4
aI6
aI1
aI1
aI6
aI6
aI4
aI6
aI8
aI1
aI1
aI6
aI8
aI2
aI6
aI8
aI1
aI1
aI6
aI8
aI2
aI6
aI8
aI1
aI1
aI6
aI8
aI2
aI6
aI2
aI6
aI1
aI1
aI6
aI8
aI2
aI6
aI8
aI1
aI1
aI6
aI8
aI2
aI6
aI8
aI1
aI1
aI6
aI8
aI2
aI6
aI8
aI2
aI6
aI10
aI14
aI1
aI1
aI6
aI6
aI4
aI6
aI8
aI2
aI15
aI15
aI1
aI1
aI6
aI6
aI4
aI6
aI10
aI1
aI1
aI1
aI1
aI1
aI2
aI1
aI8
aI15
aI1
aa(lp28
I2
aI2
aI8
aI2
aI2
aI8
aI2
aI2
aI8
aI2
aI2
aI8
aI2
aI2
aI8
aI2
aI2
aI8
aI2
aI2
aI8
aI2
aI2
aI8
aI2
aI2
aI8
aI2
aI2
aI8
aI2
aI2
aI8
aI2
aI2
aI8
aI2
aI2
aI6
aI2
aI2
aI2
aI6
aI2
aI11
aI1
aI4
aI4
aI4
aI2
aI2
aI6
aI2
aI2
aI2
aI4
aI4
aI2
aI2
aI8
aI2
aI2
aI8
aI2
aI2
aI8
aI2
aI2
aI8
aI2
aI2
aI6
aI1
aI1
aI2
aI2
aI8
aI2
aI2
aI8
aI2
aI2
aI8
aI2
aI2
aI8
aI2
aI2
aI8
aI2
aI2
aI6
aI2
aI2
aI2
aI6
aI2
aI11
aI1
aI4
aI6
aI1
aI1
aI2
aI2
aI6
aI1
aI1
aI2
aI2
aI6
aI1
aI1
aI2
aI2
aI6
aI2
aI2
aI2
aI6
aI1
aI1
aI2
aI2
aI6
aI2
aI4
aI6
aI2
aI2
aI2
aI6
aI2
aI2
aI2
aI6
aI1
aI1
aI2
aI2
aI6
aI2
aI2
aI2
aI6
aI1
aI1
aI2
aI2
aI6
aI2
aI2
aI2
aI6
aI2
aI2
aI2
aI6
aI2
aI2
aI2
aI6
aI2
aI4
aI8
aI12
aI2
aI2
aI6
aI2
aI2
aI2
aI8
aI2
aI2
aI6
aI2
aI2
aI2
aI8
aI2
aI2
aI8
aI4
aI6
aI1
aI1
aI11
aI1
aI11
aI1
aa(lp29
I4
aI2
aI2
aI2
aI2
aI2
aI2
aI8
aI4
aI2
aI2
aI4
aI2
aI2
aI2
aI2
aI2
aI2
aI11
aI1
aI4
aI4
aI2
aI2
aI2
aI2
aI2
aI2
aI8
aI2
aI2
aI2
aI2
aI4
aI2
aI2
aI2
aI2
aI2
aI1
aI1
aI11
aI1
aI2
aI2
aI4
aI2
aI2
aI4
aI2
aI2
aI4
aI2
aI2
aI4
aI2
aI2
aI4
aI2
aI2
aI2
aI2
aI2
aI2
aI11
aI1
aI2
aI2
aI4
aI2
aI2
aI4
aI2
aI2
aI4
aI2
aI2
aI4
aI2
aI2
aI4
aI2
aI2
aI2
aI2
aI2
aI1
aI1
aI8
aI4
aI4
aI4
aI2
aI2
aI2
aI2
aI2
aI2
aI8
aI2
aI2
aI2
aI2
aI4
aI2
aI2
aI2
aI2
aI2
aI2
aI11
aI1
aI4
aI4
aI2
aI2
aI2
aI2
aI2
aI2
aI4
aI2
aI2
aI2
aI2
aI2
aI2
aI4
aI2
aI2
aI2
aI2
aI2
aI1
aI1
aI8
aI2
aI2
aI2
aI2
aI4
aI2
aI2
aI4
aI2
aI2
aI4
aI2
aI2
aI4
aI2
aI2
aI4
aI2
aI2
aI2
aI2
aI2
aI2
aI11
aI1
aI2
aI2
aI4
aI2
aI2
aI4
aI2
aI2
aI4
aI2
aI2
aI4
aI2
aI2
aI4
aI2
aI2
aI2
aI2
aI2
aI1
aI1
aI8
aI4
aI4
aI4
aI2
aI2
aI2
aI2
aI2
aI1
aI1
aI6
aI2
aI2
aI2
aI2
aI1
aI1
aI6
aI2
aI4
aI2
aI2
aI15
aI1
aI15
aI1
aa(lp30
I4
aI6
aI2
aI11
aI1
aI4
aI6
aI2
aI11
aI1
aI4
aI6
aI2
aI11
aI1
aI4
aI4
aI2
aI2
aI11
aI1
aI4
aI6
aI2
aI11
aI1
aI4
aI6
aI2
aI11
aI1
aI4
aI6
aI2
aI2
aI2
aI4
aI2
aI2
aI11
aI1
aI2
aI2
aI8
aI4
aI6
aI2
aI11
aI1
aI4
aI6
aI2
aI11
aI1
aI4
aI6
aI2
aI11
aI1
aI4
aI4
aI2
aI2
aI11
aI1
aI4
aI6
aI2
aI11
aI1
aI4
aI6
aI2
aI11
aI1
aI4
aI6
aI2
aI2
aI2
aI6
aI2
aI11
aI1
aI2
aI2
aI4
aI2
aI2
aI4
aI6
aI2
aI8
aI2
aI2
aI4
aI6
aI2
aI8
aI2
aI2
aI4
aI6
aI2
aI4
aI6
aI2
aI11
aI1
aI2
aI2
aI4
aI2
aI2
aI4
aI6
aI2
aI8
aI2
aI2
aI4
aI6
aI2
aI8
aI2
aI2
aI4
aI8
aI4
aI4
aI4
aI11
aI1
aI2
aI2
aI8
aI4
aI6
aI2
aI11
aI1
aI4
aI6
aI2
aI11
aI1
aI8
aI2
aI2
aI4
aI4
aI4
aI8
aI2
aI2
aI2
aI2
aI2
aI2
aI2
aI2
aI11
aI1
aI4
aI4
aI4
aI11
aI1
aI11
aI1
aa(lp31
I2
aI2
aI11
aI1
aI2
aI2
aI11
aI1
aI2
aI2
aI11
aI1
aI2
aI2
aI11
aI1
aI2
aI2
aI11
aI1
aI2
aI2
aI11
aI1
aI2
aI2
aI25
aI1
aI1
aI1
aI2
aI2
aI10
aI1
aI1
aI2
aI2
aI10
aI1
aI1
aI2
aI2
aI10
aI1
aI1
aI2
aI2
aI10
aI1
aI1
aI2
aI2
aI10
aI1
aI1
aI2
aI2
aI10
aI1
aI1
aI2
aI2
aI10
aI1
aI1
aI2
aI2
aI10
aI1
aI1
aI2
aI2
aI10
aI1
aI1
aI2
aI2
aI10
aI1
aI1
aI2
aI2
aI11
aI1
aI2
aI2
aI10
aI1
aI1
aI2
aI2
aI10
aI1
aI1
aI2
aI2
aI12
aI2
aI2
aI27
aI1
aI2
aI2
aI11
aI1
aI2
aI2
aI11
aI1
aI2
aI2
aI11
aI1
aI2
aI2
aI11
aI1
aI2
aI2
aI11
aI1
aI2
aI2
aI11
aI1
aI2
aI2
aI11
aI1
aI6
aI8
aI1
aI1
aI2
aI2
aI10
aI1
aI1
aI2
aI2
aI10
aI1
aI1
aI2
aI2
aI10
aI1
aI1
aI2
aI2
aI10
aI1
aI1
aI2
aI2
aI2
aI8
aI1
aI1
aI2
aI2
aI12
aI2
aI2
aI11
aI1
aI2
aI2
aI2
aI2
aI6
aI1
aI1
aI2
aI2
aI10
aI1
aI1
aI2
aI2
aI10
aI1
aI1
aI2
aI2
aI10
aI1
aI1
aI2
aI2
aI10
aI1
aI1
aI2
aI2
aI10
aI1
aI1
aI2
aI2
aI10
aI1
aI1
aI29
aI1
aI1
aI1
aI2
aI2
aI10
aI1
aI1
aI2
aI2
aI10
aI1
aI1
aI2
aI2
aI10
aI1
aI1
aI2
aI2
aI6
aI1
aI1
aI2
aI2
aI10
aI1
aI1
aI2
aI2
aI10
aI1
aI1
aI2
aI2
aI6
aI2
aI2
aI2
aI2
aI2
aI6
aI10
aa(lp32
I8
aI4
aI8
aI2
aI2
aI8
aI2
aI2
aI10
aI2
aI10
aI2
aI8
aI4
aI8
aI2
aI2
aI8
aI4
aI8
aI2
aI2
aI8
aI2
aI2
aI2
aI2
aI6
aI2
aI2
aI2
aI6
aI2
aI8
aI2
aI2
aI8
aI2
aI2
aI2
aI2
aI2
aI2
aI2
aI2
aI11
aI1
aI4
aI6
aI2
aI8
aI2
aI2
aI8
aI2
aI2
aI10
aI2
aI8
aI2
aI2
aI8
aI4
aI4
aI6
aI2
aI10
aI2
aI8
aI2
aI2
aI8
aI2
aI2
aI4
aI6
aI2
aI2
aI2
aI2
aI2
aI2
aI2
aI8
aI2
aI2
aI2
aI2
aI6
aI2
aI2
aI2
aI6
aI1
aI1
aI11
aI1
aI8
aI2
aI2
aI8
aI2
aI2
aI2
aI2
aI8
aI2
aI2
aI2
aI2
aI2
aI2
aI10
aI2
aI2
aI2
aI6
aI2
aI2
aI2
aI6
aI2
aI11
aI1
aI8
aI2
aI2
aI2
aI2
aI6
aI2
aI2
aI2
aI4
aI4
aI6
aI2
aI2
aI2
aI2
aI10
aI11
aI1
aa(lp33
I2
aI12
aI1
aI1
aI2
aI12
aI1
aI1
aI2
aI12
aI1
aI1
aI14
aI1
aI1
aI2
aI10
aI3
aI1
aI14
aI1
aI1
aI14
aI1
aI1
aI15
aI1
aI2
aI10
aI3
aI1
aI2
aI12
aI1
aI1
aI2
aI12
aI1
aI1
aI13
aI1
aI1
aI1
aI2
aI10
aI3
aI1
aI13
aI1
aI1
aI1
aI11
aI1
aI4
aI13
aI1
aI1
aI1
aI13
aI1
aI1
aI1
aI13
aI1
aI1
aI1
aI15
aI1
aI4
aI4
aI2
aI2
aI2
aI2
aI2
aI12
aI1
aI1
aI15
aI1
aI15
aI1
aI4
aI4
aI2
aI2
aI2
aI2
aI2
aI11
aI1
aI2
aI13
aI1
aI2
aI11
aI1
aI4
aI13
aI1
aI1
aI1
aI2
aI13
aI1
aI4
aI4
aI6
aI2
aI31
aI1
aI2
aI10
aI3
aI1
aI2
aI11
aI1
aI1
aI1
aI2
aI11
aI1
aI1
aI1
aI2
aI11
aI1
aI1
aI1
aI2
aI10
aI3
aI1
aI13
aI1
aI1
aI1
aI4
aI4
aI4
aI4
aI15
aI1
aI15
aI1
aa(lp34
I2
aI2
aI6
aI2
aI2
aI2
aI10
aI2
aI2
aI2
aI2
aI2
aI6
aI2
aI2
aI2
aI10
aI2
aI2
aI2
aI2
aI2
aI6
aI2
aI2
aI2
aI6
aI2
aI2
aI2
aI2
aI1
aI1
aI15
aI1
aI4
aI4
aI2
aI2
aI2
aI2
aI11
aI1
aI2
aI2
aI8
aI2
aI2
aI2
aI2
aI10
aI2
aI2
aI2
aI8
aI2
aI2
aI2
aI2
aI10
aI2
aI2
aI2
aI10
aI2
aI2
aI2
aI6
aI2
aI6
aI2
aI8
aI2
aI2
aI2
aI2
aI10
aI2
aI2
aI2
aI8
aI2
aI2
aI2
aI2
aI10
aI2
aI2
aI2
aI8
aI2
aI2
aI2
aI2
aI10
aI2
aI2
aI2
aI6
aI2
aI4
aI2
aI2
aI6
aI2
aI6
aI1
aI1
aI4
aI2
aI2
aI2
aI2
aI2
aI2
aI4
aI2
aI4
aI6
aI8
aI2
aI2
aI2
aI2
aI4
aI2
aI4
aI6
aI8
aI2
aI2
aI2
aI2
aI4
aI2
aI8
aI2
aI4
aI2
aI4
aI6
aI4
aI2
aI10
aI8
aI2
aI2
aI2
aI2
aI6
aI2
aI6
aI2
aI8
aI2
aI2
aI2
aI2
aI6
aI2
aI6
aI2
aI8
aI2
aI2
aI2
aI2
aI6
aI2
aI6
aI2
aI6
aI2
aI2
aI4
aI2
aI15
aI1
aI10
aI2
aI2
aI2
aI2
aI2
aI2
aI2
aI2
aI2
aI2
aI2
aI2
aI2
aI2
aI2
aI6
aI1
aI1
aI2
aI2
aI2
aI4
aI2
aI2
aI2
aI6
aI1
aI1
aI2
aI2
aI2
aI2
aI10
aI2
aI2
aI2
aI6
aI2
aI2
aI2
aI2
aI2
aI31
aI1
aI15
aI17
aa(lp35
I16
aI11
aI1
aI4
aI11
aI1
aI4
aI2
aI10
aI2
aI2
aI2
aI13
aI1
aI11
aI3
aI2
aI11
aI3
aI1
aI1
aI2
aI13
aI1
aI4
aI4
aI2
aI2
aI2
aI10
aI2
aI2
aI2
aI10
aI2
aI2
aI2
aI10
aI2
aI2
aI2
aI10
aI2
aI2
aI2
aI10
aI2
aI2
aI2
aI10
aI6
aI1
aI1
aI2
aI10
aI2
aI1
aI1
aI2
aI6
aI2
aI2
aI2
aI10
aI2
aI2
aI2
aI10
aI2
aI2
aI2
aI10
aI2
aI2
aI2
aI10
aI2
aI2
aI2
aI10
aI2
aI2
aI2
aI10
aI6
aI1
aI1
aI8
aI4
aI4
aI8
aI2
aI2
aI2
aI10
aI2
aI2
aI2
aI10
aI2
aI2
aI2
aI10
aI2
aI2
aI2
aI10
aI2
aI1
aI1
aI2
aI2
aI8
aI2
aI1
aI1
aI2
aI2
aI8
aI2
aI2
aI2
aI4
aI8
aI2
aI4
aI8
aI2
aI2
aI2
aI10
aI2
aI2
aI2
aI10
aI2
aI2
aI2
aI10
aI2
aI2
aI2
aI10
aI2
aI1
aI1
aI2
aI2
aI8
aI2
aI1
aI1
aI2
aI2
aI8
aI2
aI1
aI1
aI2
aI2
aI6
aI2
aI2
aI2
aI2
aI2
aI15
aI1
aI15
aI1
aa(lp36
I1
aI1
aI1
aI2
aI1
aI1
aI1
aI1
aI1
aI1
aI2
aI1
aI1
aI1
aI1
aI1
aI1
aI2
aI1
aI1
aI1
aI1
aI1
aI1
aI2
aI1
aI1
aI1
aI1
aI1
aI1
aI2
aI1
aI1
aI1
aI1
aI1
aI1
aI2
aI1
aI1
aI1
aI10
aI2
aI2
aI2
aI1
aI1
aI1
aI2
aI1
aI1
aI1
aI1
aI1
aI1
aI2
aI1
aI1
aI1
aI1
aI1
aI1
aI2
aI1
aI1
aI1
aI1
aI1
aI1
aI2
aI1
aI1
aI1
aI1
aI1
aI1
aI2
aI1
aI1
aI1
aI1
aI1
aI1
aI2
aI1
aI1
aI1
aI11
aI1
aI2
aI2
aI4
aI2
aI2
aI4
aI2
aI2
aI4
aI4
aI4
aI2
aI2
aI4
aI2
aI2
aI4
aI2
aI2
aI4
aI4
aI4
aI2
aI2
aI4
aI2
aI2
aI4
aI2
aI2
aI4
aI4
aI4
aI2
aI2
aI4
aI2
aI2
aI4
aI4
aI11
aI1
aI2
aI2
aI4
aI2
aI2
aI4
aI2
aI2
aI4
aI4
aI4
aI2
aI2
aI4
aI2
aI2
aI4
aI2
aI2
aI4
aI4
aI4
aI2
aI2
aI4
aI2
aI2
aI4
aI2
aI2
aI4
aI4
aI4
aI2
aI2
aI4
aI2
aI2
aI4
aI4
aI8
aI4
aI2
aI2
aI4
aI2
aI2
aI4
aI2
aI2
aI4
aI4
aI4
aI2
aI2
aI4
aI2
aI2
aI4
aI2
aI2
aI4
aI4
aI4
aI2
aI2
aI4
aI2
aI2
aI4
aI2
aI2
aI4
aI4
aI4
aI2
aI2
aI4
aI2
aI2
aI4
aI4
aI8
aI8
aa(lp37
I12
aI2
aI2
aI4
aI4
aI4
aI2
aI2
aI4
aI8
aI2
aI2
aI4
aI4
aI4
aI2
aI2
aI4
aI8
aI2
aI2
aI4
aI4
aI4
aI2
aI2
aI4
aI8
aI2
aI2
aI4
aI4
aI4
aI4
aI11
aI1
aI2
aI2
aI4
aI2
aI2
aI4
aI2
aI2
aI4
aI8
aI2
aI2
aI4
aI2
aI2
aI4
aI2
aI2
aI4
aI8
aI2
aI2
aI4
aI4
aI4
aI2
aI2
aI4
aI8
aI2
aI2
aI4
aI2
aI2
aI4
aI2
aI2
aI11
aI1
aI2
aI2
aI4
aI4
aI4
aI2
aI2
aI4
aI8
aI2
aI2
aI4
aI4
aI4
aI2
aI2
aI4
aI8
aI2
aI2
aI4
aI4
aI4
aI2
aI2
aI4
aI8
aI2
aI2
aI4
aI4
aI4
aI4
aI11
aI1
aI2
aI2
aI4
aI2
aI2
aI4
aI2
aI2
aI4
aI8
aI2
aI2
aI4
aI2
aI2
aI4
aI2
aI2
aI4
aI8
aI2
aI2
aI4
aI4
aI4
aI2
aI2
aI4
aI8
aI2
aI2
aI4
aI4
aI4
aI4
aI11
aI1
aI2
aI2
aI4
aI4
aI4
aI4
aI11
aI1
aI4
aI15
aI1
aatb.